Component: ARM Compiler 5.06 update 6 (build 750) Tool: armlink [4d35ed]

==============================================================================

Section Cross References

    arduino.o(i.analogRead) refers to adc.o(i.Get_ADC) for Get_ADC
    arduino.o(i.analogRead) refers to gpio.o(.constdata) for PIN_MAP
    arduino.o(i.analogRead_DMA) refers to adc.o(i.ADC_DMA_GetValue) for ADC_DMA_GetValue
    arduino.o(i.analogRead_DMA) refers to gpio.o(.constdata) for PIN_MAP
    arduino.o(i.analogWrite) refers to pwm.o(i.pwmWrite) for pwmWrite
    arduino.o(i.analogWrite) refers to gpio.o(.constdata) for PIN_MAP
    arduino.o(i.digitalRead) refers to gpio.o(.constdata) for PIN_MAP
    arduino.o(i.digitalWrite) refers to gpio.o(.constdata) for PIN_MAP
    arduino.o(i.fmap) refers to dadd.o(.text) for __aeabi_dsub
    arduino.o(i.fmap) refers to dmul.o(.text) for __aeabi_dmul
    arduino.o(i.fmap) refers to ddiv.o(.text) for __aeabi_ddiv
    arduino.o(i.pinMode) refers to gpio.o(i.GPIOx_Init) for GPIOx_Init
    arduino.o(i.pinMode) refers to adc.o(i.ADC_DMA_Register) for ADC_DMA_Register
    arduino.o(i.pinMode) refers to pwm.o(i.PWM_Init) for PWM_Init
    arduino.o(i.pinMode) refers to gpio.o(.constdata) for PIN_MAP
    arduino.o(i.pulseIn) refers to uldiv.o(.text) for __aeabi_uldivmod
    arduino.o(i.pulseIn) refers to gpio.o(.constdata) for PIN_MAP
    arduino.o(i.pulseIn) refers to system_stm32f4xx.o(.data) for SystemCoreClock
    arduino.o(i.shiftIn) refers to gpio.o(.constdata) for PIN_MAP
    arduino.o(i.shiftOut) refers to gpio.o(.constdata) for PIN_MAP
    dtostrf.o(i.dtostrf) refers to printfa.o(i.__0sprintf) for __2sprintf
    print.o(i._ZN5Print10printFloatEdh) refers to cdrcmple.o(.text) for __aeabi_cdrcmple
    print.o(i._ZN5Print10printFloatEdh) refers to cdcmple.o(.text) for __aeabi_cdcmple
    print.o(i._ZN5Print10printFloatEdh) refers to dmul.o(.text) for __aeabi_dmul
    print.o(i._ZN5Print10printFloatEdh) refers to dadd.o(.text) for __aeabi_dadd
    print.o(i._ZN5Print10printFloatEdh) refers to dfixl.o(.text) for __aeabi_d2lz
    print.o(i._ZN5Print10printFloatEdh) refers to dfltl.o(.text) for __aeabi_l2d
    print.o(i._ZN5Print10printFloatEdh) refers to print.o(i._ZN5Print5printExi) for Print::print(long long, int)
    print.o(i._ZN5Print10printFloatEdh) refers to dfixi.o(.text) for __aeabi_d2iz
    print.o(i._ZN5Print10printFloatEdh) refers to dflti.o(.text) for __aeabi_i2d
    print.o(i._ZN5Print11printNumberEyh) refers to uldiv.o(.text) for __aeabi_uldivmod
    print.o(i._ZN5Print5printEdi) refers to print.o(i._ZN5Print10printFloatEdh) for Print::printFloat(double, unsigned char)
    print.o(i._ZN5Print5printEhi) refers to print.o(i._ZN5Print11printNumberEyh) for Print::printNumber(unsigned long long, unsigned char)
    print.o(i._ZN5Print5printEii) refers to print.o(i._ZN5Print5printExi) for Print::print(long long, int)
    print.o(i._ZN5Print5printEji) refers to print.o(i._ZN5Print11printNumberEyh) for Print::printNumber(unsigned long long, unsigned char)
    print.o(i._ZN5Print5printEli) refers to print.o(i._ZN5Print5printExi) for Print::print(long long, int)
    print.o(i._ZN5Print5printEmi) refers to print.o(i._ZN5Print11printNumberEyh) for Print::printNumber(unsigned long long, unsigned char)
    print.o(i._ZN5Print5printExi) refers to print.o(i._ZN5Print11printNumberEyh) for Print::printNumber(unsigned long long, unsigned char)
    print.o(i._ZN5Print5printEyi) refers to print.o(i._ZN5Print11printNumberEyh) for Print::printNumber(unsigned long long, unsigned char)
    print.o(i._ZN5Print6printfEPKcz) refers to printfa.o(i.__0vsnprintf) for __c89vsnprintf
    print.o(i._ZN5Print7printlnEdi) refers to print.o(i._ZN5Print10printFloatEdh) for Print::printFloat(double, unsigned char)
    print.o(i._ZN5Print7printlnEhi) refers to print.o(i._ZN5Print11printNumberEyh) for Print::printNumber(unsigned long long, unsigned char)
    print.o(i._ZN5Print7printlnEii) refers to print.o(i._ZN5Print5printExi) for Print::print(long long, int)
    print.o(i._ZN5Print7printlnEji) refers to print.o(i._ZN5Print11printNumberEyh) for Print::printNumber(unsigned long long, unsigned char)
    print.o(i._ZN5Print7printlnEli) refers to print.o(i._ZN5Print5printExi) for Print::print(long long, int)
    print.o(i._ZN5Print7printlnEmi) refers to print.o(i._ZN5Print11printNumberEyh) for Print::printNumber(unsigned long long, unsigned char)
    print.o(i._ZN5Print7printlnExi) refers to print.o(i._ZN5Print5printExi) for Print::print(long long, int)
    print.o(i._ZN5Print7printlnEyi) refers to print.o(i._ZN5Print11printNumberEyh) for Print::printNumber(unsigned long long, unsigned char)
    print.o(.ARM.exidx) refers to print.o(i._ZN5Print5writeEPKc) for i._ZN5Print5writeEPKc
    print.o(.ARM.exidx) refers to print.o(i._ZN5Print5writeEPKvj) for i._ZN5Print5writeEPKvj
    print.o(.ARM.exidx) refers to print.o(i._ZN5Print5printERK6String) for i._ZN5Print5printERK6String
    print.o(.ARM.exidx) refers to print.o(i._ZN5Print5printEc) for i._ZN5Print5printEc
    print.o(.ARM.exidx) refers to print.o(i._ZN5Print5printEPKc) for i._ZN5Print5printEPKc
    print.o(.ARM.exidx) refers to print.o(i._ZN5Print11printNumberEyh) for i._ZN5Print11printNumberEyh
    print.o(.ARM.exidx) refers to print.o(i._ZN5Print5printEyi) for i._ZN5Print5printEyi
    print.o(.ARM.exidx) refers to print.o(i._ZN5Print5printEhi) for i._ZN5Print5printEhi
    print.o(.ARM.exidx) refers to print.o(i._ZN5Print5printExi) for i._ZN5Print5printExi
    print.o(.ARM.exidx) refers to print.o(i._ZN5Print5printEii) for i._ZN5Print5printEii
    print.o(.ARM.exidx) refers to print.o(i._ZN5Print5printEji) for i._ZN5Print5printEji
    print.o(.ARM.exidx) refers to print.o(i._ZN5Print5printEli) for i._ZN5Print5printEli
    print.o(.ARM.exidx) refers to print.o(i._ZN5Print5printEmi) for i._ZN5Print5printEmi
    print.o(.ARM.exidx) refers to print.o(i._ZN5Print10printFloatEdh) for i._ZN5Print10printFloatEdh
    print.o(.ARM.exidx) refers to print.o(i._ZN5Print5printEdi) for i._ZN5Print5printEdi
    print.o(.ARM.exidx) refers to print.o(i._ZN5Print5printEPK19__FlashStringHelper) for i._ZN5Print5printEPK19__FlashStringHelper
    print.o(.ARM.exidx) refers to print.o(i._ZN5Print5printERK9Printable) for i._ZN5Print5printERK9Printable
    print.o(.ARM.exidx) refers to print.o(i._ZN5Print7printlnEv) for i._ZN5Print7printlnEv
    print.o(.ARM.exidx) refers to print.o(i._ZN5Print7printlnERK6String) for i._ZN5Print7printlnERK6String
    print.o(.ARM.exidx) refers to print.o(i._ZN5Print7printlnEc) for i._ZN5Print7printlnEc
    print.o(.ARM.exidx) refers to print.o(i._ZN5Print7printlnEPKc) for i._ZN5Print7printlnEPKc
    print.o(.ARM.exidx) refers to print.o(i._ZN5Print7printlnEhi) for i._ZN5Print7printlnEhi
    print.o(.ARM.exidx) refers to print.o(i._ZN5Print7printlnEii) for i._ZN5Print7printlnEii
    print.o(.ARM.exidx) refers to print.o(i._ZN5Print7printlnEji) for i._ZN5Print7printlnEji
    print.o(.ARM.exidx) refers to print.o(i._ZN5Print7printlnEli) for i._ZN5Print7printlnEli
    print.o(.ARM.exidx) refers to print.o(i._ZN5Print7printlnEmi) for i._ZN5Print7printlnEmi
    print.o(.ARM.exidx) refers to print.o(i._ZN5Print7printlnExi) for i._ZN5Print7printlnExi
    print.o(.ARM.exidx) refers to print.o(i._ZN5Print7printlnEyi) for i._ZN5Print7printlnEyi
    print.o(.ARM.exidx) refers to print.o(i._ZN5Print7printlnEdi) for i._ZN5Print7printlnEdi
    print.o(.ARM.exidx) refers to print.o(i._ZN5Print7printlnEPK19__FlashStringHelper) for i._ZN5Print7printlnEPK19__FlashStringHelper
    print.o(.ARM.exidx) refers to print.o(i._ZN5Print7printlnERK9Printable) for i._ZN5Print7printlnERK9Printable
    print.o(.ARM.exidx) refers to print.o(i._ZN5Print6printfEPKcz) for i._ZN5Print6printfEPKcz
    stream.o(i._ZN6Stream10parseFloatEc) refers to delay.o(i.millis) for millis
    stream.o(i._ZN6Stream10parseFloatEv) refers to stream.o(i._ZN6Stream10parseFloatEc) for Stream::parseFloat(char)
    stream.o(i._ZN6Stream10readStringEv) refers to wstring.o(i._ZN6StringC1EPKc) for String::String(const char*)
    stream.o(i._ZN6Stream10readStringEv) refers to delay.o(i.millis) for millis
    stream.o(i._ZN6Stream10readStringEv) refers to wstring.o(i._ZN6String6concatEc) for String::concat(char)
    stream.o(i._ZN6Stream13peekNextDigitEv) refers to delay.o(i.millis) for millis
    stream.o(i._ZN6Stream14readBytesUntilEcPcj) refers to delay.o(i.millis) for millis
    stream.o(i._ZN6Stream15readStringUntilEc) refers to wstring.o(i._ZN6StringC1EPKc) for String::String(const char*)
    stream.o(i._ZN6Stream15readStringUntilEc) refers to delay.o(i.millis) for millis
    stream.o(i._ZN6Stream15readStringUntilEc) refers to wstring.o(i._ZN6String6concatEc) for String::concat(char)
    stream.o(i._ZN6Stream4findEPc) refers to strlen.o(.text) for strlen
    stream.o(i._ZN6Stream4findEPc) refers to stream.o(i._ZN6Stream9findUntilEPcjS0_j) for Stream::findUntil(char*, unsigned, char*, unsigned)
    stream.o(i._ZN6Stream4findEPcj) refers to stream.o(i._ZN6Stream9findUntilEPcjS0_j) for Stream::findUntil(char*, unsigned, char*, unsigned)
    stream.o(i._ZN6Stream8parseIntEc) refers to delay.o(i.millis) for millis
    stream.o(i._ZN6Stream8parseIntEv) refers to delay.o(i.millis) for millis
    stream.o(i._ZN6Stream9findMultiEPNS_11MultiTargetEi) refers to delay.o(i.millis) for millis
    stream.o(i._ZN6Stream9findUntilEPcS0_) refers to strlen.o(.text) for strlen
    stream.o(i._ZN6Stream9findUntilEPcS0_) refers to stream.o(i._ZN6Stream9findUntilEPcjS0_j) for Stream::findUntil(char*, unsigned, char*, unsigned)
    stream.o(i._ZN6Stream9findUntilEPcjS0_j) refers to delay.o(i.millis) for millis
    stream.o(i._ZN6Stream9readBytesEPcj) refers to delay.o(i.millis) for millis
    stream.o(i._ZN6Stream9timedPeekEv) refers to delay.o(i.millis) for millis
    stream.o(i._ZN6Stream9timedReadEv) refers to delay.o(i.millis) for millis
    stream.o(.ARM.exidx) refers to stream.o(i._ZN6Stream9timedReadEv) for i._ZN6Stream9timedReadEv
    stream.o(.ARM.exidx) refers to stream.o(i._ZN6Stream9timedPeekEv) for i._ZN6Stream9timedPeekEv
    stream.o(.ARM.exidx) refers to stream.o(i._ZN6Stream13peekNextDigitEv) for i._ZN6Stream13peekNextDigitEv
    stream.o(.ARM.exidx) refers to stream.o(i._ZN6Stream10setTimeoutEm) for i._ZN6Stream10setTimeoutEm
    stream.o(.ARM.exidx) refers to stream.o(i._ZN6Stream9findUntilEPcjS0_j) for i._ZN6Stream9findUntilEPcjS0_j
    stream.o(.ARM.exidx) refers to stream.o(i._ZN6Stream4findEPc) for i._ZN6Stream4findEPc
    stream.o(.ARM.exidx) refers to stream.o(i._ZN6Stream4findEPcj) for i._ZN6Stream4findEPcj
    stream.o(.ARM.exidx) refers to stream.o(i._ZN6Stream9findUntilEPcS0_) for i._ZN6Stream9findUntilEPcS0_
    stream.o(.ARM.exidx) refers to stream.o(i._ZN6Stream8parseIntEc) for i._ZN6Stream8parseIntEc
    stream.o(.ARM.exidx) refers to stream.o(i._ZN6Stream8parseIntEv) for i._ZN6Stream8parseIntEv
    stream.o(.ARM.exidx) refers to stream.o(i._ZN6Stream10parseFloatEc) for i._ZN6Stream10parseFloatEc
    stream.o(.ARM.exidx) refers to stream.o(i._ZN6Stream10parseFloatEv) for i._ZN6Stream10parseFloatEv
    stream.o(.ARM.exidx) refers to stream.o(i._ZN6Stream9readBytesEPcj) for i._ZN6Stream9readBytesEPcj
    stream.o(.ARM.exidx) refers to stream.o(i._ZN6Stream14readBytesUntilEcPcj) for i._ZN6Stream14readBytesUntilEcPcj
    stream.o(.ARM.exidx) refers to stream.o(i._ZN6Stream10readStringEv) for i._ZN6Stream10readStringEv
    stream.o(.ARM.exidx) refers to stream.o(i._ZN6Stream15readStringUntilEc) for i._ZN6Stream15readStringUntilEc
    stream.o(.ARM.exidx) refers to stream.o(i._ZN6Stream9findMultiEPNS_11MultiTargetEi) for i._ZN6Stream9findMultiEPNS_11MultiTargetEi
    wstring.o(i._ZN6String10invalidateEv) refers to mallocr.o(i.__free$realloc) for free
    wstring.o(i._ZN6String11toLowerCaseEv) refers to tolower.o(.text) for tolower
    wstring.o(i._ZN6String11toUpperCaseEv) refers to toupper.o(.text) for toupper
    wstring.o(i._ZN6String12changeBufferEj) refers to mallocr.o(i.realloc) for realloc
    wstring.o(i._ZN6String4copyEPK19__FlashStringHelperj) refers to mallocr.o(i.realloc) for realloc
    wstring.o(i._ZN6String4copyEPK19__FlashStringHelperj) refers to strcpy.o(.text) for strcpy
    wstring.o(i._ZN6String4copyEPK19__FlashStringHelperj) refers to mallocr.o(i.__free$realloc) for free
    wstring.o(i._ZN6String4copyEPKcj) refers to mallocr.o(i.realloc) for realloc
    wstring.o(i._ZN6String4copyEPKcj) refers to strcpy.o(.text) for strcpy
    wstring.o(i._ZN6String4copyEPKcj) refers to mallocr.o(i.__free$realloc) for free
    wstring.o(i._ZN6String4trimEv) refers to ctype_o.o(.text) for __rt_ctype_table
    wstring.o(i._ZN6String4trimEv) refers to memmovea.o(.text) for __aeabi_memcpy
    wstring.o(i._ZN6String6concatEPK19__FlashStringHelper) refers to strlen.o(.text) for strlen
    wstring.o(i._ZN6String6concatEPK19__FlashStringHelper) refers to mallocr.o(i.realloc) for realloc
    wstring.o(i._ZN6String6concatEPK19__FlashStringHelper) refers to strcpy.o(.text) for strcpy
    wstring.o(i._ZN6String6concatEPKc) refers to strlen.o(.text) for strlen
    wstring.o(i._ZN6String6concatEPKc) refers to wstring.o(i._ZN6String6concatEPKcj) for String::concat(const char*, unsigned)
    wstring.o(i._ZN6String6concatEPKcj) refers to mallocr.o(i.realloc) for realloc
    wstring.o(i._ZN6String6concatEPKcj) refers to strcpy.o(.text) for strcpy
    wstring.o(i._ZN6String6concatERKS_) refers to wstring.o(i._ZN6String6concatEPKcj) for String::concat(const char*, unsigned)
    wstring.o(i._ZN6String6concatEc) refers to wstring.o(i._ZN6String6concatEPKcj) for String::concat(const char*, unsigned)
    wstring.o(i._ZN6String6concatEd) refers to dtostrf.o(i.dtostrf) for dtostrf
    wstring.o(i._ZN6String6concatEd) refers to strlen.o(.text) for strlen
    wstring.o(i._ZN6String6concatEd) refers to wstring.o(i._ZN6String6concatEPKcj) for String::concat(const char*, unsigned)
    wstring.o(i._ZN6String6concatEf) refers to f2d.o(.text) for __aeabi_f2d
    wstring.o(i._ZN6String6concatEf) refers to dtostrf.o(i.dtostrf) for dtostrf
    wstring.o(i._ZN6String6concatEf) refers to strlen.o(.text) for strlen
    wstring.o(i._ZN6String6concatEf) refers to wstring.o(i._ZN6String6concatEPKcj) for String::concat(const char*, unsigned)
    wstring.o(i._ZN6String6concatEh) refers to itoa.o(i.itoa) for itoa
    wstring.o(i._ZN6String6concatEh) refers to strlen.o(.text) for strlen
    wstring.o(i._ZN6String6concatEh) refers to wstring.o(i._ZN6String6concatEPKcj) for String::concat(const char*, unsigned)
    wstring.o(i._ZN6String6concatEi) refers to itoa.o(i.itoa) for itoa
    wstring.o(i._ZN6String6concatEi) refers to strlen.o(.text) for strlen
    wstring.o(i._ZN6String6concatEi) refers to wstring.o(i._ZN6String6concatEPKcj) for String::concat(const char*, unsigned)
    wstring.o(i._ZN6String6concatEj) refers to itoa.o(i.utoa) for utoa
    wstring.o(i._ZN6String6concatEj) refers to strlen.o(.text) for strlen
    wstring.o(i._ZN6String6concatEj) refers to wstring.o(i._ZN6String6concatEPKcj) for String::concat(const char*, unsigned)
    wstring.o(i._ZN6String6concatEl) refers to itoa.o(i.ltoa) for ltoa
    wstring.o(i._ZN6String6concatEl) refers to strlen.o(.text) for strlen
    wstring.o(i._ZN6String6concatEl) refers to wstring.o(i._ZN6String6concatEPKcj) for String::concat(const char*, unsigned)
    wstring.o(i._ZN6String6concatEm) refers to itoa.o(i.ultoa) for ultoa
    wstring.o(i._ZN6String6concatEm) refers to strlen.o(.text) for strlen
    wstring.o(i._ZN6String6concatEm) refers to wstring.o(i._ZN6String6concatEPKcj) for String::concat(const char*, unsigned)
    wstring.o(i._ZN6String6removeEj) refers to strncpy.o(.text) for strncpy
    wstring.o(i._ZN6String6removeEjj) refers to strncpy.o(.text) for strncpy
    wstring.o(i._ZN6String7replaceERKS_S1_) refers to strstr.o(.text) for strstr
    wstring.o(i._ZN6String7replaceERKS_S1_) refers to memmovea.o(.text) for __aeabi_memcpy
    wstring.o(i._ZN6String7replaceERKS_S1_) refers to strcpy.o(.text) for strcpy
    wstring.o(i._ZN6String7replaceERKS_S1_) refers to mallocr.o(i.realloc) for realloc
    wstring.o(i._ZN6String7reserveEj) refers to mallocr.o(i.realloc) for realloc
    wstring.o(i._ZN6String7sprintfEPKcz) refers to printfa.o(i.__0vsnprintf) for __c89vsnprintf
    wstring.o(i._ZN6String7sprintfEPKcz) refers to strlen.o(.text) for strlen
    wstring.o(i._ZN6String7sprintfEPKcz) refers to wstring.o(i._ZN6String4copyEPKcj) for String::copy(const char*, unsigned)
    wstring.o(i._ZN6StringC1EPK19__FlashStringHelper) refers to strlen.o(.text) for strlen
    wstring.o(i._ZN6StringC1EPK19__FlashStringHelper) refers to mallocr.o(i.realloc) for realloc
    wstring.o(i._ZN6StringC1EPK19__FlashStringHelper) refers to strcpy.o(.text) for strcpy
    wstring.o(i._ZN6StringC1EPK19__FlashStringHelper) refers to mallocr.o(i.__free$realloc) for free
    wstring.o(i._ZN6StringC1EPKc) refers to strlen.o(.text) for strlen
    wstring.o(i._ZN6StringC1EPKc) refers to wstring.o(i._ZN6String4copyEPKcj) for String::copy(const char*, unsigned)
    wstring.o(i._ZN6StringC1ERKS_) refers to wstring.o(i._ZN6String4copyEPKcj) for String::copy(const char*, unsigned)
    wstring.o(i._ZN6StringC1Ec) refers to wstring.o(i._ZN6StringaSEPKc) for String::operator =(const char*)
    wstring.o(i._ZN6StringC1Edh) refers to dtostrf.o(i.dtostrf) for dtostrf
    wstring.o(i._ZN6StringC1Edh) refers to wstring.o(i._ZN6StringaSEPKc) for String::operator =(const char*)
    wstring.o(i._ZN6StringC1Efh) refers to f2d.o(.text) for __aeabi_f2d
    wstring.o(i._ZN6StringC1Efh) refers to dtostrf.o(i.dtostrf) for dtostrf
    wstring.o(i._ZN6StringC1Efh) refers to wstring.o(i._ZN6StringaSEPKc) for String::operator =(const char*)
    wstring.o(i._ZN6StringC1Ehh) refers to itoa.o(i.utoa) for utoa
    wstring.o(i._ZN6StringC1Ehh) refers to wstring.o(i._ZN6StringaSEPKc) for String::operator =(const char*)
    wstring.o(i._ZN6StringC1Eih) refers to itoa.o(i.itoa) for itoa
    wstring.o(i._ZN6StringC1Eih) refers to wstring.o(i._ZN6StringaSEPKc) for String::operator =(const char*)
    wstring.o(i._ZN6StringC1Ejh) refers to itoa.o(i.utoa) for utoa
    wstring.o(i._ZN6StringC1Ejh) refers to wstring.o(i._ZN6StringaSEPKc) for String::operator =(const char*)
    wstring.o(i._ZN6StringC1Elh) refers to itoa.o(i.ltoa) for ltoa
    wstring.o(i._ZN6StringC1Elh) refers to wstring.o(i._ZN6StringaSEPKc) for String::operator =(const char*)
    wstring.o(i._ZN6StringC1Emh) refers to itoa.o(i.ultoa) for ultoa
    wstring.o(i._ZN6StringC1Emh) refers to wstring.o(i._ZN6StringaSEPKc) for String::operator =(const char*)
    wstring.o(i._ZN6StringD1Ev) refers to mallocr.o(i.__free$realloc) for free
    wstring.o(i._ZN6StringaSEPK19__FlashStringHelper) refers to strlen.o(.text) for strlen
    wstring.o(i._ZN6StringaSEPK19__FlashStringHelper) refers to mallocr.o(i.realloc) for realloc
    wstring.o(i._ZN6StringaSEPK19__FlashStringHelper) refers to strcpy.o(.text) for strcpy
    wstring.o(i._ZN6StringaSEPK19__FlashStringHelper) refers to mallocr.o(i.__free$realloc) for free
    wstring.o(i._ZN6StringaSEPKc) refers to strlen.o(.text) for strlen
    wstring.o(i._ZN6StringaSEPKc) refers to wstring.o(i._ZN6String4copyEPKcj) for String::copy(const char*, unsigned)
    wstring.o(i._ZN6StringaSEPKc) refers to mallocr.o(i.__free$realloc) for free
    wstring.o(i._ZN6StringaSERKS_) refers to wstring.o(i._ZN6String4copyEPKcj) for String::copy(const char*, unsigned)
    wstring.o(i._ZN6StringaSERKS_) refers to mallocr.o(i.__free$realloc) for free
    wstring.o(i._ZN6StringixEj) refers to wstring.o(.data) for .data
    wstring.o(i._ZNK6String10startsWithERKS_) refers to strncmp.o(.text) for strncmp
    wstring.o(i._ZNK6String10startsWithERKS_j) refers to strncmp.o(.text) for strncmp
    wstring.o(i._ZNK6String11lastIndexOfERKS_) refers to strstr.o(.text) for strstr
    wstring.o(i._ZNK6String11lastIndexOfERKS_j) refers to strstr.o(.text) for strstr
    wstring.o(i._ZNK6String11lastIndexOfEc) refers to strrchr.o(.text) for strrchr
    wstring.o(i._ZNK6String11lastIndexOfEcj) refers to strrchr.o(.text) for strrchr
    wstring.o(i._ZNK6String16equalsIgnoreCaseERKS_) refers to tolower.o(.text) for tolower
    wstring.o(i._ZNK6String5toIntEv) refers to atol.o(.text) for atol
    wstring.o(i._ZNK6String6equalsEPKc) refers to strcmp.o(.text) for strcmp
    wstring.o(i._ZNK6String6equalsERKS_) refers to wstring.o(i._ZNK6String9compareToERKS_) for String::compareTo(const String&) const
    wstring.o(i._ZNK6String7indexOfERKS_) refers to strstr.o(.text) for strstr
    wstring.o(i._ZNK6String7indexOfERKS_j) refers to strstr.o(.text) for strstr
    wstring.o(i._ZNK6String7indexOfEc) refers to strchr.o(.text) for strchr
    wstring.o(i._ZNK6String7indexOfEcj) refers to strchr.o(.text) for strchr
    wstring.o(i._ZNK6String7toFloatEv) refers to atof.o(i.__hardfp_atof) for __hardfp_atof
    wstring.o(i._ZNK6String7toFloatEv) refers to d2f.o(.text) for __aeabi_d2f
    wstring.o(i._ZNK6String8endsWithERKS_) refers to strcmp.o(.text) for strcmp
    wstring.o(i._ZNK6String8getBytesEPhjj) refers to strncpy.o(.text) for strncpy
    wstring.o(i._ZNK6String9compareToERKS_) refers to strcmp.o(.text) for strcmp
    wstring.o(i._ZNK6String9substringEjj) refers to strlen.o(.text) for strlen
    wstring.o(i._ZNK6String9substringEjj) refers to wstring.o(i._ZN6String4copyEPKcj) for String::copy(const char*, unsigned)
    wstring.o(i._ZNK6String9substringEjj) refers to wstring.o(i._ZN6StringaSEPKc) for String::operator =(const char*)
    wstring.o(i._ZNK6StringgeERKS_) refers to wstring.o(i._ZNK6String9compareToERKS_) for String::compareTo(const String&) const
    wstring.o(i._ZNK6StringgtERKS_) refers to wstring.o(i._ZNK6String9compareToERKS_) for String::compareTo(const String&) const
    wstring.o(i._ZNK6StringleERKS_) refers to wstring.o(i._ZNK6String9compareToERKS_) for String::compareTo(const String&) const
    wstring.o(i._ZNK6StringltERKS_) refers to wstring.o(i._ZNK6String9compareToERKS_) for String::compareTo(const String&) const
    wstring.o(i._ZplRK15StringSumHelperPK19__FlashStringHelper) refers to strlen.o(.text) for strlen
    wstring.o(i._ZplRK15StringSumHelperPK19__FlashStringHelper) refers to mallocr.o(i.realloc) for realloc
    wstring.o(i._ZplRK15StringSumHelperPK19__FlashStringHelper) refers to strcpy.o(.text) for strcpy
    wstring.o(i._ZplRK15StringSumHelperPK19__FlashStringHelper) refers to mallocr.o(i.__free$realloc) for free
    wstring.o(i._ZplRK15StringSumHelperPKc) refers to strlen.o(.text) for strlen
    wstring.o(i._ZplRK15StringSumHelperPKc) refers to wstring.o(i._ZN6String6concatEPKcj) for String::concat(const char*, unsigned)
    wstring.o(i._ZplRK15StringSumHelperPKc) refers to mallocr.o(i.__free$realloc) for free
    wstring.o(i._ZplRK15StringSumHelperRK6String) refers to wstring.o(i._ZN6String6concatEPKcj) for String::concat(const char*, unsigned)
    wstring.o(i._ZplRK15StringSumHelperRK6String) refers to mallocr.o(i.__free$realloc) for free
    wstring.o(i._ZplRK15StringSumHelperc) refers to wstring.o(i._ZN6String6concatEPKcj) for String::concat(const char*, unsigned)
    wstring.o(i._ZplRK15StringSumHelperc) refers to mallocr.o(i.__free$realloc) for free
    wstring.o(i._ZplRK15StringSumHelperd) refers to dtostrf.o(i.dtostrf) for dtostrf
    wstring.o(i._ZplRK15StringSumHelperd) refers to strlen.o(.text) for strlen
    wstring.o(i._ZplRK15StringSumHelperd) refers to wstring.o(i._ZN6String6concatEPKcj) for String::concat(const char*, unsigned)
    wstring.o(i._ZplRK15StringSumHelperd) refers to mallocr.o(i.__free$realloc) for free
    wstring.o(i._ZplRK15StringSumHelperf) refers to f2d.o(.text) for __aeabi_f2d
    wstring.o(i._ZplRK15StringSumHelperf) refers to dtostrf.o(i.dtostrf) for dtostrf
    wstring.o(i._ZplRK15StringSumHelperf) refers to strlen.o(.text) for strlen
    wstring.o(i._ZplRK15StringSumHelperf) refers to wstring.o(i._ZN6String6concatEPKcj) for String::concat(const char*, unsigned)
    wstring.o(i._ZplRK15StringSumHelperf) refers to mallocr.o(i.__free$realloc) for free
    wstring.o(i._ZplRK15StringSumHelperh) refers to itoa.o(i.itoa) for itoa
    wstring.o(i._ZplRK15StringSumHelperh) refers to strlen.o(.text) for strlen
    wstring.o(i._ZplRK15StringSumHelperh) refers to wstring.o(i._ZN6String6concatEPKcj) for String::concat(const char*, unsigned)
    wstring.o(i._ZplRK15StringSumHelperh) refers to mallocr.o(i.__free$realloc) for free
    wstring.o(i._ZplRK15StringSumHelperi) refers to itoa.o(i.itoa) for itoa
    wstring.o(i._ZplRK15StringSumHelperi) refers to strlen.o(.text) for strlen
    wstring.o(i._ZplRK15StringSumHelperi) refers to wstring.o(i._ZN6String6concatEPKcj) for String::concat(const char*, unsigned)
    wstring.o(i._ZplRK15StringSumHelperi) refers to mallocr.o(i.__free$realloc) for free
    wstring.o(i._ZplRK15StringSumHelperj) refers to itoa.o(i.utoa) for utoa
    wstring.o(i._ZplRK15StringSumHelperj) refers to strlen.o(.text) for strlen
    wstring.o(i._ZplRK15StringSumHelperj) refers to wstring.o(i._ZN6String6concatEPKcj) for String::concat(const char*, unsigned)
    wstring.o(i._ZplRK15StringSumHelperj) refers to mallocr.o(i.__free$realloc) for free
    wstring.o(i._ZplRK15StringSumHelperl) refers to itoa.o(i.ltoa) for ltoa
    wstring.o(i._ZplRK15StringSumHelperl) refers to strlen.o(.text) for strlen
    wstring.o(i._ZplRK15StringSumHelperl) refers to wstring.o(i._ZN6String6concatEPKcj) for String::concat(const char*, unsigned)
    wstring.o(i._ZplRK15StringSumHelperl) refers to mallocr.o(i.__free$realloc) for free
    wstring.o(i._ZplRK15StringSumHelperm) refers to itoa.o(i.ultoa) for ultoa
    wstring.o(i._ZplRK15StringSumHelperm) refers to strlen.o(.text) for strlen
    wstring.o(i._ZplRK15StringSumHelperm) refers to wstring.o(i._ZN6String6concatEPKcj) for String::concat(const char*, unsigned)
    wstring.o(i._ZplRK15StringSumHelperm) refers to mallocr.o(i.__free$realloc) for free
    wstring.o(.ARM.exidx) refers to wstring.o(i._ZN6String10invalidateEv) for i._ZN6String10invalidateEv
    wstring.o(.ARM.exidx) refers to wstring.o(i._ZN6String12changeBufferEj) for i._ZN6String12changeBufferEj
    wstring.o(.ARM.exidx) refers to wstring.o(i._ZN6String7reserveEj) for i._ZN6String7reserveEj
    wstring.o(.ARM.exidx) refers to wstring.o(i._ZN6String6concatEPKcj) for i._ZN6String6concatEPKcj
    wstring.o(.ARM.exidx) refers to wstring.o(i._ZplRK15StringSumHelperRK6String) for i._ZplRK15StringSumHelperRK6String
    wstring.o(.ARM.exidx) refers to wstring.o(i._ZplRK15StringSumHelperPKc) for i._ZplRK15StringSumHelperPKc
    wstring.o(.ARM.exidx) refers to wstring.o(i._ZN6String6concatEc) for i._ZN6String6concatEc
    wstring.o(.ARM.exidx) refers to wstring.o(i._ZplRK15StringSumHelperc) for i._ZplRK15StringSumHelperc
    wstring.o(.ARM.exidx) refers to wstring.o(i._ZN6String6concatEh) for i._ZN6String6concatEh
    wstring.o(.ARM.exidx) refers to wstring.o(i._ZplRK15StringSumHelperh) for i._ZplRK15StringSumHelperh
    wstring.o(.ARM.exidx) refers to wstring.o(i._ZN6String6concatEi) for i._ZN6String6concatEi
    wstring.o(.ARM.exidx) refers to wstring.o(i._ZplRK15StringSumHelperi) for i._ZplRK15StringSumHelperi
    wstring.o(.ARM.exidx) refers to wstring.o(i._ZN6String6concatEj) for i._ZN6String6concatEj
    wstring.o(.ARM.exidx) refers to wstring.o(i._ZplRK15StringSumHelperj) for i._ZplRK15StringSumHelperj
    wstring.o(.ARM.exidx) refers to wstring.o(i._ZN6String6concatEl) for i._ZN6String6concatEl
    wstring.o(.ARM.exidx) refers to wstring.o(i._ZplRK15StringSumHelperl) for i._ZplRK15StringSumHelperl
    wstring.o(.ARM.exidx) refers to wstring.o(i._ZN6String6concatEm) for i._ZN6String6concatEm
    wstring.o(.ARM.exidx) refers to wstring.o(i._ZplRK15StringSumHelperm) for i._ZplRK15StringSumHelperm
    wstring.o(.ARM.exidx) refers to wstring.o(i._ZN6String6concatEf) for i._ZN6String6concatEf
    wstring.o(.ARM.exidx) refers to wstring.o(i._ZplRK15StringSumHelperf) for i._ZplRK15StringSumHelperf
    wstring.o(.ARM.exidx) refers to wstring.o(i._ZN6String6concatEd) for i._ZN6String6concatEd
    wstring.o(.ARM.exidx) refers to wstring.o(i._ZplRK15StringSumHelperd) for i._ZplRK15StringSumHelperd
    wstring.o(.ARM.exidx) refers to wstring.o(i._ZN6String6concatEPK19__FlashStringHelper) for i._ZN6String6concatEPK19__FlashStringHelper
    wstring.o(.ARM.exidx) refers to wstring.o(i._ZplRK15StringSumHelperPK19__FlashStringHelper) for i._ZplRK15StringSumHelperPK19__FlashStringHelper
    wstring.o(.ARM.exidx) refers to wstring.o(i._ZN6String4copyEPKcj) for i._ZN6String4copyEPKcj
    wstring.o(.ARM.exidx) refers to wstring.o(i._ZN6StringC1EPKc) for i._ZN6StringC1EPKc
    wstring.o(.ARM.exidx) refers to wstring.o(i._ZN6StringaSERKS_) for i._ZN6StringaSERKS_
    wstring.o(.ARM.exidx) refers to wstring.o(i._ZN6StringC1ERKS_) for i._ZN6StringC1ERKS_
    wstring.o(.ARM.exidx) refers to wstring.o(i._ZN6String4copyEPK19__FlashStringHelperj) for i._ZN6String4copyEPK19__FlashStringHelperj
    wstring.o(.ARM.exidx) refers to wstring.o(i._ZN6StringaSEPK19__FlashStringHelper) for i._ZN6StringaSEPK19__FlashStringHelper
    wstring.o(.ARM.exidx) refers to wstring.o(i._ZN6StringC1EPK19__FlashStringHelper) for i._ZN6StringC1EPK19__FlashStringHelper
    wstring.o(.ARM.exidx) refers to wstring.o(i._ZN6StringaSEPKc) for i._ZN6StringaSEPKc
    wstring.o(.ARM.exidx) refers to wstring.o(i._ZN6StringC1Ec) for i._ZN6StringC1Ec
    wstring.o(.ARM.exidx) refers to wstring.o(i._ZN6StringC1Ehh) for i._ZN6StringC1Ehh
    wstring.o(.ARM.exidx) refers to wstring.o(i._ZN6StringC1Eih) for i._ZN6StringC1Eih
    wstring.o(.ARM.exidx) refers to wstring.o(i._ZN6StringC1Ejh) for i._ZN6StringC1Ejh
    wstring.o(.ARM.exidx) refers to wstring.o(i._ZN6StringC1Elh) for i._ZN6StringC1Elh
    wstring.o(.ARM.exidx) refers to wstring.o(i._ZN6StringC1Emh) for i._ZN6StringC1Emh
    wstring.o(.ARM.exidx) refers to wstring.o(i._ZN6StringC1Efh) for i._ZN6StringC1Efh
    wstring.o(.ARM.exidx) refers to wstring.o(i._ZN6StringC1Edh) for i._ZN6StringC1Edh
    wstring.o(.ARM.exidx) refers to wstring.o(i._ZN6StringD1Ev) for i._ZN6StringD1Ev
    wstring.o(.ARM.exidx) refers to wstring.o(i._ZN6String6concatERKS_) for i._ZN6String6concatERKS_
    wstring.o(.ARM.exidx) refers to wstring.o(i._ZN6String6concatEPKc) for i._ZN6String6concatEPKc
    wstring.o(.ARM.exidx) refers to wstring.o(i._ZNK6String9compareToERKS_) for i._ZNK6String9compareToERKS_
    wstring.o(.ARM.exidx) refers to wstring.o(i._ZNK6String6equalsERKS_) for i._ZNK6String6equalsERKS_
    wstring.o(.ARM.exidx) refers to wstring.o(i._ZNK6String6equalsEPKc) for i._ZNK6String6equalsEPKc
    wstring.o(.ARM.exidx) refers to wstring.o(i._ZNK6StringltERKS_) for i._ZNK6StringltERKS_
    wstring.o(.ARM.exidx) refers to wstring.o(i._ZNK6StringgtERKS_) for i._ZNK6StringgtERKS_
    wstring.o(.ARM.exidx) refers to wstring.o(i._ZNK6StringleERKS_) for i._ZNK6StringleERKS_
    wstring.o(.ARM.exidx) refers to wstring.o(i._ZNK6StringgeERKS_) for i._ZNK6StringgeERKS_
    wstring.o(.ARM.exidx) refers to wstring.o(i._ZNK6String16equalsIgnoreCaseERKS_) for i._ZNK6String16equalsIgnoreCaseERKS_
    wstring.o(.ARM.exidx) refers to wstring.o(i._ZNK6String10startsWithERKS_j) for i._ZNK6String10startsWithERKS_j
    wstring.o(.ARM.exidx) refers to wstring.o(i._ZNK6String10startsWithERKS_) for i._ZNK6String10startsWithERKS_
    wstring.o(.ARM.exidx) refers to wstring.o(i._ZNK6String8endsWithERKS_) for i._ZNK6String8endsWithERKS_
    wstring.o(.ARM.exidx) refers to wstring.o(i._ZNK6StringixEj) for i._ZNK6StringixEj
    wstring.o(.ARM.exidx) refers to wstring.o(i._ZNK6String6charAtEj) for i._ZNK6String6charAtEj
    wstring.o(.ARM.exidx) refers to wstring.o(i._ZN6String9setCharAtEjc) for i._ZN6String9setCharAtEjc
    wstring.o(.ARM.exidx) refers to wstring.o(i._ZN6StringixEj) for i._ZN6StringixEj
    wstring.o(.ARM.exidx) refers to wstring.o(i._ZNK6String8getBytesEPhjj) for i._ZNK6String8getBytesEPhjj
    wstring.o(.ARM.exidx) refers to wstring.o(i._ZNK6String7indexOfEcj) for i._ZNK6String7indexOfEcj
    wstring.o(.ARM.exidx) refers to wstring.o(i._ZNK6String7indexOfEc) for i._ZNK6String7indexOfEc
    wstring.o(.ARM.exidx) refers to wstring.o(i._ZNK6String7indexOfERKS_j) for i._ZNK6String7indexOfERKS_j
    wstring.o(.ARM.exidx) refers to wstring.o(i._ZNK6String7indexOfERKS_) for i._ZNK6String7indexOfERKS_
    wstring.o(.ARM.exidx) refers to wstring.o(i._ZNK6String11lastIndexOfEcj) for i._ZNK6String11lastIndexOfEcj
    wstring.o(.ARM.exidx) refers to wstring.o(i._ZNK6String11lastIndexOfEc) for i._ZNK6String11lastIndexOfEc
    wstring.o(.ARM.exidx) refers to wstring.o(i._ZNK6String11lastIndexOfERKS_j) for i._ZNK6String11lastIndexOfERKS_j
    wstring.o(.ARM.exidx) refers to wstring.o(i._ZNK6String11lastIndexOfERKS_) for i._ZNK6String11lastIndexOfERKS_
    wstring.o(.ARM.exidx) refers to wstring.o(i._ZNK6String9substringEjj) for i._ZNK6String9substringEjj
    wstring.o(.ARM.exidx) refers to wstring.o(i._ZN6String7replaceEcc) for i._ZN6String7replaceEcc
    wstring.o(.ARM.exidx) refers to wstring.o(i._ZN6String7replaceERKS_S1_) for i._ZN6String7replaceERKS_S1_
    wstring.o(.ARM.exidx) refers to wstring.o(i._ZN6String6removeEjj) for i._ZN6String6removeEjj
    wstring.o(.ARM.exidx) refers to wstring.o(i._ZN6String6removeEj) for i._ZN6String6removeEj
    wstring.o(.ARM.exidx) refers to wstring.o(i._ZN6String11toLowerCaseEv) for i._ZN6String11toLowerCaseEv
    wstring.o(.ARM.exidx) refers to wstring.o(i._ZN6String11toUpperCaseEv) for i._ZN6String11toUpperCaseEv
    wstring.o(.ARM.exidx) refers to wstring.o(i._ZN6String4trimEv) for i._ZN6String4trimEv
    wstring.o(.ARM.exidx) refers to wstring.o(i._ZNK6String5toIntEv) for i._ZNK6String5toIntEv
    wstring.o(.ARM.exidx) refers to wstring.o(i._ZNK6String7toFloatEv) for i._ZNK6String7toFloatEv
    wstring.o(.ARM.exidx) refers to wstring.o(i._ZN6String7sprintfEPKcz) for i._ZN6String7sprintfEPKcz
    wmath.o(i._Z10randomSeedm) refers to rand.o(.text) for srand
    wmath.o(i._Z6randoml) refers to rand.o(.text) for rand
    wmath.o(i._Z6randomll) refers to rand.o(.text) for rand
    wmath.o(.ARM.exidx) refers to wmath.o(i._Z10randomSeedm) for i._Z10randomSeedm
    wmath.o(.ARM.exidx) refers to wmath.o(i._Z6randoml) for i._Z6randoml
    wmath.o(.ARM.exidx) refers to wmath.o(i._Z6randomll) for i._Z6randomll
    wmath.o(.ARM.exidx) refers to wmath.o(i._Z8makeWordj) for i._Z8makeWordj
    wmath.o(.ARM.exidx) refers to wmath.o(i._Z8makeWordhh) for i._Z8makeWordhh
    hardwareserial.o(i.USART1_IRQHandler) refers to stm32f4xx_usart.o(i.USART_GetITStatus) for USART_GetITStatus
    hardwareserial.o(i.USART1_IRQHandler) refers to stm32f4xx_usart.o(i.USART_ReceiveData) for USART_ReceiveData
    hardwareserial.o(i.USART1_IRQHandler) refers to stm32f4xx_usart.o(i.USART_ClearITPendingBit) for USART_ClearITPendingBit
    hardwareserial.o(i.USART1_IRQHandler) refers to hardwareserial.o(.bss) for .bss
    hardwareserial.o(i.USART2_IRQHandler) refers to stm32f4xx_usart.o(i.USART_GetITStatus) for USART_GetITStatus
    hardwareserial.o(i.USART2_IRQHandler) refers to stm32f4xx_usart.o(i.USART_ReceiveData) for USART_ReceiveData
    hardwareserial.o(i.USART2_IRQHandler) refers to stm32f4xx_usart.o(i.USART_ClearITPendingBit) for USART_ClearITPendingBit
    hardwareserial.o(i.USART2_IRQHandler) refers to hardwareserial.o(.bss) for .bss
    hardwareserial.o(i.USART3_IRQHandler) refers to stm32f4xx_usart.o(i.USART_GetITStatus) for USART_GetITStatus
    hardwareserial.o(i.USART3_IRQHandler) refers to stm32f4xx_usart.o(i.USART_ReceiveData) for USART_ReceiveData
    hardwareserial.o(i.USART3_IRQHandler) refers to stm32f4xx_usart.o(i.USART_ClearITPendingBit) for USART_ClearITPendingBit
    hardwareserial.o(i.USART3_IRQHandler) refers to hardwareserial.o(.bss) for .bss
    hardwareserial.o(i._ZN14HardwareSerial10IRQHandlerEv) refers to stm32f4xx_usart.o(i.USART_GetITStatus) for USART_GetITStatus
    hardwareserial.o(i._ZN14HardwareSerial10IRQHandlerEv) refers to stm32f4xx_usart.o(i.USART_ReceiveData) for USART_ReceiveData
    hardwareserial.o(i._ZN14HardwareSerial10IRQHandlerEv) refers to stm32f4xx_usart.o(i.USART_ClearITPendingBit) for USART_ClearITPendingBit
    hardwareserial.o(i._ZN14HardwareSerial3endEv) refers to stm32f4xx_usart.o(i.USART_Cmd) for USART_Cmd
    hardwareserial.o(i._ZN14HardwareSerial5beginEj) refers to hardwareserial.o(i._ZN14HardwareSerial5beginEj13SERIAL_Confighh) for HardwareSerial::begin(unsigned, SERIAL_Config, unsigned char, unsigned char)
    hardwareserial.o(i._ZN14HardwareSerial5beginEj13SERIAL_Config) refers to hardwareserial.o(i._ZN14HardwareSerial5beginEj13SERIAL_Confighh) for HardwareSerial::begin(unsigned, SERIAL_Config, unsigned char, unsigned char)
    hardwareserial.o(i._ZN14HardwareSerial5beginEj13SERIAL_Confighh) refers to stm32f4xx_rcc.o(i.RCC_APB1PeriphClockCmd) for RCC_APB1PeriphClockCmd
    hardwareserial.o(i._ZN14HardwareSerial5beginEj13SERIAL_Confighh) refers to stm32f4xx_rcc.o(i.RCC_AHB1PeriphClockCmd) for RCC_AHB1PeriphClockCmd
    hardwareserial.o(i._ZN14HardwareSerial5beginEj13SERIAL_Confighh) refers to gpio.o(i.Get_GPIO_PinSource) for Get_GPIO_PinSource
    hardwareserial.o(i._ZN14HardwareSerial5beginEj13SERIAL_Confighh) refers to stm32f4xx_gpio.o(i.GPIO_PinAFConfig) for GPIO_PinAFConfig
    hardwareserial.o(i._ZN14HardwareSerial5beginEj13SERIAL_Confighh) refers to stm32f4xx_gpio.o(i.GPIO_Init) for GPIO_Init
    hardwareserial.o(i._ZN14HardwareSerial5beginEj13SERIAL_Confighh) refers to misc.o(i.NVIC_Init) for NVIC_Init
    hardwareserial.o(i._ZN14HardwareSerial5beginEj13SERIAL_Confighh) refers to stm32f4xx_usart.o(i.USART_Init) for USART_Init
    hardwareserial.o(i._ZN14HardwareSerial5beginEj13SERIAL_Confighh) refers to stm32f4xx_usart.o(i.USART_ITConfig) for USART_ITConfig
    hardwareserial.o(i._ZN14HardwareSerial5beginEj13SERIAL_Confighh) refers to stm32f4xx_usart.o(i.USART_Cmd) for USART_Cmd
    hardwareserial.o(i._ZN14HardwareSerial5beginEj13SERIAL_Confighh) refers to stm32f4xx_rcc.o(i.RCC_APB2PeriphClockCmd) for RCC_APB2PeriphClockCmd
    hardwareserial.o(i._ZN14HardwareSerial5writeEh) refers to stm32f4xx_usart.o(i.USART_SendData) for USART_SendData
    hardwareserial.o(i._ZN14HardwareSerialC1EP13USART_TypeDef) refers to hardwareserial.o(.constdata__ZTV14HardwareSerial) for vtable for HardwareSerial
    hardwareserial.o(i.__sti___18_HardwareSerial_cpp_cfa1b6a6) refers to hardwareserial.o(.bss) for .bss
    hardwareserial.o(i.__sti___18_HardwareSerial_cpp_cfa1b6a6) refers to hardwareserial.o(.constdata__ZTV14HardwareSerial) for vtable for HardwareSerial
    hardwareserial.o(.ARM.exidx) refers to hardwareserial.o(i._ZN14HardwareSerial10IRQHandlerEv) for i._ZN14HardwareSerial10IRQHandlerEv
    hardwareserial.o(.ARM.exidx) refers to hardwareserial.o(i.USART1_IRQHandler) for i.USART1_IRQHandler
    hardwareserial.o(.ARM.exidx) refers to hardwareserial.o(i.USART2_IRQHandler) for i.USART2_IRQHandler
    hardwareserial.o(.ARM.exidx) refers to hardwareserial.o(i.USART3_IRQHandler) for i.USART3_IRQHandler
    hardwareserial.o(.ARM.exidx) refers to hardwareserial.o(i._ZN14HardwareSerialC1EP13USART_TypeDef) for i._ZN14HardwareSerialC1EP13USART_TypeDef
    hardwareserial.o(.ARM.exidx) refers to hardwareserial.o(i._ZN14HardwareSerial5beginEj13SERIAL_Confighh) for i._ZN14HardwareSerial5beginEj13SERIAL_Confighh
    hardwareserial.o(.ARM.exidx) refers to hardwareserial.o(i._ZN14HardwareSerial5beginEj13SERIAL_Config) for i._ZN14HardwareSerial5beginEj13SERIAL_Config
    hardwareserial.o(.ARM.exidx) refers to hardwareserial.o(i._ZN14HardwareSerial5beginEj) for i._ZN14HardwareSerial5beginEj
    hardwareserial.o(.ARM.exidx) refers to hardwareserial.o(i._ZN14HardwareSerial3endEv) for i._ZN14HardwareSerial3endEv
    hardwareserial.o(.ARM.exidx) refers to hardwareserial.o(i._ZN14HardwareSerial15attachInterruptEPFvvE) for i._ZN14HardwareSerial15attachInterruptEPFvvE
    hardwareserial.o(.ARM.exidx) refers to hardwareserial.o(i._ZN14HardwareSerial9availableEv) for i._ZN14HardwareSerial9availableEv
    hardwareserial.o(.ARM.exidx) refers to hardwareserial.o(i._ZN14HardwareSerial4peekEv) for i._ZN14HardwareSerial4peekEv
    hardwareserial.o(.ARM.exidx) refers to hardwareserial.o(i._ZN14HardwareSerial4readEv) for i._ZN14HardwareSerial4readEv
    hardwareserial.o(.ARM.exidx) refers to hardwareserial.o(i._ZN14HardwareSerial5flushEv) for i._ZN14HardwareSerial5flushEv
    hardwareserial.o(.ARM.exidx) refers to hardwareserial.o(i._ZN14HardwareSerial5writeEh) for i._ZN14HardwareSerial5writeEh
    hardwareserial.o(.ARM.exidx) refers to hardwareserial.o(i.__sti___18_HardwareSerial_cpp_cfa1b6a6) for i.__sti___18_HardwareSerial_cpp_cfa1b6a6
    hardwareserial.o(.init_array) refers to hardwareserial.o(i.__sti___18_HardwareSerial_cpp_cfa1b6a6) for __sti___18_HardwareSerial_cpp_cfa1b6a6
    hardwareserial.o(.init_array) refers to cpp_init.o(.text) for __cpp_initialize__aeabi_
    wirebase.o(.ARM.exidx) refers to wirebase.o(i._ZN8WireBase5beginEh) for i._ZN8WireBase5beginEh
    wirebase.o(.ARM.exidx) refers to wirebase.o(i._ZN8WireBase8setClockEj) for i._ZN8WireBase8setClockEj
    wirebase.o(.ARM.exidx) refers to wirebase.o(i._ZN8WireBase17beginTransmissionEh) for i._ZN8WireBase17beginTransmissionEh
    wirebase.o(.ARM.exidx) refers to wirebase.o(i._ZN8WireBase17beginTransmissionEi) for i._ZN8WireBase17beginTransmissionEi
    wirebase.o(.ARM.exidx) refers to wirebase.o(i._ZN8WireBase15endTransmissionEv) for i._ZN8WireBase15endTransmissionEv
    wirebase.o(.ARM.exidx) refers to wirebase.o(i._ZN8WireBase11requestFromEhi) for i._ZN8WireBase11requestFromEhi
    wirebase.o(.ARM.exidx) refers to wirebase.o(i._ZN8WireBase11requestFromEii) for i._ZN8WireBase11requestFromEii
    wirebase.o(.ARM.exidx) refers to wirebase.o(i._ZN8WireBase5writeEh) for i._ZN8WireBase5writeEh
    wirebase.o(.ARM.exidx) refers to wirebase.o(i._ZN8WireBase5writeEPhi) for i._ZN8WireBase5writeEPhi
    wirebase.o(.ARM.exidx) refers to wirebase.o(i._ZN8WireBase5writeEi) for i._ZN8WireBase5writeEi
    wirebase.o(.ARM.exidx) refers to wirebase.o(i._ZN8WireBase5writeEPii) for i._ZN8WireBase5writeEPii
    wirebase.o(.ARM.exidx) refers to wirebase.o(i._ZN8WireBase5writeEPc) for i._ZN8WireBase5writeEPc
    wirebase.o(.ARM.exidx) refers to wirebase.o(i._ZN8WireBase9availableEv) for i._ZN8WireBase9availableEv
    wirebase.o(.ARM.exidx) refers to wirebase.o(i._ZN8WireBase4readEv) for i._ZN8WireBase4readEv
    wire.o(i._ZN7TwoWire11i2c_get_ackEv) refers to delay.o(i.delay_us) for delay_us
    wire.o(i._ZN7TwoWire11i2c_get_ackEv) refers to arduino.o(i.digitalWrite) for digitalWrite
    wire.o(i._ZN7TwoWire11i2c_get_ackEv) refers to arduino.o(i.digitalRead) for digitalRead
    wire.o(i._ZN7TwoWire12i2c_send_ackEv) refers to delay.o(i.delay_us) for delay_us
    wire.o(i._ZN7TwoWire12i2c_send_ackEv) refers to arduino.o(i.digitalWrite) for digitalWrite
    wire.o(i._ZN7TwoWire12i2c_send_ackEv) refers to arduino.o(i.digitalRead) for digitalRead
    wire.o(i._ZN7TwoWire12i2c_shift_inEv) refers to delay.o(i.delay_us) for delay_us
    wire.o(i._ZN7TwoWire12i2c_shift_inEv) refers to arduino.o(i.digitalWrite) for digitalWrite
    wire.o(i._ZN7TwoWire12i2c_shift_inEv) refers to arduino.o(i.digitalRead) for digitalRead
    wire.o(i._ZN7TwoWire13i2c_send_nackEv) refers to delay.o(i.delay_us) for delay_us
    wire.o(i._ZN7TwoWire13i2c_send_nackEv) refers to arduino.o(i.digitalWrite) for digitalWrite
    wire.o(i._ZN7TwoWire13i2c_send_nackEv) refers to arduino.o(i.digitalRead) for digitalRead
    wire.o(i._ZN7TwoWire13i2c_shift_outEh) refers to delay.o(i.delay_us) for delay_us
    wire.o(i._ZN7TwoWire13i2c_shift_outEh) refers to arduino.o(i.digitalWrite) for digitalWrite
    wire.o(i._ZN7TwoWire13i2c_shift_outEh) refers to arduino.o(i.digitalRead) for digitalRead
    wire.o(i._ZN7TwoWire5beginEh) refers to arduino.o(i.pinMode) for pinMode
    wire.o(i._ZN7TwoWire5beginEh) refers to delay.o(i.delay_us) for delay_us
    wire.o(i._ZN7TwoWire5beginEh) refers to arduino.o(i.digitalWrite) for digitalWrite
    wire.o(i._ZN7TwoWire5beginEh) refers to arduino.o(i.digitalRead) for digitalRead
    wire.o(i._ZN7TwoWire7processEv) refers to delay.o(i.delay_us) for delay_us
    wire.o(i._ZN7TwoWire7processEv) refers to arduino.o(i.digitalWrite) for digitalWrite
    wire.o(i._ZN7TwoWire7processEv) refers to arduino.o(i.digitalRead) for digitalRead
    wire.o(i._ZN7TwoWire7processEv) refers to wire.o(i._ZN7TwoWire11i2c_get_ackEv) for TwoWire::i2c_get_ack()
    wire.o(i._ZN7TwoWire7set_sclEb) refers to delay.o(i.delay_us) for delay_us
    wire.o(i._ZN7TwoWire7set_sclEb) refers to arduino.o(i.digitalWrite) for digitalWrite
    wire.o(i._ZN7TwoWire7set_sclEb) refers to arduino.o(i.digitalRead) for digitalRead
    wire.o(i._ZN7TwoWire7set_sdaEb) refers to delay.o(i.delay_us) for delay_us
    wire.o(i._ZN7TwoWire7set_sdaEb) refers to arduino.o(i.digitalWrite) for digitalWrite
    wire.o(i._ZN7TwoWire8i2c_stopEv) refers to delay.o(i.delay_us) for delay_us
    wire.o(i._ZN7TwoWire8i2c_stopEv) refers to arduino.o(i.digitalWrite) for digitalWrite
    wire.o(i._ZN7TwoWire8i2c_stopEv) refers to arduino.o(i.digitalRead) for digitalRead
    wire.o(i._ZN7TwoWire9i2c_startEv) refers to delay.o(i.delay_us) for delay_us
    wire.o(i._ZN7TwoWire9i2c_startEv) refers to arduino.o(i.digitalWrite) for digitalWrite
    wire.o(i._ZN7TwoWireC1Ehhh) refers to wire.o(.constdata__ZTV7TwoWire) for vtable for TwoWire
    wire.o(i._ZN7TwoWireD1Ev) refers to wire.o(.constdata__ZTV7TwoWire) for vtable for TwoWire
    wire.o(i.__sti___8_Wire_cpp_928ee5ff) refers to aeabi_atexit.o(.text) for __aeabi_atexit
    wire.o(i.__sti___8_Wire_cpp_928ee5ff) refers to wire.o(.bss) for .bss
    wire.o(i.__sti___8_Wire_cpp_928ee5ff) refers to wire.o(.constdata__ZTV7TwoWire) for vtable for TwoWire
    wire.o(i.__sti___8_Wire_cpp_928ee5ff) refers to wire.o(i._ZN7TwoWireD1Ev) for TwoWire::~TwoWire()
    wire.o(.ARM.exidx) refers to wire.o(i._ZN7TwoWire7set_sclEb) for i._ZN7TwoWire7set_sclEb
    wire.o(.ARM.exidx) refers to wire.o(i._ZN7TwoWire7set_sdaEb) for i._ZN7TwoWire7set_sdaEb
    wire.o(.ARM.exidx) refers to wire.o(i._ZN7TwoWire9i2c_startEv) for i._ZN7TwoWire9i2c_startEv
    wire.o(.ARM.exidx) refers to wire.o(i._ZN7TwoWire8i2c_stopEv) for i._ZN7TwoWire8i2c_stopEv
    wire.o(.ARM.exidx) refers to wire.o(i._ZN7TwoWire11i2c_get_ackEv) for i._ZN7TwoWire11i2c_get_ackEv
    wire.o(.ARM.exidx) refers to wire.o(i._ZN7TwoWire12i2c_send_ackEv) for i._ZN7TwoWire12i2c_send_ackEv
    wire.o(.ARM.exidx) refers to wire.o(i._ZN7TwoWire13i2c_send_nackEv) for i._ZN7TwoWire13i2c_send_nackEv
    wire.o(.ARM.exidx) refers to wire.o(i._ZN7TwoWire12i2c_shift_inEv) for i._ZN7TwoWire12i2c_shift_inEv
    wire.o(.ARM.exidx) refers to wire.o(i._ZN7TwoWire13i2c_shift_outEh) for i._ZN7TwoWire13i2c_shift_outEh
    wire.o(.ARM.exidx) refers to wire.o(i._ZN7TwoWire7processEv) for i._ZN7TwoWire7processEv
    wire.o(.ARM.exidx) refers to wire.o(i._ZN7TwoWireC1Ehhh) for i._ZN7TwoWireC1Ehhh
    wire.o(.ARM.exidx) refers to wire.o(i._ZN7TwoWire5beginEh) for i._ZN7TwoWire5beginEh
    wire.o(.ARM.exidx) refers to wire.o(i._ZN7TwoWireD1Ev) for i._ZN7TwoWireD1Ev
    wire.o(.ARM.exidx) refers to wire.o(i.__sti___8_Wire_cpp_928ee5ff) for i.__sti___8_Wire_cpp_928ee5ff
    wire.o(.init_array) refers to wire.o(i.__sti___8_Wire_cpp_928ee5ff) for __sti___8_Wire_cpp_928ee5ff
    wire.o(.init_array) refers to cpp_init.o(.text) for __cpp_initialize__aeabi_
    spi.o(i._ZN8SPIClass10beginSlaveEv) refers to spi.o(i._ZN8SPIClass5beginEv) for SPIClass::begin()
    spi.o(i._ZN8SPIClass10beginSlaveEv) refers to stm32f4xx_spi.o(i.SPI_Cmd) for SPI_Cmd
    spi.o(i._ZN8SPIClass10beginSlaveEv) refers to stm32f4xx_spi.o(i.SPI_Init) for SPI_Init
    spi.o(i._ZN8SPIClass11setBitOrderEt) refers to stm32f4xx_spi.o(i.SPI_Init) for SPI_Init
    spi.o(i._ZN8SPIClass11setBitOrderEt) refers to stm32f4xx_spi.o(i.SPI_Cmd) for SPI_Cmd
    spi.o(i._ZN8SPIClass11setDataModeEh) refers to stm32f4xx_spi.o(i.SPI_Cmd) for SPI_Cmd
    spi.o(i._ZN8SPIClass11setDataModeEh) refers to stm32f4xx_spi.o(i.SPI_Init) for SPI_Init
    spi.o(i._ZN8SPIClass11setDataSizeEt) refers to stm32f4xx_spi.o(i.SPI_Init) for SPI_Init
    spi.o(i._ZN8SPIClass11setDataSizeEt) refers to stm32f4xx_spi.o(i.SPI_Cmd) for SPI_Cmd
    spi.o(i._ZN8SPIClass12SPI_SettingsEP11SPI_TypeDeftttttt) refers to stm32f4xx_spi.o(i.SPI_Cmd) for SPI_Cmd
    spi.o(i._ZN8SPIClass12SPI_SettingsEP11SPI_TypeDeftttttt) refers to stm32f4xx_spi.o(i.SPI_Init) for SPI_Init
    spi.o(i._ZN8SPIClass14endTransactionEv) refers to stm32f4xx_spi.o(i.SPI_Cmd) for SPI_Cmd
    spi.o(i._ZN8SPIClass15setClockDividerEj) refers to spi.o(i._ZN8SPIClass8setClockEj) for SPIClass::setClock(unsigned)
    spi.o(i._ZN8SPIClass16beginTransactionE11SPISettings) refers to spi.o(i._ZN8SPIClass8setClockEj) for SPIClass::setClock(unsigned)
    spi.o(i._ZN8SPIClass16beginTransactionE11SPISettings) refers to stm32f4xx_spi.o(i.SPI_Init) for SPI_Init
    spi.o(i._ZN8SPIClass16beginTransactionE11SPISettings) refers to stm32f4xx_spi.o(i.SPI_Cmd) for SPI_Cmd
    spi.o(i._ZN8SPIClass21beginTransactionSlaveEv) refers to spi.o(i._ZN8SPIClass5beginEv) for SPIClass::begin()
    spi.o(i._ZN8SPIClass21beginTransactionSlaveEv) refers to stm32f4xx_spi.o(i.SPI_Cmd) for SPI_Cmd
    spi.o(i._ZN8SPIClass21beginTransactionSlaveEv) refers to stm32f4xx_spi.o(i.SPI_Init) for SPI_Init
    spi.o(i._ZN8SPIClass3endEv) refers to stm32f4xx_spi.o(i.SPI_Cmd) for SPI_Cmd
    spi.o(i._ZN8SPIClass5beginE11SPISettings) refers to spi.o(i._ZN8SPIClass5beginEv) for SPIClass::begin()
    spi.o(i._ZN8SPIClass5beginE11SPISettings) refers to spi.o(i._ZN8SPIClass8setClockEj) for SPIClass::setClock(unsigned)
    spi.o(i._ZN8SPIClass5beginE11SPISettings) refers to stm32f4xx_spi.o(i.SPI_Init) for SPI_Init
    spi.o(i._ZN8SPIClass5beginE11SPISettings) refers to stm32f4xx_spi.o(i.SPI_Cmd) for SPI_Cmd
    spi.o(i._ZN8SPIClass5beginEjtt) refers to spi.o(i._ZN8SPIClass5beginEv) for SPIClass::begin()
    spi.o(i._ZN8SPIClass5beginEjtt) refers to spi.o(i._ZN8SPIClass8setClockEj) for SPIClass::setClock(unsigned)
    spi.o(i._ZN8SPIClass5beginEjtt) refers to stm32f4xx_spi.o(i.SPI_Init) for SPI_Init
    spi.o(i._ZN8SPIClass5beginEjtt) refers to stm32f4xx_spi.o(i.SPI_Cmd) for SPI_Cmd
    spi.o(i._ZN8SPIClass5beginEv) refers to stm32f4xx_rcc.o(i.RCC_APB2PeriphClockCmd) for RCC_APB2PeriphClockCmd
    spi.o(i._ZN8SPIClass5beginEv) refers to arduino.o(i.pinMode) for pinMode
    spi.o(i._ZN8SPIClass5beginEv) refers to stm32f4xx_gpio.o(i.GPIO_PinAFConfig) for GPIO_PinAFConfig
    spi.o(i._ZN8SPIClass5beginEv) refers to stm32f4xx_rcc.o(i.RCC_APB2PeriphResetCmd) for RCC_APB2PeriphResetCmd
    spi.o(i._ZN8SPIClass5beginEv) refers to stm32f4xx_rcc.o(i.RCC_APB1PeriphClockCmd) for RCC_APB1PeriphClockCmd
    spi.o(i._ZN8SPIClass5beginEv) refers to stm32f4xx_rcc.o(i.RCC_APB1PeriphResetCmd) for RCC_APB1PeriphResetCmd
    spi.o(i._ZN8SPIClass5beginEv) refers to stm32f4xx_spi.o(i.SPI_Cmd) for SPI_Cmd
    spi.o(i._ZN8SPIClass5beginEv) refers to stm32f4xx_spi.o(i.SPI_Init) for SPI_Init
    spi.o(i._ZN8SPIClass5beginEv) refers to system_stm32f4xx.o(.data) for SystemCoreClock
    spi.o(i._ZN8SPIClass8setClockEj) refers to stm32f4xx_spi.o(i.SPI_Init) for SPI_Init
    spi.o(i._ZN8SPIClass8setClockEj) refers to stm32f4xx_spi.o(i.SPI_Cmd) for SPI_Cmd
    spi.o(i.__sti___7_SPI_cpp_ce5662b4) refers to spi.o(.bss) for .bss
    spi.o(.ARM.exidx) refers to spi.o(i._ZN8SPIClassC1EP11SPI_TypeDef) for i._ZN8SPIClassC1EP11SPI_TypeDef
    spi.o(.ARM.exidx) refers to spi.o(i._ZN8SPIClass12SPI_SettingsEP11SPI_TypeDeftttttt) for i._ZN8SPIClass12SPI_SettingsEP11SPI_TypeDeftttttt
    spi.o(.ARM.exidx) refers to spi.o(i._ZN8SPIClass5beginEv) for i._ZN8SPIClass5beginEv
    spi.o(.ARM.exidx) refers to spi.o(i._ZN8SPIClass11setDataModeEh) for i._ZN8SPIClass11setDataModeEh
    spi.o(.ARM.exidx) refers to spi.o(i._ZN8SPIClass11setBitOrderEt) for i._ZN8SPIClass11setBitOrderEt
    spi.o(.ARM.exidx) refers to spi.o(i._ZN8SPIClass8setClockEj) for i._ZN8SPIClass8setClockEj
    spi.o(.ARM.exidx) refers to spi.o(i._ZN8SPIClass5beginEjtt) for i._ZN8SPIClass5beginEjtt
    spi.o(.ARM.exidx) refers to spi.o(i._ZN8SPIClass5beginE11SPISettings) for i._ZN8SPIClass5beginE11SPISettings
    spi.o(.ARM.exidx) refers to spi.o(i._ZN8SPIClass10beginSlaveEv) for i._ZN8SPIClass10beginSlaveEv
    spi.o(.ARM.exidx) refers to spi.o(i._ZN8SPIClass21beginTransactionSlaveEv) for i._ZN8SPIClass21beginTransactionSlaveEv
    spi.o(.ARM.exidx) refers to spi.o(i._ZN8SPIClass11setDataSizeEt) for i._ZN8SPIClass11setDataSizeEt
    spi.o(.ARM.exidx) refers to spi.o(i._ZN8SPIClass16beginTransactionE11SPISettings) for i._ZN8SPIClass16beginTransactionE11SPISettings
    spi.o(.ARM.exidx) refers to spi.o(i._ZN8SPIClass14endTransactionEv) for i._ZN8SPIClass14endTransactionEv
    spi.o(.ARM.exidx) refers to spi.o(i._ZN8SPIClass3endEv) for i._ZN8SPIClass3endEv
    spi.o(.ARM.exidx) refers to spi.o(i._ZN8SPIClass15setClockDividerEj) for i._ZN8SPIClass15setClockDividerEj
    spi.o(.ARM.exidx) refers to spi.o(i._ZN8SPIClass4readEv) for i._ZN8SPIClass4readEv
    spi.o(.ARM.exidx) refers to spi.o(i._ZN8SPIClass4readEPhj) for i._ZN8SPIClass4readEPhj
    spi.o(.ARM.exidx) refers to spi.o(i._ZN8SPIClass5writeEt) for i._ZN8SPIClass5writeEt
    spi.o(.ARM.exidx) refers to spi.o(i._ZNK8SPIClass8transferEh) for i._ZNK8SPIClass8transferEh
    spi.o(.ARM.exidx) refers to spi.o(i._ZN8SPIClass5writeEPKhj) for i._ZN8SPIClass5writeEPKhj
    spi.o(.ARM.exidx) refers to spi.o(i._ZNK8SPIClass10transfer16Et) for i._ZNK8SPIClass10transfer16Et
    spi.o(.ARM.exidx) refers to spi.o(i._ZN8SPIClass4sendEPhj) for i._ZN8SPIClass4sendEPhj
    spi.o(.ARM.exidx) refers to spi.o(i._ZN8SPIClass4sendEh) for i._ZN8SPIClass4sendEh
    spi.o(.ARM.exidx) refers to spi.o(i._ZN8SPIClass4recvEv) for i._ZN8SPIClass4recvEv
    spi.o(.ARM.exidx) refers to spi.o(i.__sti___7_SPI_cpp_ce5662b4) for i.__sti___7_SPI_cpp_ce5662b4
    spi.o(.init_array) refers to spi.o(i.__sti___7_SPI_cpp_ce5662b4) for __sti___7_SPI_cpp_ce5662b4
    spi.o(.init_array) refers to cpp_init.o(.text) for __cpp_initialize__aeabi_
    tone.o(i._Z12toneSetTimerP11TIM_TypeDef) refers to tone.o(.data) for .data
    tone.o(i._Z16toneBlock_Volumnhjjj) refers to delay.o(i.millis) for millis
    tone.o(i._Z16toneBlock_Volumnhjjj) refers to delay.o(i.delay_us) for delay_us
    tone.o(i._Z16toneBlock_Volumnhjjj) refers to gpio.o(.constdata) for PIN_MAP
    tone.o(i._Z17tone_TimerHandlerv) refers to delay.o(i.millis) for millis
    tone.o(i._Z17tone_TimerHandlerv) refers to stm32f4xx_tim.o(i.TIM_Cmd) for TIM_Cmd
    tone.o(i._Z17tone_TimerHandlerv) refers to gpio.o(.constdata) for PIN_MAP
    tone.o(i._Z17tone_TimerHandlerv) refers to tone.o(.data) for .data
    tone.o(i._Z19toneBlock_Volumn_ushjjj) refers to delay.o(i.micros) for micros
    tone.o(i._Z19toneBlock_Volumn_ushjjj) refers to delay.o(i.delay_us) for delay_us
    tone.o(i._Z19toneBlock_Volumn_ushjjj) refers to gpio.o(.constdata) for PIN_MAP
    tone.o(i._Z4tonehj) refers to stm32f4xx_tim.o(i.TIM_Cmd) for TIM_Cmd
    tone.o(i._Z4tonehj) refers to dfltui.o(.text) for __aeabi_ui2d
    tone.o(i._Z4tonehj) refers to ddiv.o(.text) for __aeabi_ddiv
    tone.o(i._Z4tonehj) refers to dfixui.o(.text) for __aeabi_d2uiz
    tone.o(i._Z4tonehj) refers to timer.o(i.Timer_Init) for Timer_Init
    tone.o(i._Z4tonehj) refers to timer.o(i.TimerSet_InterruptTimeUpdate) for TimerSet_InterruptTimeUpdate
    tone.o(i._Z4tonehj) refers to tone.o(.data) for .data
    tone.o(i._Z4tonehj) refers to gpio.o(.constdata) for PIN_MAP
    tone.o(i._Z4tonehj) refers to tone.o(i._Z17tone_TimerHandlerv) for tone_TimerHandler()
    tone.o(i._Z4tonehjj) refers to tone.o(i._Z4tonehj) for tone(unsigned char, unsigned)
    tone.o(i._Z4tonehjj) refers to delay.o(i.millis) for millis
    tone.o(i._Z4tonehjj) refers to stm32f4xx_tim.o(i.TIM_Cmd) for TIM_Cmd
    tone.o(i._Z4tonehjj) refers to tone.o(.data) for .data
    tone.o(i._Z4tonehjj) refers to gpio.o(.constdata) for PIN_MAP
    tone.o(i._Z6noToneh) refers to stm32f4xx_tim.o(i.TIM_Cmd) for TIM_Cmd
    tone.o(i._Z6noToneh) refers to tone.o(.data) for .data
    tone.o(i._Z6noToneh) refers to gpio.o(.constdata) for PIN_MAP
    tone.o(i._Z9toneBlockhjj) refers to delay.o(i.millis) for millis
    tone.o(i._Z9toneBlockhjj) refers to delay.o(i.delay_us) for delay_us
    tone.o(i._Z9toneBlockhjj) refers to gpio.o(.constdata) for PIN_MAP
    tone.o(.ARM.exidx) refers to tone.o(i._Z6noToneh) for i._Z6noToneh
    tone.o(.ARM.exidx) refers to tone.o(i._Z17tone_TimerHandlerv) for i._Z17tone_TimerHandlerv
    tone.o(.ARM.exidx) refers to tone.o(i._Z12toneSetTimerP11TIM_TypeDef) for i._Z12toneSetTimerP11TIM_TypeDef
    tone.o(.ARM.exidx) refers to tone.o(i._Z4tonehj) for i._Z4tonehj
    tone.o(.ARM.exidx) refers to tone.o(i._Z4tonehjj) for i._Z4tonehjj
    tone.o(.ARM.exidx) refers to tone.o(i._Z9toneBlockhjj) for i._Z9toneBlockhjj
    tone.o(.ARM.exidx) refers to tone.o(i._Z16toneBlock_Volumnhjjj) for i._Z16toneBlock_Volumnhjjj
    tone.o(.ARM.exidx) refers to tone.o(i._Z19toneBlock_Volumn_ushjjj) for i._Z19toneBlock_Volumn_ushjjj
    adafruit_gfx.o(i._ZN10GFXcanvas110fillScreenEt) refers to memseta.o(.text) for __aeabi_memset
    adafruit_gfx.o(i._ZN10GFXcanvas1C1Ett) refers to mallocr.o(i.__malloc$realloc) for malloc
    adafruit_gfx.o(i._ZN10GFXcanvas1C1Ett) refers to memseta.o(.text) for __aeabi_memclr
    adafruit_gfx.o(i._ZN10GFXcanvas1C1Ett) refers to adafruit_gfx.o(.constdata__ZTV12Adafruit_GFX) for vtable for Adafruit_GFX
    adafruit_gfx.o(i._ZN10GFXcanvas1C1Ett) refers to adafruit_gfx.o(.constdata__ZTV10GFXcanvas1) for vtable for GFXcanvas1
    adafruit_gfx.o(i._ZN10GFXcanvas1D1Ev) refers to mallocr.o(i.__free$realloc) for free
    adafruit_gfx.o(i._ZN10GFXcanvas1D1Ev) refers to adafruit_gfx.o(.constdata__ZTV10GFXcanvas1) for vtable for GFXcanvas1
    adafruit_gfx.o(i._ZN10GFXcanvas810fillScreenEt) refers to memseta.o(.text) for __aeabi_memset
    adafruit_gfx.o(i._ZN10GFXcanvas814writeFastHLineEssst) refers to memseta.o(.text) for __aeabi_memset
    adafruit_gfx.o(i._ZN10GFXcanvas8C1Ett) refers to mallocr.o(i.__malloc$realloc) for malloc
    adafruit_gfx.o(i._ZN10GFXcanvas8C1Ett) refers to memseta.o(.text) for __aeabi_memclr
    adafruit_gfx.o(i._ZN10GFXcanvas8C1Ett) refers to adafruit_gfx.o(.constdata__ZTV12Adafruit_GFX) for vtable for Adafruit_GFX
    adafruit_gfx.o(i._ZN10GFXcanvas8C1Ett) refers to adafruit_gfx.o(.constdata__ZTV10GFXcanvas8) for vtable for GFXcanvas8
    adafruit_gfx.o(i._ZN10GFXcanvas8D1Ev) refers to mallocr.o(i.__free$realloc) for free
    adafruit_gfx.o(i._ZN10GFXcanvas8D1Ev) refers to adafruit_gfx.o(.constdata__ZTV10GFXcanvas8) for vtable for GFXcanvas8
    adafruit_gfx.o(i._ZN11GFXcanvas1610fillScreenEt) refers to memseta.o(.text) for __aeabi_memset
    adafruit_gfx.o(i._ZN11GFXcanvas16C1Ett) refers to mallocr.o(i.__malloc$realloc) for malloc
    adafruit_gfx.o(i._ZN11GFXcanvas16C1Ett) refers to memseta.o(.text) for __aeabi_memclr
    adafruit_gfx.o(i._ZN11GFXcanvas16C1Ett) refers to adafruit_gfx.o(.constdata__ZTV12Adafruit_GFX) for vtable for Adafruit_GFX
    adafruit_gfx.o(i._ZN11GFXcanvas16C1Ett) refers to adafruit_gfx.o(.constdata__ZTV11GFXcanvas16) for vtable for GFXcanvas16
    adafruit_gfx.o(i._ZN11GFXcanvas16D1Ev) refers to mallocr.o(i.__free$realloc) for free
    adafruit_gfx.o(i._ZN11GFXcanvas16D1Ev) refers to adafruit_gfx.o(.constdata__ZTV11GFXcanvas16) for vtable for GFXcanvas16
    adafruit_gfx.o(i._ZN12Adafruit_GFX10fillCircleEssst) refers to adafruit_gfx.o(i._ZN12Adafruit_GFX16fillCircleHelperEssshst) for Adafruit_GFX::fillCircleHelper(short, short, short, unsigned char, short, unsigned short)
    adafruit_gfx.o(i._ZN12Adafruit_GFX13drawRoundRectEssssst) refers to adafruit_gfx.o(i._ZN12Adafruit_GFX16drawCircleHelperEsssht) for Adafruit_GFX::drawCircleHelper(short, short, short, unsigned char, unsigned short)
    adafruit_gfx.o(i._ZN12Adafruit_GFX13fillRoundRectEssssst) refers to adafruit_gfx.o(i._ZN12Adafruit_GFX16fillCircleHelperEssshst) for Adafruit_GFX::fillCircleHelper(short, short, short, unsigned char, short, unsigned short)
    adafruit_gfx.o(i._ZN12Adafruit_GFX13getTextBoundsEPK19__FlashStringHelperssPsS3_PtS4_) refers to adafruit_gfx.o(i._ZN12Adafruit_GFX10charBoundsEcPsS0_S0_S0_S0_S0_) for Adafruit_GFX::charBounds(char, short*, short*, short*, short*, short*, short*)
    adafruit_gfx.o(i._ZN12Adafruit_GFX13getTextBoundsEPcssPsS1_PtS2_) refers to adafruit_gfx.o(i._ZN12Adafruit_GFX10charBoundsEcPsS0_S0_S0_S0_S0_) for Adafruit_GFX::charBounds(char, short*, short*, short*, short*, short*, short*)
    adafruit_gfx.o(i._ZN12Adafruit_GFX5writeEh) refers to adafruit_gfx.o(i._ZN12Adafruit_GFX8drawCharEsshtth) for Adafruit_GFX::drawChar(short, short, unsigned char, unsigned short, unsigned short, unsigned char)
    adafruit_gfx.o(i._ZN12Adafruit_GFX8drawCharEsshtth) refers to adafruit_gfx.o(.constdata) for .constdata
    adafruit_gfx.o(i._ZN12Adafruit_GFXC2Ess) refers to adafruit_gfx.o(.constdata__ZTV12Adafruit_GFX) for vtable for Adafruit_GFX
    adafruit_gfx.o(i._ZN19Adafruit_GFX_Button10drawButtonEb) refers to adafruit_gfx.o(i._ZN12Adafruit_GFX16fillCircleHelperEssshst) for Adafruit_GFX::fillCircleHelper(short, short, short, unsigned char, short, unsigned short)
    adafruit_gfx.o(i._ZN19Adafruit_GFX_Button10drawButtonEb) refers to adafruit_gfx.o(i._ZN12Adafruit_GFX13drawRoundRectEssssst) for Adafruit_GFX::drawRoundRect(short, short, short, short, short, unsigned short)
    adafruit_gfx.o(i._ZN19Adafruit_GFX_Button10drawButtonEb) refers to strlen.o(.text) for strlen
    adafruit_gfx.o(i._ZN19Adafruit_GFX_Button10drawButtonEb) refers to print.o(i._ZN5Print5printEPKc) for Print::print(const char*)
    adafruit_gfx.o(i._ZN19Adafruit_GFX_Button10initButtonEP12Adafruit_GFXsstttttPch) refers to strncpy.o(.text) for strncpy
    adafruit_gfx.o(i._ZN19Adafruit_GFX_Button12initButtonULEP12Adafruit_GFXsstttttPch) refers to strncpy.o(.text) for strncpy
    adafruit_gfx.o(.ARM.exidx) refers to adafruit_gfx.o(i._ZN12Adafruit_GFXC2Ess) for i._ZN12Adafruit_GFXC2Ess
    adafruit_gfx.o(.ARM.exidx) refers to adafruit_gfx.o(i._ZN12Adafruit_GFX10startWriteEv) for i._ZN12Adafruit_GFX10startWriteEv
    adafruit_gfx.o(.ARM.exidx) refers to adafruit_gfx.o(i._ZN12Adafruit_GFX10writePixelEsst) for i._ZN12Adafruit_GFX10writePixelEsst
    adafruit_gfx.o(.ARM.exidx) refers to adafruit_gfx.o(i._ZN12Adafruit_GFX13writeFillRectEsssst) for i._ZN12Adafruit_GFX13writeFillRectEsssst
    adafruit_gfx.o(.ARM.exidx) refers to adafruit_gfx.o(i._ZN12Adafruit_GFX14writeFastVLineEssst) for i._ZN12Adafruit_GFX14writeFastVLineEssst
    adafruit_gfx.o(.ARM.exidx) refers to adafruit_gfx.o(i._ZN12Adafruit_GFX14writeFastHLineEssst) for i._ZN12Adafruit_GFX14writeFastHLineEssst
    adafruit_gfx.o(.ARM.exidx) refers to adafruit_gfx.o(i._ZN12Adafruit_GFX9writeLineEsssst) for i._ZN12Adafruit_GFX9writeLineEsssst
    adafruit_gfx.o(.ARM.exidx) refers to adafruit_gfx.o(i._ZN12Adafruit_GFX8endWriteEv) for i._ZN12Adafruit_GFX8endWriteEv
    adafruit_gfx.o(.ARM.exidx) refers to adafruit_gfx.o(i._ZN12Adafruit_GFX11setRotationEh) for i._ZN12Adafruit_GFX11setRotationEh
    adafruit_gfx.o(.ARM.exidx) refers to adafruit_gfx.o(i._ZN12Adafruit_GFX13invertDisplayEb) for i._ZN12Adafruit_GFX13invertDisplayEb
    adafruit_gfx.o(.ARM.exidx) refers to adafruit_gfx.o(i._ZN12Adafruit_GFX13drawFastVLineEssst) for i._ZN12Adafruit_GFX13drawFastVLineEssst
    adafruit_gfx.o(.ARM.exidx) refers to adafruit_gfx.o(i._ZN12Adafruit_GFX13drawFastHLineEssst) for i._ZN12Adafruit_GFX13drawFastHLineEssst
    adafruit_gfx.o(.ARM.exidx) refers to adafruit_gfx.o(i._ZN12Adafruit_GFX8fillRectEsssst) for i._ZN12Adafruit_GFX8fillRectEsssst
    adafruit_gfx.o(.ARM.exidx) refers to adafruit_gfx.o(i._ZN12Adafruit_GFX10fillScreenEt) for i._ZN12Adafruit_GFX10fillScreenEt
    adafruit_gfx.o(.ARM.exidx) refers to adafruit_gfx.o(i._ZN12Adafruit_GFX8drawLineEsssst) for i._ZN12Adafruit_GFX8drawLineEsssst
    adafruit_gfx.o(.ARM.exidx) refers to adafruit_gfx.o(i._ZN12Adafruit_GFX8drawRectEsssst) for i._ZN12Adafruit_GFX8drawRectEsssst
    adafruit_gfx.o(.ARM.exidx) refers to adafruit_gfx.o(i._ZN12Adafruit_GFX10drawCircleEssst) for i._ZN12Adafruit_GFX10drawCircleEssst
    adafruit_gfx.o(.ARM.exidx) refers to adafruit_gfx.o(i._ZN12Adafruit_GFX16drawCircleHelperEsssht) for i._ZN12Adafruit_GFX16drawCircleHelperEsssht
    adafruit_gfx.o(.ARM.exidx) refers to adafruit_gfx.o(i._ZN12Adafruit_GFX16fillCircleHelperEssshst) for i._ZN12Adafruit_GFX16fillCircleHelperEssshst
    adafruit_gfx.o(.ARM.exidx) refers to adafruit_gfx.o(i._ZN12Adafruit_GFX10fillCircleEssst) for i._ZN12Adafruit_GFX10fillCircleEssst
    adafruit_gfx.o(.ARM.exidx) refers to adafruit_gfx.o(i._ZN12Adafruit_GFX12drawTriangleEsssssst) for i._ZN12Adafruit_GFX12drawTriangleEsssssst
    adafruit_gfx.o(.ARM.exidx) refers to adafruit_gfx.o(i._ZN12Adafruit_GFX12fillTriangleEsssssst) for i._ZN12Adafruit_GFX12fillTriangleEsssssst
    adafruit_gfx.o(.ARM.exidx) refers to adafruit_gfx.o(i._ZN12Adafruit_GFX13drawRoundRectEssssst) for i._ZN12Adafruit_GFX13drawRoundRectEssssst
    adafruit_gfx.o(.ARM.exidx) refers to adafruit_gfx.o(i._ZN12Adafruit_GFX13fillRoundRectEssssst) for i._ZN12Adafruit_GFX13fillRoundRectEssssst
    adafruit_gfx.o(.ARM.exidx) refers to adafruit_gfx.o(i._ZN12Adafruit_GFX10drawBitmapEssPKhsst) for i._ZN12Adafruit_GFX10drawBitmapEssPKhsst
    adafruit_gfx.o(.ARM.exidx) refers to adafruit_gfx.o(i._ZN12Adafruit_GFX10drawBitmapEssPKhsstt) for i._ZN12Adafruit_GFX10drawBitmapEssPKhsstt
    adafruit_gfx.o(.ARM.exidx) refers to adafruit_gfx.o(i._ZN12Adafruit_GFX10drawBitmapEssPhsst) for i._ZN12Adafruit_GFX10drawBitmapEssPhsst
    adafruit_gfx.o(.ARM.exidx) refers to adafruit_gfx.o(i._ZN12Adafruit_GFX10drawBitmapEssPhsstt) for i._ZN12Adafruit_GFX10drawBitmapEssPhsstt
    adafruit_gfx.o(.ARM.exidx) refers to adafruit_gfx.o(i._ZN12Adafruit_GFX11drawXBitmapEssPKhsst) for i._ZN12Adafruit_GFX11drawXBitmapEssPKhsst
    adafruit_gfx.o(.ARM.exidx) refers to adafruit_gfx.o(i._ZN12Adafruit_GFX19drawGrayscaleBitmapEssPKhss) for i._ZN12Adafruit_GFX19drawGrayscaleBitmapEssPKhss
    adafruit_gfx.o(.ARM.exidx) refers to adafruit_gfx.o(i._ZN12Adafruit_GFX19drawGrayscaleBitmapEssPhss) for i._ZN12Adafruit_GFX19drawGrayscaleBitmapEssPhss
    adafruit_gfx.o(.ARM.exidx) refers to adafruit_gfx.o(i._ZN12Adafruit_GFX19drawGrayscaleBitmapEssPKhS1_ss) for i._ZN12Adafruit_GFX19drawGrayscaleBitmapEssPKhS1_ss
    adafruit_gfx.o(.ARM.exidx) refers to adafruit_gfx.o(i._ZN12Adafruit_GFX19drawGrayscaleBitmapEssPhS0_ss) for i._ZN12Adafruit_GFX19drawGrayscaleBitmapEssPhS0_ss
    adafruit_gfx.o(.ARM.exidx) refers to adafruit_gfx.o(i._ZN12Adafruit_GFX13drawRGBBitmapEssPKtss) for i._ZN12Adafruit_GFX13drawRGBBitmapEssPKtss
    adafruit_gfx.o(.ARM.exidx) refers to adafruit_gfx.o(i._ZN12Adafruit_GFX13drawRGBBitmapEssPtss) for i._ZN12Adafruit_GFX13drawRGBBitmapEssPtss
    adafruit_gfx.o(.ARM.exidx) refers to adafruit_gfx.o(i._ZN12Adafruit_GFX13drawRGBBitmapEssPKtPKhss) for i._ZN12Adafruit_GFX13drawRGBBitmapEssPKtPKhss
    adafruit_gfx.o(.ARM.exidx) refers to adafruit_gfx.o(i._ZN12Adafruit_GFX13drawRGBBitmapEssPtPhss) for i._ZN12Adafruit_GFX13drawRGBBitmapEssPtPhss
    adafruit_gfx.o(.ARM.exidx) refers to adafruit_gfx.o(i._ZN12Adafruit_GFX8drawCharEsshtth) for i._ZN12Adafruit_GFX8drawCharEsshtth
    adafruit_gfx.o(.ARM.exidx) refers to adafruit_gfx.o(i._ZN12Adafruit_GFX9setCursorEss) for i._ZN12Adafruit_GFX9setCursorEss
    adafruit_gfx.o(.ARM.exidx) refers to adafruit_gfx.o(i._ZN12Adafruit_GFX12setTextColorEt) for i._ZN12Adafruit_GFX12setTextColorEt
    adafruit_gfx.o(.ARM.exidx) refers to adafruit_gfx.o(i._ZN12Adafruit_GFX12setTextColorEtt) for i._ZN12Adafruit_GFX12setTextColorEtt
    adafruit_gfx.o(.ARM.exidx) refers to adafruit_gfx.o(i._ZN12Adafruit_GFX11setTextSizeEh) for i._ZN12Adafruit_GFX11setTextSizeEh
    adafruit_gfx.o(.ARM.exidx) refers to adafruit_gfx.o(i._ZN12Adafruit_GFX11setTextWrapEb) for i._ZN12Adafruit_GFX11setTextWrapEb
    adafruit_gfx.o(.ARM.exidx) refers to adafruit_gfx.o(i._ZN12Adafruit_GFX5cp437Eb) for i._ZN12Adafruit_GFX5cp437Eb
    adafruit_gfx.o(.ARM.exidx) refers to adafruit_gfx.o(i._ZN12Adafruit_GFX7setFontEPK7GFXfont) for i._ZN12Adafruit_GFX7setFontEPK7GFXfont
    adafruit_gfx.o(.ARM.exidx) refers to adafruit_gfx.o(i._ZN12Adafruit_GFX10charBoundsEcPsS0_S0_S0_S0_S0_) for i._ZN12Adafruit_GFX10charBoundsEcPsS0_S0_S0_S0_S0_
    adafruit_gfx.o(.ARM.exidx) refers to adafruit_gfx.o(i._ZN12Adafruit_GFX13getTextBoundsEPcssPsS1_PtS2_) for i._ZN12Adafruit_GFX13getTextBoundsEPcssPsS1_PtS2_
    adafruit_gfx.o(.ARM.exidx) refers to adafruit_gfx.o(i._ZN12Adafruit_GFX13getTextBoundsEPK19__FlashStringHelperssPsS3_PtS4_) for i._ZN12Adafruit_GFX13getTextBoundsEPK19__FlashStringHelperssPsS3_PtS4_
    adafruit_gfx.o(.ARM.exidx) refers to adafruit_gfx.o(i._ZN12Adafruit_GFX5writeEh) for i._ZN12Adafruit_GFX5writeEh
    adafruit_gfx.o(.ARM.exidx) refers to adafruit_gfx.o(i._ZNK12Adafruit_GFX6heightEv) for i._ZNK12Adafruit_GFX6heightEv
    adafruit_gfx.o(.ARM.exidx) refers to adafruit_gfx.o(i._ZNK12Adafruit_GFX5widthEv) for i._ZNK12Adafruit_GFX5widthEv
    adafruit_gfx.o(.ARM.exidx) refers to adafruit_gfx.o(i._ZNK12Adafruit_GFX11getRotationEv) for i._ZNK12Adafruit_GFX11getRotationEv
    adafruit_gfx.o(.ARM.exidx) refers to adafruit_gfx.o(i._ZNK12Adafruit_GFX10getCursorXEv) for i._ZNK12Adafruit_GFX10getCursorXEv
    adafruit_gfx.o(.ARM.exidx) refers to adafruit_gfx.o(i._ZNK12Adafruit_GFX10getCursorYEv) for i._ZNK12Adafruit_GFX10getCursorYEv
    adafruit_gfx.o(.ARM.exidx) refers to adafruit_gfx.o(i._ZN19Adafruit_GFX_ButtonC1Ev) for i._ZN19Adafruit_GFX_ButtonC1Ev
    adafruit_gfx.o(.ARM.exidx) refers to adafruit_gfx.o(i._ZN19Adafruit_GFX_Button12initButtonULEP12Adafruit_GFXsstttttPch) for i._ZN19Adafruit_GFX_Button12initButtonULEP12Adafruit_GFXsstttttPch
    adafruit_gfx.o(.ARM.exidx) refers to adafruit_gfx.o(i._ZN19Adafruit_GFX_Button10initButtonEP12Adafruit_GFXsstttttPch) for i._ZN19Adafruit_GFX_Button10initButtonEP12Adafruit_GFXsstttttPch
    adafruit_gfx.o(.ARM.exidx) refers to adafruit_gfx.o(i._ZN19Adafruit_GFX_Button10drawButtonEb) for i._ZN19Adafruit_GFX_Button10drawButtonEb
    adafruit_gfx.o(.ARM.exidx) refers to adafruit_gfx.o(i._ZN19Adafruit_GFX_Button8containsEss) for i._ZN19Adafruit_GFX_Button8containsEss
    adafruit_gfx.o(.ARM.exidx) refers to adafruit_gfx.o(i._ZN19Adafruit_GFX_Button5pressEb) for i._ZN19Adafruit_GFX_Button5pressEb
    adafruit_gfx.o(.ARM.exidx) refers to adafruit_gfx.o(i._ZN19Adafruit_GFX_Button9isPressedEv) for i._ZN19Adafruit_GFX_Button9isPressedEv
    adafruit_gfx.o(.ARM.exidx) refers to adafruit_gfx.o(i._ZN19Adafruit_GFX_Button11justPressedEv) for i._ZN19Adafruit_GFX_Button11justPressedEv
    adafruit_gfx.o(.ARM.exidx) refers to adafruit_gfx.o(i._ZN19Adafruit_GFX_Button12justReleasedEv) for i._ZN19Adafruit_GFX_Button12justReleasedEv
    adafruit_gfx.o(.ARM.exidx) refers to adafruit_gfx.o(i._ZN10GFXcanvas1C1Ett) for i._ZN10GFXcanvas1C1Ett
    adafruit_gfx.o(.ARM.exidx) refers to adafruit_gfx.o(i._ZN10GFXcanvas1D1Ev) for i._ZN10GFXcanvas1D1Ev
    adafruit_gfx.o(.ARM.exidx) refers to adafruit_gfx.o(i._ZN10GFXcanvas19drawPixelEsst) for i._ZN10GFXcanvas19drawPixelEsst
    adafruit_gfx.o(.ARM.exidx) refers to adafruit_gfx.o(i._ZN10GFXcanvas110fillScreenEt) for i._ZN10GFXcanvas110fillScreenEt
    adafruit_gfx.o(.ARM.exidx) refers to adafruit_gfx.o(i._ZN10GFXcanvas19getBufferEv) for i._ZN10GFXcanvas19getBufferEv
    adafruit_gfx.o(.ARM.exidx) refers to adafruit_gfx.o(i._ZN10GFXcanvas8C1Ett) for i._ZN10GFXcanvas8C1Ett
    adafruit_gfx.o(.ARM.exidx) refers to adafruit_gfx.o(i._ZN10GFXcanvas8D1Ev) for i._ZN10GFXcanvas8D1Ev
    adafruit_gfx.o(.ARM.exidx) refers to adafruit_gfx.o(i._ZN10GFXcanvas89drawPixelEsst) for i._ZN10GFXcanvas89drawPixelEsst
    adafruit_gfx.o(.ARM.exidx) refers to adafruit_gfx.o(i._ZN10GFXcanvas810fillScreenEt) for i._ZN10GFXcanvas810fillScreenEt
    adafruit_gfx.o(.ARM.exidx) refers to adafruit_gfx.o(i._ZN10GFXcanvas814writeFastHLineEssst) for i._ZN10GFXcanvas814writeFastHLineEssst
    adafruit_gfx.o(.ARM.exidx) refers to adafruit_gfx.o(i._ZN10GFXcanvas89getBufferEv) for i._ZN10GFXcanvas89getBufferEv
    adafruit_gfx.o(.ARM.exidx) refers to adafruit_gfx.o(i._ZN11GFXcanvas16C1Ett) for i._ZN11GFXcanvas16C1Ett
    adafruit_gfx.o(.ARM.exidx) refers to adafruit_gfx.o(i._ZN11GFXcanvas16D1Ev) for i._ZN11GFXcanvas16D1Ev
    adafruit_gfx.o(.ARM.exidx) refers to adafruit_gfx.o(i._ZN11GFXcanvas169drawPixelEsst) for i._ZN11GFXcanvas169drawPixelEsst
    adafruit_gfx.o(.ARM.exidx) refers to adafruit_gfx.o(i._ZN11GFXcanvas1610fillScreenEt) for i._ZN11GFXcanvas1610fillScreenEt
    adafruit_gfx.o(.ARM.exidx) refers to adafruit_gfx.o(i._ZN11GFXcanvas169getBufferEv) for i._ZN11GFXcanvas169getBufferEv
    gt911.o(i._Z10GT911_Initv) refers to gtiic.o(i._Z11GT_IIC_Initv) for GT_IIC_Init()
    gt911.o(i._Z10GT911_Initv) refers to delay.o(i.delay_ms) for delay_ms
    gt911.o(i._Z10GT911_Initv) refers to gtiic.o(i._Z12GT_IIC_Startv) for GT_IIC_Start()
    gt911.o(i._Z10GT911_Initv) refers to gtiic.o(i._Z16GT_IIC_Send_Byteh) for GT_IIC_Send_Byte(unsigned char)
    gt911.o(i._Z10GT911_Initv) refers to delay.o(i.delay_us) for delay_us
    gt911.o(i._Z10GT911_Initv) refers to gtiic.o(i._Z16GT_IIC_Read_Byteh) for GT_IIC_Read_Byte(unsigned char)
    gt911.o(i._Z10GT911_Initv) refers to gtiic.o(i._Z11GT_IIC_Stopv) for GT_IIC_Stop()
    gt911.o(i._Z10GT911_Initv) refers to gpio.o(.constdata) for PIN_MAP
    gt911.o(i._Z10GT911_Scanv) refers to gtiic.o(i._Z12GT_IIC_Startv) for GT_IIC_Start()
    gt911.o(i._Z10GT911_Scanv) refers to gtiic.o(i._Z16GT_IIC_Send_Byteh) for GT_IIC_Send_Byte(unsigned char)
    gt911.o(i._Z10GT911_Scanv) refers to delay.o(i.delay_us) for delay_us
    gt911.o(i._Z10GT911_Scanv) refers to gtiic.o(i._Z16GT_IIC_Read_Byteh) for GT_IIC_Read_Byte(unsigned char)
    gt911.o(i._Z10GT911_Scanv) refers to gtiic.o(i._Z11GT_IIC_Stopv) for GT_IIC_Stop()
    gt911.o(i._Z10GT911_Scanv) refers to gt911.o(.data) for .data
    gt911.o(i._Z10GT911_Scanv) refers to touch.o(.data) for tp_dev
    gt911.o(i._Z14GT911_int_synct) refers to delay.o(i.delay_ms) for delay_ms
    gt911.o(i._Z14GT911_int_synct) refers to gpio.o(.constdata) for PIN_MAP
    gt911.o(i._Z14GT9XX_ReadDatathPh) refers to gtiic.o(i._Z12GT_IIC_Startv) for GT_IIC_Start()
    gt911.o(i._Z14GT9XX_ReadDatathPh) refers to gtiic.o(i._Z16GT_IIC_Send_Byteh) for GT_IIC_Send_Byte(unsigned char)
    gt911.o(i._Z14GT9XX_ReadDatathPh) refers to delay.o(i.delay_us) for delay_us
    gt911.o(i._Z14GT9XX_ReadDatathPh) refers to gtiic.o(i._Z16GT_IIC_Read_Byteh) for GT_IIC_Read_Byte(unsigned char)
    gt911.o(i._Z14GT9XX_ReadDatathPh) refers to gtiic.o(i._Z11GT_IIC_Stopv) for GT_IIC_Stop()
    gt911.o(i._Z15GT911_gpio_initv) refers to gtiic.o(i._Z11GT_IIC_Initv) for GT_IIC_Init()
    gt911.o(i._Z15GT9XX_WriteDatath) refers to gtiic.o(i._Z12GT_IIC_Startv) for GT_IIC_Start()
    gt911.o(i._Z15GT9XX_WriteDatath) refers to gtiic.o(i._Z16GT_IIC_Send_Byteh) for GT_IIC_Send_Byte(unsigned char)
    gt911.o(i._Z15GT9XX_WriteDatath) refers to gtiic.o(i._Z11GT_IIC_Stopv) for GT_IIC_Stop()
    gt911.o(i._Z15Touch_Get_Countv) refers to gtiic.o(i._Z12GT_IIC_Startv) for GT_IIC_Start()
    gt911.o(i._Z15Touch_Get_Countv) refers to gtiic.o(i._Z16GT_IIC_Send_Byteh) for GT_IIC_Send_Byte(unsigned char)
    gt911.o(i._Z15Touch_Get_Countv) refers to delay.o(i.delay_us) for delay_us
    gt911.o(i._Z15Touch_Get_Countv) refers to gtiic.o(i._Z16GT_IIC_Read_Byteh) for GT_IIC_Read_Byte(unsigned char)
    gt911.o(i._Z15Touch_Get_Countv) refers to gtiic.o(i._Z11GT_IIC_Stopv) for GT_IIC_Stop()
    gt911.o(i._Z17GT9XX_WriteHandlet) refers to gtiic.o(i._Z12GT_IIC_Startv) for GT_IIC_Start()
    gt911.o(i._Z17GT9XX_WriteHandlet) refers to gtiic.o(i._Z16GT_IIC_Send_Byteh) for GT_IIC_Send_Byte(unsigned char)
    gt911.o(.ARM.exidx) refers to gt911.o(i._Z14GT911_int_synct) for i._Z14GT911_int_synct
    gt911.o(.ARM.exidx) refers to gt911.o(i._Z15GT911_gpio_initv) for i._Z15GT911_gpio_initv
    gt911.o(.ARM.exidx) refers to gt911.o(i._Z17GT9XX_WriteHandlet) for i._Z17GT9XX_WriteHandlet
    gt911.o(.ARM.exidx) refers to gt911.o(i._Z15GT9XX_WriteDatath) for i._Z15GT9XX_WriteDatath
    gt911.o(.ARM.exidx) refers to gt911.o(i._Z14GT9XX_ReadDatathPh) for i._Z14GT9XX_ReadDatathPh
    gt911.o(.ARM.exidx) refers to gt911.o(i._Z10GT911_Initv) for i._Z10GT911_Initv
    gt911.o(.ARM.exidx) refers to gt911.o(i._Z15Touch_Get_Countv) for i._Z15Touch_Get_Countv
    gt911.o(.ARM.exidx) refers to gt911.o(i._Z10GT911_Scanv) for i._Z10GT911_Scanv
    gtiic.o(i._Z10GT_IIC_Ackv) refers to gtiic.o(i._Z13GT_SetSdaModeh) for GT_SetSdaMode(unsigned char)
    gtiic.o(i._Z10GT_IIC_Ackv) refers to delay.o(i.delay_us) for delay_us
    gtiic.o(i._Z10GT_IIC_Ackv) refers to gpio.o(.constdata) for PIN_MAP
    gtiic.o(i._Z11GT_IIC_Initv) refers to arduino.o(i.pinMode) for pinMode
    gtiic.o(i._Z11GT_IIC_Initv) refers to gpio.o(.constdata) for PIN_MAP
    gtiic.o(i._Z11GT_IIC_NAckv) refers to gtiic.o(i._Z13GT_SetSdaModeh) for GT_SetSdaMode(unsigned char)
    gtiic.o(i._Z11GT_IIC_NAckv) refers to delay.o(i.delay_us) for delay_us
    gtiic.o(i._Z11GT_IIC_NAckv) refers to gpio.o(.constdata) for PIN_MAP
    gtiic.o(i._Z11GT_IIC_Stopv) refers to gtiic.o(i._Z13GT_SetSdaModeh) for GT_SetSdaMode(unsigned char)
    gtiic.o(i._Z11GT_IIC_Stopv) refers to delay.o(i.delay_us) for delay_us
    gtiic.o(i._Z11GT_IIC_Stopv) refers to gpio.o(.constdata) for PIN_MAP
    gtiic.o(i._Z12GT_IIC_Startv) refers to gtiic.o(i._Z13GT_SetSdaModeh) for GT_SetSdaMode(unsigned char)
    gtiic.o(i._Z12GT_IIC_Startv) refers to delay.o(i.delay_us) for delay_us
    gtiic.o(i._Z12GT_IIC_Startv) refers to gpio.o(.constdata) for PIN_MAP
    gtiic.o(i._Z13GT_SetSdaModeh) refers to cxa_guard_acquire.o(i.__cxa_guard_acquire) for __cxa_guard_acquire
    gtiic.o(i._Z13GT_SetSdaModeh) refers to arduino.o(i.pinMode) for pinMode
    gtiic.o(i._Z13GT_SetSdaModeh) refers to gtiic.o(.data) for .data
    gtiic.o(i._Z15GT_IIC_Wait_Ackv) refers to gtiic.o(i._Z13GT_SetSdaModeh) for GT_SetSdaMode(unsigned char)
    gtiic.o(i._Z15GT_IIC_Wait_Ackv) refers to delay.o(i.delay_us) for delay_us
    gtiic.o(i._Z15GT_IIC_Wait_Ackv) refers to gpio.o(.constdata) for PIN_MAP
    gtiic.o(i._Z16GT_IIC_Read_Byteh) refers to gtiic.o(i._Z13GT_SetSdaModeh) for GT_SetSdaMode(unsigned char)
    gtiic.o(i._Z16GT_IIC_Read_Byteh) refers to delay.o(i.delay_us) for delay_us
    gtiic.o(i._Z16GT_IIC_Read_Byteh) refers to gpio.o(.constdata) for PIN_MAP
    gtiic.o(i._Z16GT_IIC_Send_Byteh) refers to gtiic.o(i._Z13GT_SetSdaModeh) for GT_SetSdaMode(unsigned char)
    gtiic.o(i._Z16GT_IIC_Send_Byteh) refers to delay.o(i.delay_us) for delay_us
    gtiic.o(i._Z16GT_IIC_Send_Byteh) refers to gpio.o(.constdata) for PIN_MAP
    gtiic.o(i._Z8GT_Delayv) refers to delay.o(i.delay_us) for delay_us
    gtiic.o(.ARM.exidx) refers to gtiic.o(i._Z13GT_SetSdaModeh) for i._Z13GT_SetSdaModeh
    gtiic.o(.ARM.exidx) refers to gtiic.o(i._Z8GT_Delayv) for i._Z8GT_Delayv
    gtiic.o(.ARM.exidx) refers to gtiic.o(i._Z11GT_IIC_Initv) for i._Z11GT_IIC_Initv
    gtiic.o(.ARM.exidx) refers to gtiic.o(i._Z12GT_IIC_Startv) for i._Z12GT_IIC_Startv
    gtiic.o(.ARM.exidx) refers to gtiic.o(i._Z11GT_IIC_Stopv) for i._Z11GT_IIC_Stopv
    gtiic.o(.ARM.exidx) refers to gtiic.o(i._Z15GT_IIC_Wait_Ackv) for i._Z15GT_IIC_Wait_Ackv
    gtiic.o(.ARM.exidx) refers to gtiic.o(i._Z10GT_IIC_Ackv) for i._Z10GT_IIC_Ackv
    gtiic.o(.ARM.exidx) refers to gtiic.o(i._Z11GT_IIC_NAckv) for i._Z11GT_IIC_NAckv
    gtiic.o(.ARM.exidx) refers to gtiic.o(i._Z16GT_IIC_Send_Byteh) for i._Z16GT_IIC_Send_Byteh
    gtiic.o(.ARM.exidx) refers to gtiic.o(i._Z16GT_IIC_Read_Byteh) for i._Z16GT_IIC_Read_Byteh
    nrf.o(i._ZN3NRF10GetAddressEPhb) refers to nrf.o(i._ZN3NRF6SPI_RWEh) for NRF::SPI_RW(unsigned char)
    nrf.o(i._ZN3NRF10SPI_RW_RegEhh) refers to nrf.o(i._ZN3NRF6SPI_RWEh) for NRF::SPI_RW(unsigned char)
    nrf.o(i._ZN3NRF10SetAddressEPh) refers to nrf.o(i._ZN3NRF13SPI_Write_BufEhPhh) for NRF::SPI_Write_Buf(unsigned char, unsigned char*, unsigned char)
    nrf.o(i._ZN3NRF10SetAddressEhhhhh) refers to nrf.o(i._ZN3NRF13SPI_Write_BufEhPhh) for NRF::SPI_Write_Buf(unsigned char, unsigned char*, unsigned char)
    nrf.o(i._ZN3NRF11SetFreqencyEh) refers to nrf.o(i._ZN3NRF6SPI_RWEh) for NRF::SPI_RW(unsigned char)
    nrf.o(i._ZN3NRF12RecvTranSafeEPhS0_) refers to nrf.o(i._ZN3NRF4TranEPh) for NRF::Tran(unsigned char*)
    nrf.o(i._ZN3NRF12RecvTranSafeEPhS0_) refers to nrf.o(i._ZN3NRF7RX_ModeEv) for NRF::RX_Mode()
    nrf.o(i._ZN3NRF12RecvTranSafeEPhS0_) refers to nrf.o(i._ZN3NRF4RecvEPh) for NRF::Recv(unsigned char*)
    nrf.o(i._ZN3NRF12RecvTranSafeEPhS0_) refers to nrf.o(i._ZN3NRF7TX_ModeEPh) for NRF::TX_Mode(unsigned char*)
    nrf.o(i._ZN3NRF12SPI_Read_BufEhPhh) refers to nrf.o(i._ZN3NRF6SPI_RWEh) for NRF::SPI_RW(unsigned char)
    nrf.o(i._ZN3NRF12TranRecvSafeEPhS0_) refers to nrf.o(i._ZN3NRF6SPI_RWEh) for NRF::SPI_RW(unsigned char)
    nrf.o(i._ZN3NRF12TranRecvSafeEPhS0_) refers to nrf.o(i._ZN3NRF4RecvEPh) for NRF::Recv(unsigned char*)
    nrf.o(i._ZN3NRF12TranRecvSafeEPhS0_) refers to nrf.o(i._ZN3NRF7TX_ModeEPh) for NRF::TX_Mode(unsigned char*)
    nrf.o(i._ZN3NRF12TranRecvSafeEPhS0_) refers to nrf.o(i._ZN3NRF4TranEPh) for NRF::Tran(unsigned char*)
    nrf.o(i._ZN3NRF12TranRecvSafeEPhS0_) refers to nrf.o(i._ZN3NRF7RX_ModeEv) for NRF::RX_Mode()
    nrf.o(i._ZN3NRF13LowPower_ModeEv) refers to nrf.o(i._ZN3NRF6SPI_RWEh) for NRF::SPI_RW(unsigned char)
    nrf.o(i._ZN3NRF13SPI_Write_BufEhPhh) refers to nrf.o(i._ZN3NRF6SPI_RWEh) for NRF::SPI_RW(unsigned char)
    nrf.o(i._ZN3NRF4RecvEPh) refers to nrf.o(i._ZN3NRF6SPI_RWEh) for NRF::SPI_RW(unsigned char)
    nrf.o(i._ZN3NRF4TranEPh) refers to nrf.o(i._ZN3NRF6SPI_RWEh) for NRF::SPI_RW(unsigned char)
    nrf.o(i._ZN3NRF4TranEPh) refers to nrf.o(i._ZN3NRF13SPI_Write_BufEhPhh) for NRF::SPI_Write_Buf(unsigned char, unsigned char*, unsigned char)
    nrf.o(i._ZN3NRF4initENS_16NRF_Mode_TypeDefEPhhh) refers to arduino.o(i.pinMode) for pinMode
    nrf.o(i._ZN3NRF4initENS_16NRF_Mode_TypeDefEPhhh) refers to delay.o(i.delay_ms) for delay_ms
    nrf.o(i._ZN3NRF4initENS_16NRF_Mode_TypeDefEPhhh) refers to nrf.o(i._ZN3NRF7RX_ModeEv) for NRF::RX_Mode()
    nrf.o(i._ZN3NRF4initENS_16NRF_Mode_TypeDefEPhhh) refers to nrf.o(i._ZN3NRF7TX_ModeEPh) for NRF::TX_Mode(unsigned char*)
    nrf.o(i._ZN3NRF4initENS_16NRF_Mode_TypeDefEPhhh) refers to nrf.o(i._ZN3NRF6SPI_RWEh) for NRF::SPI_RW(unsigned char)
    nrf.o(i._ZN3NRF6StatusEv) refers to nrf.o(i._ZN3NRF6SPI_RWEh) for NRF::SPI_RW(unsigned char)
    nrf.o(i._ZN3NRF7RX_ModeEv) refers to nrf.o(i._ZN3NRF13SPI_Write_BufEhPhh) for NRF::SPI_Write_Buf(unsigned char, unsigned char*, unsigned char)
    nrf.o(i._ZN3NRF7RX_ModeEv) refers to nrf.o(i._ZN3NRF6SPI_RWEh) for NRF::SPI_RW(unsigned char)
    nrf.o(i._ZN3NRF7TX_ModeEPh) refers to nrf.o(i._ZN3NRF13SPI_Write_BufEhPhh) for NRF::SPI_Write_Buf(unsigned char, unsigned char*, unsigned char)
    nrf.o(i._ZN3NRF7TX_ModeEPh) refers to nrf.o(i._ZN3NRF6SPI_RWEh) for NRF::SPI_RW(unsigned char)
    nrf.o(i._ZN3NRF8IsDetectEv) refers to nrf.o(i.__ARM_common_memcpy4_6) for __ARM_common_memcpy4_6
    nrf.o(i._ZN3NRF8IsDetectEv) refers to nrf.o(i._ZN3NRF13SPI_Write_BufEhPhh) for NRF::SPI_Write_Buf(unsigned char, unsigned char*, unsigned char)
    nrf.o(i._ZN3NRF8IsDetectEv) refers to nrf.o(i._ZN3NRF6SPI_RWEh) for NRF::SPI_RW(unsigned char)
    nrf.o(i._ZN3NRF8RecvTranEPhS0_) refers to nrf.o(i._ZN3NRF4TranEPh) for NRF::Tran(unsigned char*)
    nrf.o(i._ZN3NRF8RecvTranEPhS0_) refers to nrf.o(i._ZN3NRF4RecvEPh) for NRF::Recv(unsigned char*)
    nrf.o(i._ZN3NRF8RecvTranEPhS0_) refers to nrf.o(i._ZN3NRF7TX_ModeEPh) for NRF::TX_Mode(unsigned char*)
    nrf.o(i._ZN3NRF8RecvTranEPhS0_) refers to nrf.o(i._ZN3NRF7RX_ModeEv) for NRF::RX_Mode()
    nrf.o(i._ZN3NRF8SPI_ReadEh) refers to nrf.o(i._ZN3NRF6SPI_RWEh) for NRF::SPI_RW(unsigned char)
    nrf.o(i._ZN3NRF8SetPowerENS_17NRF_Power_TypeDefE) refers to nrf.o(i._ZN3NRF6SPI_RWEh) for NRF::SPI_RW(unsigned char)
    nrf.o(i._ZN3NRF8SetSpeedENS_17NRF_Speed_TypeDefE) refers to nrf.o(i._ZN3NRF6SPI_RWEh) for NRF::SPI_RW(unsigned char)
    nrf.o(i._ZN3NRF8TranRecvEPhS0_) refers to nrf.o(i._ZN3NRF4RecvEPh) for NRF::Recv(unsigned char*)
    nrf.o(i._ZN3NRF8TranRecvEPhS0_) refers to nrf.o(i._ZN3NRF4TranEPh) for NRF::Tran(unsigned char*)
    nrf.o(i._ZN3NRF8TranRecvEPhS0_) refers to nrf.o(i._ZN3NRF7RX_ModeEv) for NRF::RX_Mode()
    nrf.o(i._ZN3NRF8TranRecvEPhS0_) refers to nrf.o(i._ZN3NRF7TX_ModeEPh) for NRF::TX_Mode(unsigned char*)
    nrf.o(i._ZN3NRF9ClearFlagEv) refers to nrf.o(i._ZN3NRF6SPI_RWEh) for NRF::SPI_RW(unsigned char)
    nrf.o(i._ZN3NRFC1Ehhhhh) refers to gpio.o(.constdata) for PIN_MAP
    nrf.o(.ARM.exidx) refers to nrf.o(i._ZN3NRFC1Ehhhhh) for i._ZN3NRFC1Ehhhhh
    nrf.o(.ARM.exidx) refers to nrf.o(i._ZN3NRF6SPI_RWEh) for i._ZN3NRF6SPI_RWEh
    nrf.o(.ARM.exidx) refers to nrf.o(i._ZN3NRF13SPI_Write_BufEhPhh) for i._ZN3NRF13SPI_Write_BufEhPhh
    nrf.o(.ARM.exidx) refers to nrf.o(i._ZN3NRF10SetAddressEhhhhh) for i._ZN3NRF10SetAddressEhhhhh
    nrf.o(.ARM.exidx) refers to nrf.o(i._ZN3NRF10SetAddressEPh) for i._ZN3NRF10SetAddressEPh
    nrf.o(.ARM.exidx) refers to nrf.o(i._ZN3NRF10SPI_RW_RegEhh) for i._ZN3NRF10SPI_RW_RegEhh
    nrf.o(.ARM.exidx) refers to nrf.o(i._ZN3NRF8SetSpeedENS_17NRF_Speed_TypeDefE) for i._ZN3NRF8SetSpeedENS_17NRF_Speed_TypeDefE
    nrf.o(.ARM.exidx) refers to nrf.o(i._ZN3NRF11SetFreqencyEh) for i._ZN3NRF11SetFreqencyEh
    nrf.o(.ARM.exidx) refers to nrf.o(i._ZN3NRF8SetPowerENS_17NRF_Power_TypeDefE) for i._ZN3NRF8SetPowerENS_17NRF_Power_TypeDefE
    nrf.o(.ARM.exidx) refers to nrf.o(i._ZN3NRF12SetRF_EnableEb) for i._ZN3NRF12SetRF_EnableEb
    nrf.o(.ARM.exidx) refers to nrf.o(i._ZN3NRF10GetAddressEh) for i._ZN3NRF10GetAddressEh
    nrf.o(.ARM.exidx) refers to nrf.o(i._ZN3NRF12SPI_Read_BufEhPhh) for i._ZN3NRF12SPI_Read_BufEhPhh
    nrf.o(.ARM.exidx) refers to nrf.o(i._ZN3NRF10GetAddressEPhb) for i._ZN3NRF10GetAddressEPhb
    nrf.o(.ARM.exidx) refers to nrf.o(i._ZN3NRF8GetSpeedEv) for i._ZN3NRF8GetSpeedEv
    nrf.o(.ARM.exidx) refers to nrf.o(i._ZN3NRF11GetFreqencyEv) for i._ZN3NRF11GetFreqencyEv
    nrf.o(.ARM.exidx) refers to nrf.o(i._ZN3NRF12GetTxRxStateEv) for i._ZN3NRF12GetTxRxStateEv
    nrf.o(.ARM.exidx) refers to nrf.o(i._ZN3NRF17GetSignalStrengthEv) for i._ZN3NRF17GetSignalStrengthEv
    nrf.o(.ARM.exidx) refers to nrf.o(i._ZN3NRF8SPI_ReadEh) for i._ZN3NRF8SPI_ReadEh
    nrf.o(.ARM.exidx) refers to nrf.o(i._ZN3NRF6StatusEv) for i._ZN3NRF6StatusEv
    nrf.o(.ARM.exidx) refers to nrf.o(i._ZN3NRF9ClearFlagEv) for i._ZN3NRF9ClearFlagEv
    nrf.o(.ARM.exidx) refers to nrf.o(i._ZN3NRF7RX_ModeEv) for i._ZN3NRF7RX_ModeEv
    nrf.o(.ARM.exidx) refers to nrf.o(i._ZN3NRF7TX_ModeEPh) for i._ZN3NRF7TX_ModeEPh
    nrf.o(.ARM.exidx) refers to nrf.o(i._ZN3NRF4initENS_16NRF_Mode_TypeDefEPhhh) for i._ZN3NRF4initENS_16NRF_Mode_TypeDefEPhhh
    nrf.o(.ARM.exidx) refers to nrf.o(i._ZN3NRF8IsDetectEv) for i._ZN3NRF8IsDetectEv
    nrf.o(.ARM.exidx) refers to nrf.o(i._ZN3NRF4TranEPh) for i._ZN3NRF4TranEPh
    nrf.o(.ARM.exidx) refers to nrf.o(i._ZN3NRF4RecvEPh) for i._ZN3NRF4RecvEPh
    nrf.o(.ARM.exidx) refers to nrf.o(i._ZN3NRF8TranRecvEPhS0_) for i._ZN3NRF8TranRecvEPhS0_
    nrf.o(.ARM.exidx) refers to nrf.o(i._ZN3NRF8RecvTranEPhS0_) for i._ZN3NRF8RecvTranEPhS0_
    nrf.o(.ARM.exidx) refers to nrf.o(i._ZN3NRF12TranRecvSafeEPhS0_) for i._ZN3NRF12TranRecvSafeEPhS0_
    nrf.o(.ARM.exidx) refers to nrf.o(i._ZN3NRF12RecvTranSafeEPhS0_) for i._ZN3NRF12RecvTranSafeEPhS0_
    nrf.o(.ARM.exidx) refers to nrf.o(i._ZN3NRF13LowPower_ModeEv) for i._ZN3NRF13LowPower_ModeEv
    strprinter.o(i._Z14SP_CoverStringPKcPcht) refers to strprinter.o(.data) for .data
    strprinter.o(i._Z14SP_CoverStringPKcPcht) refers to strprinter.o(.bss) for .bss
    strprinter.o(i._Z14SP_PrepareRectPKcPch) refers to strprinter.o(.data) for .data
    strprinter.o(i._Z24SP_FillBuffer_SolidBrusht) refers to strprinter.o(.data) for .data
    strprinter.o(i._Z24SP_FillBuffer_SolidBrusht) refers to strprinter.o(.bss) for .bss
    strprinter.o(.ARM.exidx) refers to strprinter.o(i._Z10SP_GetRectPKcPchPjS2_) for i._Z10SP_GetRectPKcPchPjS2_
    strprinter.o(.ARM.exidx) refers to strprinter.o(i._Z14SP_PrepareRectPKcPch) for i._Z14SP_PrepareRectPKcPch
    strprinter.o(.ARM.exidx) refers to strprinter.o(i._Z24SP_FillBuffer_SolidBrusht) for i._Z24SP_FillBuffer_SolidBrusht
    strprinter.o(.ARM.exidx) refers to strprinter.o(i._Z14SP_CoverStringPKcPcht) for i._Z14SP_CoverStringPKcPcht
    tft_ili9488.o(i._ZN11TFT_ILI948811setOpacityXEh) refers to strprinter.o(.data) for SP_Brush_Opacity
    tft_ili9488.o(i._ZN11TFT_ILI94885beginEv) refers to arduino.o(i.pinMode) for pinMode
    tft_ili9488.o(i._ZN11TFT_ILI94885beginEv) refers to delay.o(i.delay_ms) for delay_ms
    tft_ili9488.o(i._ZN11TFT_ILI94887printfXE6String) refers to printfa.o(i.__0vsprintf) for __c89vsprintf
    tft_ili9488.o(i._ZN11TFT_ILI94887printfXE6String) refers to strprinter.o(i._Z14SP_PrepareRectPKcPch) for SP_PrepareRect(const char*, char*, unsigned char)
    tft_ili9488.o(i._ZN11TFT_ILI94887printfXE6String) refers to strprinter.o(i._Z24SP_FillBuffer_SolidBrusht) for SP_FillBuffer_SolidBrush(unsigned short)
    tft_ili9488.o(i._ZN11TFT_ILI94887printfXE6String) refers to strprinter.o(i._Z14SP_CoverStringPKcPcht) for SP_CoverString(const char*, char*, unsigned char, unsigned short)
    tft_ili9488.o(i._ZN11TFT_ILI94887printfXE6String) refers to tft_ili9488.o(.bss) for .bss
    tft_ili9488.o(i._ZN11TFT_ILI94887printfXE6String) refers to strprinter.o(.constdata) for Fonts_MicrosoftYahei11px
    tft_ili9488.o(i._ZN11TFT_ILI94887printfXE6String) refers to strprinter.o(.data) for SP_Buffer_Height
    tft_ili9488.o(i._ZN11TFT_ILI94887printfXE6String) refers to strprinter.o(.bss) for SP_Buffer
    tft_ili9488.o(i._ZN11TFT_ILI94887printfXEPKcz) refers to printfa.o(i.__0vsprintf) for __c89vsprintf
    tft_ili9488.o(i._ZN11TFT_ILI94887printfXEPKcz) refers to strprinter.o(i._Z14SP_PrepareRectPKcPch) for SP_PrepareRect(const char*, char*, unsigned char)
    tft_ili9488.o(i._ZN11TFT_ILI94887printfXEPKcz) refers to strprinter.o(i._Z24SP_FillBuffer_SolidBrusht) for SP_FillBuffer_SolidBrush(unsigned short)
    tft_ili9488.o(i._ZN11TFT_ILI94887printfXEPKcz) refers to strprinter.o(i._Z14SP_CoverStringPKcPcht) for SP_CoverString(const char*, char*, unsigned char, unsigned short)
    tft_ili9488.o(i._ZN11TFT_ILI94887printfXEPKcz) refers to tft_ili9488.o(.bss) for .bss
    tft_ili9488.o(i._ZN11TFT_ILI94887printfXEPKcz) refers to strprinter.o(.constdata) for Fonts_MicrosoftYahei11px
    tft_ili9488.o(i._ZN11TFT_ILI94887printfXEPKcz) refers to strprinter.o(.data) for SP_Buffer_Height
    tft_ili9488.o(i._ZN11TFT_ILI94887printfXEPKcz) refers to strprinter.o(.bss) for SP_Buffer
    tft_ili9488.o(i._ZN11TFT_ILI9488C1Ehhhhhh) refers to adafruit_gfx.o(i._ZN12Adafruit_GFXC2Ess) for Adafruit_GFX::Adafruit_GFX__sub_object(short, short)
    tft_ili9488.o(i._ZN11TFT_ILI9488C1Ehhhhhh) refers to tft_ili9488.o(.constdata__ZTV11TFT_ILI9488) for vtable for TFT_ILI9488
    tft_ili9488.o(i._ZN11TFT_ILI9488C1Ehhhhhh) refers to gpio.o(.constdata) for PIN_MAP
    tft_ili9488.o(.ARM.exidx) refers to tft_ili9488.o(i._ZN11TFT_ILI9488C1Ehhhhhh) for i._ZN11TFT_ILI9488C1Ehhhhhh
    tft_ili9488.o(.ARM.exidx) refers to tft_ili9488.o(i._ZN11TFT_ILI948812writeCommondEh) for i._ZN11TFT_ILI948812writeCommondEh
    tft_ili9488.o(.ARM.exidx) refers to tft_ili9488.o(i._ZN11TFT_ILI94889writeDataEt) for i._ZN11TFT_ILI94889writeDataEt
    tft_ili9488.o(.ARM.exidx) refers to tft_ili9488.o(i._ZN11TFT_ILI94885beginEv) for i._ZN11TFT_ILI94885beginEv
    tft_ili9488.o(.ARM.exidx) refers to tft_ili9488.o(i._ZN11TFT_ILI94887printfXEPKcz) for i._ZN11TFT_ILI94887printfXEPKcz
    tft_ili9488.o(.ARM.exidx) refers to tft_ili9488.o(i._ZN11TFT_ILI94887printfXE6String) for i._ZN11TFT_ILI94887printfXE6String
    tft_ili9488.o(.ARM.exidx) refers to tft_ili9488.o(i._ZN11TFT_ILI948811setOpacityXEh) for i._ZN11TFT_ILI948811setOpacityXEh
    tft_ili9488.o(.ARM.exidx) refers to tft_ili9488.o(i._ZN11TFT_ILI94889drawPixelEsst) for i._ZN11TFT_ILI94889drawPixelEsst
    tft_ili9488.o(.ARM.exidx) refers to tft_ili9488.o(i._ZN11TFT_ILI948813setAddrWindowEssss) for i._ZN11TFT_ILI948813setAddrWindowEssss
    tft_ili9488.o(.ARM.exidx) refers to tft_ili9488.o(i._ZN11TFT_ILI94889setCursorEss) for i._ZN11TFT_ILI94889setCursorEss
    tft_ili9488.o(.ARM.exidx) refers to tft_ili9488.o(i._ZN11TFT_ILI948811setRotationEh) for i._ZN11TFT_ILI948811setRotationEh
    tft_ili9488.o(.ARM.exidx) refers to tft_ili9488.o(i._ZN11TFT_ILI948810fillScreenEt) for i._ZN11TFT_ILI948810fillScreenEt
    tft_ili9488.o(.ARM.exidx) refers to tft_ili9488.o(i._ZN11TFT_ILI948813drawFastVLineEssst) for i._ZN11TFT_ILI948813drawFastVLineEssst
    tft_ili9488.o(.ARM.exidx) refers to tft_ili9488.o(i._ZN11TFT_ILI948813drawFastHLineEssst) for i._ZN11TFT_ILI948813drawFastHLineEssst
    tft_ili9488.o(.ARM.exidx) refers to tft_ili9488.o(i._ZN11TFT_ILI948813drawRGBBitmapEssPtss) for i._ZN11TFT_ILI948813drawRGBBitmapEssPtss
    tft_ili9488.o(.ARM.exidx) refers to tft_ili9488.o(i._ZN11TFT_ILI948817fastDrawRGBBitmapEssPtss) for i._ZN11TFT_ILI948817fastDrawRGBBitmapEssPtss
    touch.o(i._Z7TP_Initv) refers to gt911.o(i._Z10GT911_Initv) for GT911_Init()
    touch.o(i._Z7TP_Initv) refers to gt911.o(i._Z10GT911_Scanv) for GT911_Scan()
    touch.o(i._Z7TP_Initv) refers to touch.o(.data) for .data
    touch.o(.ARM.exidx) refers to touch.o(i._Z7TP_Initv) for i._Z7TP_Initv
    touch.o(.data) refers to touch.o(i._Z7TP_Initv) for TP_Init()
    adc.o(i.ADC_DMA_GetValue) refers to adc.o(.data) for .data
    adc.o(i.ADC_DMA_GetValue) refers to adc.o(.bss) for .bss
    adc.o(i.ADC_DMA_Init) refers to stm32f4xx_rcc.o(i.RCC_APB2PeriphClockCmd) for RCC_APB2PeriphClockCmd
    adc.o(i.ADC_DMA_Init) refers to stm32f4xx_dma.o(i.DMA_DeInit) for DMA_DeInit
    adc.o(i.ADC_DMA_Init) refers to stm32f4xx_rcc.o(i.RCC_AHB1PeriphClockCmd) for RCC_AHB1PeriphClockCmd
    adc.o(i.ADC_DMA_Init) refers to stm32f4xx_dma.o(i.DMA_GetCmdStatus) for DMA_GetCmdStatus
    adc.o(i.ADC_DMA_Init) refers to stm32f4xx_dma.o(i.DMA_Init) for DMA_Init
    adc.o(i.ADC_DMA_Init) refers to stm32f4xx_dma.o(i.DMA_Cmd) for DMA_Cmd
    adc.o(i.ADC_DMA_Init) refers to stm32f4xx_adc.o(i.ADC_DeInit) for ADC_DeInit
    adc.o(i.ADC_DMA_Init) refers to stm32f4xx_adc.o(i.ADC_CommonInit) for ADC_CommonInit
    adc.o(i.ADC_DMA_Init) refers to stm32f4xx_adc.o(i.ADC_Init) for ADC_Init
    adc.o(i.ADC_DMA_Init) refers to stm32f4xx_adc.o(i.ADC_Cmd) for ADC_Cmd
    adc.o(i.ADC_DMA_Init) refers to stm32f4xx_adc.o(i.ADC_RegularChannelConfig) for ADC_RegularChannelConfig
    adc.o(i.ADC_DMA_Init) refers to stm32f4xx_adc.o(i.ADC_TempSensorVrefintCmd) for ADC_TempSensorVrefintCmd
    adc.o(i.ADC_DMA_Init) refers to stm32f4xx_adc.o(i.ADC_DMARequestAfterLastTransferCmd) for ADC_DMARequestAfterLastTransferCmd
    adc.o(i.ADC_DMA_Init) refers to stm32f4xx_adc.o(i.ADC_DMACmd) for ADC_DMACmd
    adc.o(i.ADC_DMA_Init) refers to stm32f4xx_adc.o(i.ADC_SoftwareStartConv) for ADC_SoftwareStartConv
    adc.o(i.ADC_DMA_Init) refers to adc.o(.bss) for .bss
    adc.o(i.ADC_DMA_Init) refers to adc.o(.data) for .data
    adc.o(i.ADC_DMA_Register) refers to adc.o(.data) for .data
    adc.o(i.ADC_DMA_Register) refers to adc.o(.bss) for .bss
    adc.o(i.ADCx_Init) refers to stm32f4xx_rcc.o(i.RCC_APB2PeriphResetCmd) for RCC_APB2PeriphResetCmd
    adc.o(i.ADCx_Init) refers to stm32f4xx_rcc.o(i.RCC_APB2PeriphClockCmd) for RCC_APB2PeriphClockCmd
    adc.o(i.ADCx_Init) refers to stm32f4xx_adc.o(i.ADC_CommonInit) for ADC_CommonInit
    adc.o(i.ADCx_Init) refers to stm32f4xx_adc.o(i.ADC_Init) for ADC_Init
    adc.o(i.ADCx_Init) refers to stm32f4xx_adc.o(i.ADC_Cmd) for ADC_Cmd
    adc.o(i.Get_ADC) refers to stm32f4xx_adc.o(i.ADC_RegularChannelConfig) for ADC_RegularChannelConfig
    adc.o(i.Get_ADC) refers to stm32f4xx_adc.o(i.ADC_SoftwareStartConv) for ADC_SoftwareStartConv
    adc.o(i.Get_ADC) refers to stm32f4xx_adc.o(i.ADC_GetFlagStatus) for ADC_GetFlagStatus
    adc.o(i.Get_ADC) refers to stm32f4xx_adc.o(i.ADC_GetConversionValue) for ADC_GetConversionValue
    delay.o(i.Delay_Init) refers to system_stm32f4xx.o(i.SystemCoreClockUpdate) for SystemCoreClockUpdate
    delay.o(i.Delay_Init) refers to system_stm32f4xx.o(.data) for SystemCoreClock
    delay.o(i.delay_ms) refers to delay.o(.data) for .data
    delay.o(i.delay_us) refers to system_stm32f4xx.o(.data) for SystemCoreClock
    delay.o(i.micros) refers to system_stm32f4xx.o(.data) for SystemCoreClock
    delay.o(i.micros) refers to delay.o(.data) for .data
    delay.o(i.millis) refers to delay.o(.data) for .data
    delay.o(i.vApplicationTickHook) refers to delay.o(.data) for .data
    exti.o(i.EXTI0_IRQHandler) refers to stm32f4xx_exti.o(i.EXTI_GetITStatus) for EXTI_GetITStatus
    exti.o(i.EXTI0_IRQHandler) refers to stm32f4xx_exti.o(i.EXTI_ClearITPendingBit) for EXTI_ClearITPendingBit
    exti.o(i.EXTI0_IRQHandler) refers to exti.o(.bss) for .bss
    exti.o(i.EXTI15_10_IRQHandler) refers to stm32f4xx_exti.o(i.EXTI_GetITStatus) for EXTI_GetITStatus
    exti.o(i.EXTI15_10_IRQHandler) refers to stm32f4xx_exti.o(i.EXTI_ClearITPendingBit) for EXTI_ClearITPendingBit
    exti.o(i.EXTI15_10_IRQHandler) refers to exti.o(.bss) for .bss
    exti.o(i.EXTI1_IRQHandler) refers to stm32f4xx_exti.o(i.EXTI_GetITStatus) for EXTI_GetITStatus
    exti.o(i.EXTI1_IRQHandler) refers to stm32f4xx_exti.o(i.EXTI_ClearITPendingBit) for EXTI_ClearITPendingBit
    exti.o(i.EXTI1_IRQHandler) refers to exti.o(.bss) for .bss
    exti.o(i.EXTI2_IRQHandler) refers to stm32f4xx_exti.o(i.EXTI_GetITStatus) for EXTI_GetITStatus
    exti.o(i.EXTI2_IRQHandler) refers to stm32f4xx_exti.o(i.EXTI_ClearITPendingBit) for EXTI_ClearITPendingBit
    exti.o(i.EXTI2_IRQHandler) refers to exti.o(.bss) for .bss
    exti.o(i.EXTI3_IRQHandler) refers to stm32f4xx_exti.o(i.EXTI_GetITStatus) for EXTI_GetITStatus
    exti.o(i.EXTI3_IRQHandler) refers to stm32f4xx_exti.o(i.EXTI_ClearITPendingBit) for EXTI_ClearITPendingBit
    exti.o(i.EXTI3_IRQHandler) refers to exti.o(.bss) for .bss
    exti.o(i.EXTI4_IRQHandler) refers to stm32f4xx_exti.o(i.EXTI_GetITStatus) for EXTI_GetITStatus
    exti.o(i.EXTI4_IRQHandler) refers to stm32f4xx_exti.o(i.EXTI_ClearITPendingBit) for EXTI_ClearITPendingBit
    exti.o(i.EXTI4_IRQHandler) refers to exti.o(.bss) for .bss
    exti.o(i.EXTI9_5_IRQHandler) refers to stm32f4xx_exti.o(i.EXTI_GetITStatus) for EXTI_GetITStatus
    exti.o(i.EXTI9_5_IRQHandler) refers to stm32f4xx_exti.o(i.EXTI_ClearITPendingBit) for EXTI_ClearITPendingBit
    exti.o(i.EXTI9_5_IRQHandler) refers to exti.o(.bss) for .bss
    exti.o(i.EXTIx_Init) refers to gpio.o(i.Get_Pinx) for Get_Pinx
    exti.o(i.EXTIx_Init) refers to stm32f4xx_rcc.o(i.RCC_APB2PeriphClockCmd) for RCC_APB2PeriphClockCmd
    exti.o(i.EXTIx_Init) refers to gpio.o(i.Get_GPIOx) for Get_GPIOx
    exti.o(i.EXTIx_Init) refers to stm32f4xx_syscfg.o(i.SYSCFG_EXTILineConfig) for SYSCFG_EXTILineConfig
    exti.o(i.EXTIx_Init) refers to stm32f4xx_exti.o(i.EXTI_Init) for EXTI_Init
    exti.o(i.EXTIx_Init) refers to misc.o(i.NVIC_Init) for NVIC_Init
    exti.o(i.EXTIx_Init) refers to exti.o(.bss) for .bss
    exti.o(i.attachInterrupt) refers to gpio.o(i.Get_Pinx) for Get_Pinx
    exti.o(i.attachInterrupt) refers to stm32f4xx_rcc.o(i.RCC_APB2PeriphClockCmd) for RCC_APB2PeriphClockCmd
    exti.o(i.attachInterrupt) refers to gpio.o(i.Get_GPIOx) for Get_GPIOx
    exti.o(i.attachInterrupt) refers to stm32f4xx_syscfg.o(i.SYSCFG_EXTILineConfig) for SYSCFG_EXTILineConfig
    exti.o(i.attachInterrupt) refers to stm32f4xx_exti.o(i.EXTI_Init) for EXTI_Init
    exti.o(i.attachInterrupt) refers to misc.o(i.NVIC_Init) for NVIC_Init
    exti.o(i.attachInterrupt) refers to exti.o(.bss) for .bss
    exti.o(i.detachInterrupt) refers to gpio.o(i.Get_Pinx) for Get_Pinx
    exti.o(i.detachInterrupt) refers to stm32f4xx_rcc.o(i.RCC_APB2PeriphClockCmd) for RCC_APB2PeriphClockCmd
    exti.o(i.detachInterrupt) refers to gpio.o(i.Get_GPIOx) for Get_GPIOx
    exti.o(i.detachInterrupt) refers to stm32f4xx_syscfg.o(i.SYSCFG_EXTILineConfig) for SYSCFG_EXTILineConfig
    exti.o(i.detachInterrupt) refers to stm32f4xx_exti.o(i.EXTI_Init) for EXTI_Init
    gpio.o(i.GPIOx_Init) refers to stm32f4xx_rcc.o(i.RCC_AHB1PeriphClockCmd) for RCC_AHB1PeriphClockCmd
    gpio.o(i.GPIOx_Init) refers to stm32f4xx_gpio.o(i.GPIO_Init) for GPIO_Init
    gpio.o(i.Get_GPIOx) refers to gpio.o(.constdata) for .constdata
    gpio.o(i.Get_Pinx) refers to gpio.o(.constdata) for .constdata
    pwm.o(i.Get_TIMx_GPIO_AF_x) refers to gpio.o(.constdata) for PIN_MAP
    pwm.o(i.PWM_Init) refers to arduino.o(i.pinMode) for pinMode
    pwm.o(i.PWM_Init) refers to gpio.o(i.Get_Pinx) for Get_Pinx
    pwm.o(i.PWM_Init) refers to stm32f4xx_gpio.o(i.GPIO_PinAFConfig) for GPIO_PinAFConfig
    pwm.o(i.PWM_Init) refers to stm32f4xx_tim.o(i.TIM_Cmd) for TIM_Cmd
    pwm.o(i.PWM_Init) refers to pwm.o(i.TIMx_OCxInit) for TIMx_OCxInit
    pwm.o(i.PWM_Init) refers to gpio.o(.constdata) for PIN_MAP
    pwm.o(i.PWM_Init) refers to system_stm32f4xx.o(.data) for SystemCoreClock
    pwm.o(i.TIMx_OCxInit) refers to timer.o(i.TimerClockCmd) for TimerClockCmd
    pwm.o(i.TIMx_OCxInit) refers to stm32f4xx_tim.o(i.TIM_TimeBaseInit) for TIM_TimeBaseInit
    pwm.o(i.TIMx_OCxInit) refers to stm32f4xx_tim.o(i.TIM_OC1Init) for TIM_OC1Init
    pwm.o(i.TIMx_OCxInit) refers to stm32f4xx_tim.o(i.TIM_OC1PreloadConfig) for TIM_OC1PreloadConfig
    pwm.o(i.TIMx_OCxInit) refers to stm32f4xx_tim.o(i.TIM_OC2Init) for TIM_OC2Init
    pwm.o(i.TIMx_OCxInit) refers to stm32f4xx_tim.o(i.TIM_OC2PreloadConfig) for TIM_OC2PreloadConfig
    pwm.o(i.TIMx_OCxInit) refers to stm32f4xx_tim.o(i.TIM_OC3Init) for TIM_OC3Init
    pwm.o(i.TIMx_OCxInit) refers to stm32f4xx_tim.o(i.TIM_OC3PreloadConfig) for TIM_OC3PreloadConfig
    pwm.o(i.TIMx_OCxInit) refers to stm32f4xx_tim.o(i.TIM_OC4Init) for TIM_OC4Init
    pwm.o(i.TIMx_OCxInit) refers to stm32f4xx_tim.o(i.TIM_OC4PreloadConfig) for TIM_OC4PreloadConfig
    pwm.o(i.TIMx_OCxInit) refers to stm32f4xx_tim.o(i.TIM_Cmd) for TIM_Cmd
    pwm.o(i.TIMx_OCxInit) refers to stm32f4xx_tim.o(i.TIM_CtrlPWMOutputs) for TIM_CtrlPWMOutputs
    pwm.o(i.pwmWrite) refers to gpio.o(.constdata) for PIN_MAP
    rng.o(i.RNG_GetRandNum) refers to stm32f4xx_rcc.o(i.RCC_AHB2PeriphClockCmd) for RCC_AHB2PeriphClockCmd
    rng.o(i.RNG_GetRandNum) refers to stm32f4xx_rng.o(i.RNG_Cmd) for RNG_Cmd
    rng.o(i.RNG_GetRandNum) refers to stm32f4xx_rng.o(i.RNG_GetFlagStatus) for RNG_GetFlagStatus
    rng.o(i.RNG_GetRandNum) refers to stm32f4xx_rng.o(i.RNG_GetRandomNumber) for RNG_GetRandomNumber
    rng.o(i.RNG_GetRandNum) refers to rng.o(.data) for .data
    timer.o(i.TIM1_UP_TIM10_IRQHandler) refers to stm32f4xx_tim.o(i.TIM_GetITStatus) for TIM_GetITStatus
    timer.o(i.TIM1_UP_TIM10_IRQHandler) refers to stm32f4xx_tim.o(i.TIM_ClearITPendingBit) for TIM_ClearITPendingBit
    timer.o(i.TIM1_UP_TIM10_IRQHandler) refers to timer.o(.bss) for .bss
    timer.o(i.TIM2_IRQHandler) refers to stm32f4xx_tim.o(i.TIM_GetITStatus) for TIM_GetITStatus
    timer.o(i.TIM2_IRQHandler) refers to stm32f4xx_tim.o(i.TIM_ClearITPendingBit) for TIM_ClearITPendingBit
    timer.o(i.TIM2_IRQHandler) refers to timer.o(.bss) for .bss
    timer.o(i.TIM3_IRQHandler) refers to stm32f4xx_tim.o(i.TIM_GetITStatus) for TIM_GetITStatus
    timer.o(i.TIM3_IRQHandler) refers to stm32f4xx_tim.o(i.TIM_ClearITPendingBit) for TIM_ClearITPendingBit
    timer.o(i.TIM3_IRQHandler) refers to timer.o(.bss) for .bss
    timer.o(i.TIM4_IRQHandler) refers to stm32f4xx_tim.o(i.TIM_GetITStatus) for TIM_GetITStatus
    timer.o(i.TIM4_IRQHandler) refers to stm32f4xx_tim.o(i.TIM_ClearITPendingBit) for TIM_ClearITPendingBit
    timer.o(i.TIM4_IRQHandler) refers to timer.o(.bss) for .bss
    timer.o(i.TIM5_IRQHandler) refers to stm32f4xx_tim.o(i.TIM_GetITStatus) for TIM_GetITStatus
    timer.o(i.TIM5_IRQHandler) refers to stm32f4xx_tim.o(i.TIM_ClearITPendingBit) for TIM_ClearITPendingBit
    timer.o(i.TIM5_IRQHandler) refers to timer.o(.bss) for .bss
    timer.o(i.TIM6_IRQHandler) refers to stm32f4xx_tim.o(i.TIM_GetITStatus) for TIM_GetITStatus
    timer.o(i.TIM6_IRQHandler) refers to stm32f4xx_tim.o(i.TIM_ClearITPendingBit) for TIM_ClearITPendingBit
    timer.o(i.TIM6_IRQHandler) refers to timer.o(.bss) for .bss
    timer.o(i.TIM7_IRQHandler) refers to stm32f4xx_tim.o(i.TIM_GetITStatus) for TIM_GetITStatus
    timer.o(i.TIM7_IRQHandler) refers to stm32f4xx_tim.o(i.TIM_ClearITPendingBit) for TIM_ClearITPendingBit
    timer.o(i.TIM7_IRQHandler) refers to timer.o(.bss) for .bss
    timer.o(i.TIM8_UP_TIM13_IRQHandler) refers to stm32f4xx_tim.o(i.TIM_GetITStatus) for TIM_GetITStatus
    timer.o(i.TIM8_UP_TIM13_IRQHandler) refers to stm32f4xx_tim.o(i.TIM_ClearITPendingBit) for TIM_ClearITPendingBit
    timer.o(i.TIM8_UP_TIM13_IRQHandler) refers to timer.o(.bss) for .bss
    timer.o(i.TimerClockCmd) refers to stm32f4xx_rcc.o(i.RCC_APB1PeriphClockCmd) for RCC_APB1PeriphClockCmd
    timer.o(i.TimerClockCmd) refers to stm32f4xx_rcc.o(i.RCC_APB2PeriphClockCmd) for RCC_APB2PeriphClockCmd
    timer.o(i.TimerSet) refers to timer.o(i.Timer_Init) for Timer_Init
    timer.o(i.TimerSet_InterruptTimeUpdate) refers to system_stm32f4xx.o(.data) for SystemCoreClock
    timer.o(i.Timer_Init) refers to stm32f4xx_tim.o(i.TIM_DeInit) for TIM_DeInit
    timer.o(i.Timer_Init) refers to timer.o(i.TimerClockCmd) for TimerClockCmd
    timer.o(i.Timer_Init) refers to stm32f4xx_tim.o(i.TIM_TimeBaseInit) for TIM_TimeBaseInit
    timer.o(i.Timer_Init) refers to misc.o(i.NVIC_Init) for NVIC_Init
    timer.o(i.Timer_Init) refers to stm32f4xx_tim.o(i.TIM_ClearFlag) for TIM_ClearFlag
    timer.o(i.Timer_Init) refers to stm32f4xx_tim.o(i.TIM_ITConfig) for TIM_ITConfig
    timer.o(i.Timer_Init) refers to timer.o(.bss) for .bss
    timer.o(i.Timer_Init) refers to system_stm32f4xx.o(.data) for SystemCoreClock
    main.o(i._Z5setupv) refers to hardwareserial.o(i._ZN14HardwareSerial5beginEj) for HardwareSerial::begin(unsigned)
    main.o(i._Z5setupv) refers to tasks.o(i.xTaskCreate) for xTaskCreate
    main.o(i._Z5setupv) refers to tasks.o(i.vTaskStartScheduler) for vTaskStartScheduler
    main.o(i._Z5setupv) refers to hardwareserial.o(.bss) for Serial
    main.o(i._Z5setupv) refers to displaybasic.o(i._Z12Task_DispalyPv) for Task_Dispaly(void*)
    main.o(i._Z5setupv) refers to luabasic.o(.data) for TaskHandle_LuaScript
    main.o(i._Z5setupv) refers to luabasic.o(i._Z14Task_LuaScriptPv) for Task_LuaScript(void*)
    main.o(i.main) refers to misc.o(i.NVIC_PriorityGroupConfig) for NVIC_PriorityGroupConfig
    main.o(i.main) refers to delay.o(i.Delay_Init) for Delay_Init
    main.o(i.main) refers to adc.o(i.ADCx_Init) for ADCx_Init
    main.o(i.main) refers to hardwareserial.o(i._ZN14HardwareSerial5beginEj) for HardwareSerial::begin(unsigned)
    main.o(i.main) refers to tasks.o(i.xTaskCreate) for xTaskCreate
    main.o(i.main) refers to tasks.o(i.vTaskStartScheduler) for vTaskStartScheduler
    main.o(i.main) refers to hardwareserial.o(.bss) for Serial
    main.o(i.main) refers to main.o(i._Z5setupv) for i._Z5setupv
    main.o(i.main) refers to displaybasic.o(i._Z12Task_DispalyPv) for Task_Dispaly(void*)
    main.o(i.main) refers to luabasic.o(.data) for TaskHandle_LuaScript
    main.o(i.main) refers to luabasic.o(i._Z14Task_LuaScriptPv) for Task_LuaScript(void*)
    main.o(.ARM.exidx) refers to main.o(i._Z5setupv) for i._Z5setupv
    main.o(.ARM.exidx) refers to main.o(i._Z4loopv) for i._Z4loopv
    main.o(.ARM.exidx) refers to main.o(i.main) for i.main
    combasic.o(i._Z17Task_TransferDataPv) refers to nrf.o(i._ZN3NRF12TranRecvSafeEPhS0_) for NRF::TranRecvSafe(unsigned char*, unsigned char*)
    combasic.o(i._Z17Task_TransferDataPv) refers to nrf.o(i._ZN3NRF4TranEPh) for NRF::Tran(unsigned char*)
    combasic.o(i._Z17Task_TransferDataPv) refers to combasic.o(.data) for .data
    combasic.o(i._Z17Task_TransferDataPv) refers to combasic.o(.bss) for .bss
    combasic.o(i._Z30AddUserCustomPassBack_CallbackPFvPhE) refers to combasic.o(.bss) for .bss
    combasic.o(i._Z30AddUserCustomPassBack_CallbackPFvPhE) refers to combasic.o(.data) for .data
    combasic.o(i._Z30SetUserCustomDataPack_CallbackPFvPhE) refers to combasic.o(.data) for .data
    combasic.o(i._Z8Init_NRFv) refers to nrf.o(i._ZN3NRF4initENS_16NRF_Mode_TypeDefEPhhh) for NRF::init(NRF::NRF_Mode_TypeDef, unsigned char*, unsigned char, unsigned char)
    combasic.o(i._Z8Init_NRFv) refers to nrf.o(i._ZN3NRF10SetAddressEPh) for NRF::SetAddress(unsigned char*)
    combasic.o(i._Z8Init_NRFv) refers to nrf.o(i._ZN3NRF11SetFreqencyEh) for NRF::SetFreqency(unsigned char)
    combasic.o(i._Z8Init_NRFv) refers to nrf.o(i._ZN3NRF8SetSpeedENS_17NRF_Speed_TypeDefE) for NRF::SetSpeed(NRF::NRF_Speed_TypeDef)
    combasic.o(i._Z8Init_NRFv) refers to nrf.o(i._ZN3NRF8IsDetectEv) for NRF::IsDetect()
    combasic.o(i._Z8Init_NRFv) refers to combasic.o(.bss) for .bss
    combasic.o(i._Z8Init_NRFv) refers to combasic.o(.data) for .data
    combasic.o(i.__sti___12_ComBasic_cpp_nrf) refers to nrf.o(i._ZN3NRFC1Ehhhhh) for NRF::NRF(unsigned char, unsigned char, unsigned char, unsigned char, unsigned char)
    combasic.o(i.__sti___12_ComBasic_cpp_nrf) refers to combasic.o(.bss) for .bss
    combasic.o(.ARM.exidx) refers to combasic.o(i._Z8Init_NRFv) for i._Z8Init_NRFv
    combasic.o(.ARM.exidx) refers to combasic.o(i._Z30SetUserCustomDataPack_CallbackPFvPhE) for i._Z30SetUserCustomDataPack_CallbackPFvPhE
    combasic.o(.ARM.exidx) refers to combasic.o(i._Z30AddUserCustomPassBack_CallbackPFvPhE) for i._Z30AddUserCustomPassBack_CallbackPFvPhE
    combasic.o(.ARM.exidx) refers to combasic.o(i._Z17Task_TransferDataPv) for i._Z17Task_TransferDataPv
    combasic.o(.ARM.exidx) refers to combasic.o(i.__sti___12_ComBasic_cpp_nrf) for i.__sti___12_ComBasic_cpp_nrf
    combasic.o(.init_array) refers to combasic.o(i.__sti___12_ComBasic_cpp_nrf) for __sti___12_ComBasic_cpp_nrf
    combasic.o(.init_array) refers to cpp_init.o(.text) for __cpp_initialize__aeabi_
    comhandshake.o(i._Z12HandshakeRunhhh) refers to memseta.o(.text) for __aeabi_memclr
    comhandshake.o(i._Z12HandshakeRunhhh) refers to nrf.o(i._ZN3NRF10SetAddressEhhhhh) for NRF::SetAddress(unsigned char, unsigned char, unsigned char, unsigned char, unsigned char)
    comhandshake.o(i._Z12HandshakeRunhhh) refers to nrf.o(i._ZN3NRF11SetFreqencyEh) for NRF::SetFreqency(unsigned char)
    comhandshake.o(i._Z12HandshakeRunhhh) refers to nrf.o(i._ZN3NRF8SetSpeedENS_17NRF_Speed_TypeDefE) for NRF::SetSpeed(NRF::NRF_Speed_TypeDef)
    comhandshake.o(i._Z12HandshakeRunhhh) refers to delay.o(i.micros) for micros
    comhandshake.o(i._Z12HandshakeRunhhh) refers to wmath.o(i._Z10randomSeedm) for randomSeed(unsigned long)
    comhandshake.o(i._Z12HandshakeRunhhh) refers to wmath.o(i._Z6randomll) for random(long, long)
    comhandshake.o(i._Z12HandshakeRunhhh) refers to delay.o(i.millis) for millis
    comhandshake.o(i._Z12HandshakeRunhhh) refers to nrf.o(i._ZN3NRF8TranRecvEPhS0_) for NRF::TranRecv(unsigned char*, unsigned char*)
    comhandshake.o(i._Z12HandshakeRunhhh) refers to memmovea.o(.text) for __aeabi_memcpy
    comhandshake.o(i._Z12HandshakeRunhhh) refers to comhandshake.o(i.__ARM_common_memcpy4_5) for __ARM_common_memcpy4_5
    comhandshake.o(i._Z12HandshakeRunhhh) refers to nrf.o(i._ZN3NRF10SetAddressEPh) for NRF::SetAddress(unsigned char*)
    comhandshake.o(i._Z12HandshakeRunhhh) refers to comhandshake.o(.data) for .data
    comhandshake.o(i._Z12HandshakeRunhhh) refers to comhandshake.o(.bss) for .bss
    comhandshake.o(i._Z12HandshakeRunhhh) refers to combasic.o(.data) for NRF_Cfg
    comhandshake.o(i._Z12HandshakeRunhhh) refers to combasic.o(.bss) for NRF_RxBuff
    comhandshake.o(.ARM.exidx) refers to comhandshake.o(i._Z12HandshakeRunhhh) for i._Z12HandshakeRunhhh
    lv_disp.o(i.lv_disp_assign_screen) refers to lv_obj.o(i.lv_obj_get_parent) for lv_obj_get_parent
    lv_disp.o(i.lv_disp_assign_screen) refers to lv_obj.o(i.lv_obj_get_disp) for lv_obj_get_disp
    lv_disp.o(i.lv_disp_assign_screen) refers to lv_ll.o(i.lv_ll_chg_list) for lv_ll_chg_list
    lv_disp.o(i.lv_disp_get_inactive_time) refers to lv_hal_disp.o(i.lv_disp_get_default) for lv_disp_get_default
    lv_disp.o(i.lv_disp_get_inactive_time) refers to lv_hal_tick.o(i.lv_tick_elaps) for lv_tick_elaps
    lv_disp.o(i.lv_disp_get_layer_sys) refers to lv_hal_disp.o(i.lv_disp_get_default) for lv_disp_get_default
    lv_disp.o(i.lv_disp_get_layer_top) refers to lv_hal_disp.o(i.lv_disp_get_default) for lv_disp_get_default
    lv_disp.o(i.lv_disp_get_refr_task) refers to lv_hal_disp.o(i.lv_disp_get_default) for lv_disp_get_default
    lv_disp.o(i.lv_disp_get_scr_act) refers to lv_hal_disp.o(i.lv_disp_get_default) for lv_disp_get_default
    lv_disp.o(i.lv_disp_load_scr) refers to lv_obj.o(i.lv_obj_get_disp) for lv_obj_get_disp
    lv_disp.o(i.lv_disp_load_scr) refers to lv_obj.o(i.lv_obj_invalidate) for lv_obj_invalidate
    lv_disp.o(i.lv_disp_trig_activity) refers to lv_hal_disp.o(i.lv_disp_get_default) for lv_disp_get_default
    lv_disp.o(i.lv_disp_trig_activity) refers to lv_hal_tick.o(i.lv_tick_get) for lv_tick_get
    lv_group.o(i.focus_next_core) refers to lv_obj.o(i.lv_obj_get_hidden) for lv_obj_get_hidden
    lv_group.o(i.focus_next_core) refers to lv_obj.o(i.lv_event_send) for lv_event_send
    lv_group.o(i.focus_next_core) refers to lv_obj.o(i.lv_obj_invalidate) for lv_obj_invalidate
    lv_group.o(i.focus_next_core) refers to lv_obj.o(i.lv_obj_get_parent) for lv_obj_get_parent
    lv_group.o(i.focus_next_core) refers to lv_obj.o(i.lv_obj_move_foreground) for lv_obj_move_foreground
    lv_group.o(i.lv_group_add_obj) refers to lv_ll.o(i.lv_ll_get_head) for lv_ll_get_head
    lv_group.o(i.lv_group_add_obj) refers to lv_ll.o(i.lv_ll_get_next) for lv_ll_get_next
    lv_group.o(i.lv_group_add_obj) refers to lv_obj.o(i.lv_obj_is_focused) for lv_obj_is_focused
    lv_group.o(i.lv_group_add_obj) refers to lv_group.o(i.focus_next_core) for focus_next_core
    lv_group.o(i.lv_group_add_obj) refers to lv_ll.o(i.lv_ll_ins_tail) for lv_ll_ins_tail
    lv_group.o(i.lv_group_add_obj) refers to lv_ll.o(i.lv_ll_get_prev) for lv_ll_get_prev
    lv_group.o(i.lv_group_add_obj) refers to lv_ll.o(i.lv_ll_get_tail) for lv_ll_get_tail
    lv_group.o(i.lv_group_create) refers to lv_ll.o(i.lv_ll_ins_head) for lv_ll_ins_head
    lv_group.o(i.lv_group_create) refers to lv_ll.o(i.lv_ll_init) for lv_ll_init
    lv_group.o(i.lv_group_create) refers to lv_theme.o(i.lv_theme_get_current) for lv_theme_get_current
    lv_group.o(i.lv_group_create) refers to lv_gc.o(.bss) for _lv_group_ll
    lv_group.o(i.lv_group_create) refers to lv_group.o(i.style_mod_def) for style_mod_def
    lv_group.o(i.lv_group_create) refers to lv_group.o(i.style_mod_edit_def) for style_mod_edit_def
    lv_group.o(i.lv_group_del) refers to lv_obj.o(i.lv_obj_invalidate) for lv_obj_invalidate
    lv_group.o(i.lv_group_del) refers to lv_ll.o(i.lv_ll_get_head) for lv_ll_get_head
    lv_group.o(i.lv_group_del) refers to lv_ll.o(i.lv_ll_get_next) for lv_ll_get_next
    lv_group.o(i.lv_group_del) refers to lv_ll.o(i.lv_ll_clear) for lv_ll_clear
    lv_group.o(i.lv_group_del) refers to lv_ll.o(i.lv_ll_rem) for lv_ll_rem
    lv_group.o(i.lv_group_del) refers to lv_mem.o(i.lv_mem_free) for lv_mem_free
    lv_group.o(i.lv_group_del) refers to lv_gc.o(.bss) for _lv_group_ll
    lv_group.o(i.lv_group_focus_next) refers to lv_group.o(i.focus_next_core) for focus_next_core
    lv_group.o(i.lv_group_focus_next) refers to lv_ll.o(i.lv_ll_get_next) for lv_ll_get_next
    lv_group.o(i.lv_group_focus_next) refers to lv_ll.o(i.lv_ll_get_head) for lv_ll_get_head
    lv_group.o(i.lv_group_focus_obj) refers to lv_obj.o(i.lv_event_send) for lv_event_send
    lv_group.o(i.lv_group_focus_obj) refers to lv_obj.o(i.lv_obj_invalidate) for lv_obj_invalidate
    lv_group.o(i.lv_group_focus_obj) refers to lv_ll.o(i.lv_ll_get_head) for lv_ll_get_head
    lv_group.o(i.lv_group_focus_obj) refers to lv_obj.o(i.lv_obj_get_parent) for lv_obj_get_parent
    lv_group.o(i.lv_group_focus_obj) refers to lv_obj.o(i.lv_obj_move_foreground) for lv_obj_move_foreground
    lv_group.o(i.lv_group_focus_obj) refers to lv_ll.o(i.lv_ll_get_next) for lv_ll_get_next
    lv_group.o(i.lv_group_focus_prev) refers to lv_group.o(i.focus_next_core) for focus_next_core
    lv_group.o(i.lv_group_focus_prev) refers to lv_ll.o(i.lv_ll_get_prev) for lv_ll_get_prev
    lv_group.o(i.lv_group_focus_prev) refers to lv_ll.o(i.lv_ll_get_tail) for lv_ll_get_tail
    lv_group.o(i.lv_group_init) refers to lv_ll.o(i.lv_ll_init) for lv_ll_init
    lv_group.o(i.lv_group_init) refers to lv_gc.o(.bss) for _lv_group_ll
    lv_group.o(i.lv_group_mod_style) refers to lv_style.o(i.lv_style_copy) for lv_style_copy
    lv_group.o(i.lv_group_remove_all_objs) refers to lv_obj.o(i.lv_obj_invalidate) for lv_obj_invalidate
    lv_group.o(i.lv_group_remove_all_objs) refers to lv_ll.o(i.lv_ll_get_head) for lv_ll_get_head
    lv_group.o(i.lv_group_remove_all_objs) refers to lv_ll.o(i.lv_ll_get_next) for lv_ll_get_next
    lv_group.o(i.lv_group_remove_all_objs) refers to lv_ll.o(i.lv_ll_clear) for lv_ll_clear
    lv_group.o(i.lv_group_remove_obj) refers to lv_ll.o(i.lv_ll_get_head) for lv_ll_get_head
    lv_group.o(i.lv_group_remove_obj) refers to lv_ll.o(i.lv_ll_get_tail) for lv_ll_get_tail
    lv_group.o(i.lv_group_remove_obj) refers to lv_ll.o(i.lv_ll_rem) for lv_ll_rem
    lv_group.o(i.lv_group_remove_obj) refers to lv_mem.o(i.lv_mem_free) for lv_mem_free
    lv_group.o(i.lv_group_remove_obj) refers to lv_group.o(i.focus_next_core) for focus_next_core
    lv_group.o(i.lv_group_remove_obj) refers to lv_ll.o(i.lv_ll_get_next) for lv_ll_get_next
    lv_group.o(i.lv_group_remove_obj) refers to lv_ll.o(i.lv_ll_get_prev) for lv_ll_get_prev
    lv_group.o(i.lv_group_report_style_mod) refers to lv_theme.o(i.lv_theme_get_current) for lv_theme_get_current
    lv_group.o(i.lv_group_report_style_mod) refers to lv_ll.o(i.lv_ll_get_head) for lv_ll_get_head
    lv_group.o(i.lv_group_report_style_mod) refers to lv_ll.o(i.lv_ll_get_next) for lv_ll_get_next
    lv_group.o(i.lv_group_report_style_mod) refers to lv_group.o(i.style_mod_def) for style_mod_def
    lv_group.o(i.lv_group_report_style_mod) refers to lv_group.o(i.style_mod_edit_def) for style_mod_edit_def
    lv_group.o(i.lv_group_report_style_mod) refers to lv_gc.o(.bss) for _lv_group_ll
    lv_group.o(i.lv_group_send_data) refers to lv_obj.o(i.lv_event_send) for lv_event_send
    lv_group.o(i.lv_group_set_editing) refers to lv_obj.o(i.lv_event_send) for lv_event_send
    lv_group.o(i.lv_group_set_editing) refers to lv_obj.o(i.lv_obj_invalidate) for lv_obj_invalidate
    lv_group.o(i.lv_group_set_style_mod_cb) refers to lv_obj.o(i.lv_obj_invalidate) for lv_obj_invalidate
    lv_group.o(i.lv_group_set_style_mod_edit_cb) refers to lv_obj.o(i.lv_obj_invalidate) for lv_obj_invalidate
    lv_group.o(i.style_mod_def) refers to lv_group.o(i.lv_color_mix) for lv_color_mix
    lv_group.o(i.style_mod_edit_def) refers to lv_group.o(i.lv_color_mix) for lv_color_mix
    lv_indev.o(i.indev_proc_press) refers to lv_disp.o(i.lv_disp_get_layer_sys) for lv_disp_get_layer_sys
    lv_indev.o(i.indev_proc_press) refers to lv_indev.o(i.indev_search_obj) for indev_search_obj
    lv_indev.o(i.indev_proc_press) refers to lv_disp.o(i.lv_disp_get_layer_top) for lv_disp_get_layer_top
    lv_indev.o(i.indev_proc_press) refers to lv_obj.o(i.lv_obj_is_protected) for lv_obj_is_protected
    lv_indev.o(i.indev_proc_press) refers to lv_disp.o(i.lv_disp_get_scr_act) for lv_disp_get_scr_act
    lv_indev.o(i.indev_proc_press) refers to lv_obj.o(i.lv_event_send) for lv_event_send
    lv_indev.o(i.indev_proc_press) refers to lv_hal_tick.o(i.lv_tick_get) for lv_tick_get
    lv_indev.o(i.indev_proc_press) refers to lv_obj.o(i.lv_obj_get_parent) for lv_obj_get_parent
    lv_indev.o(i.indev_proc_press) refers to lv_obj.o(i.lv_obj_move_foreground) for lv_obj_move_foreground
    lv_indev.o(i.indev_proc_press) refers to lv_obj.o(i.lv_obj_get_drag_parent) for lv_obj_get_drag_parent
    lv_indev.o(i.indev_proc_press) refers to lv_obj.o(i.lv_obj_get_drag) for lv_obj_get_drag
    lv_indev.o(i.indev_proc_press) refers to lv_obj.o(i.lv_obj_get_drag_dir) for lv_obj_get_drag_dir
    lv_indev.o(i.indev_proc_press) refers to lv_hal_disp.o(i.lv_disp_get_inv_buf_size) for lv_disp_get_inv_buf_size
    lv_indev.o(i.indev_proc_press) refers to lv_obj.o(i.lv_obj_get_width) for lv_obj_get_width
    lv_indev.o(i.indev_proc_press) refers to lv_obj.o(i.lv_obj_get_height) for lv_obj_get_height
    lv_indev.o(i.indev_proc_press) refers to lv_obj.o(i.lv_obj_get_x) for lv_obj_get_x
    lv_indev.o(i.indev_proc_press) refers to lv_obj.o(i.lv_obj_get_y) for lv_obj_get_y
    lv_indev.o(i.indev_proc_press) refers to lv_obj.o(i.lv_obj_set_x) for lv_obj_set_x
    lv_indev.o(i.indev_proc_press) refers to lv_obj.o(i.lv_obj_set_pos) for lv_obj_set_pos
    lv_indev.o(i.indev_proc_press) refers to lv_obj.o(i.lv_obj_set_y) for lv_obj_set_y
    lv_indev.o(i.indev_proc_press) refers to lv_hal_disp.o(i.lv_disp_pop_from_inv_buf) for lv_disp_pop_from_inv_buf
    lv_indev.o(i.indev_proc_press) refers to lv_indev.o(.data) for .data
    lv_indev.o(i.indev_proc_press) refers to lv_hal_tick.o(i.lv_tick_elaps) for lv_tick_elaps
    lv_indev.o(i.indev_proc_release) refers to lv_obj.o(i.lv_obj_is_protected) for lv_obj_is_protected
    lv_indev.o(i.indev_proc_release) refers to lv_obj.o(i.lv_event_send) for lv_event_send
    lv_indev.o(i.indev_proc_release) refers to lv_obj.o(i.lv_obj_get_group) for lv_obj_get_group
    lv_indev.o(i.indev_proc_release) refers to lv_group.o(i.lv_group_get_click_focus) for lv_group_get_click_focus
    lv_indev.o(i.indev_proc_release) refers to lv_group.o(i.lv_group_focus_obj) for lv_group_focus_obj
    lv_indev.o(i.indev_proc_release) refers to lv_obj.o(i.lv_obj_get_parent) for lv_obj_get_parent
    lv_indev.o(i.indev_proc_release) refers to lv_obj.o(i.lv_obj_get_drag_parent) for lv_obj_get_drag_parent
    lv_indev.o(i.indev_proc_release) refers to lv_obj.o(i.lv_obj_get_drag_throw) for lv_obj_get_drag_throw
    lv_indev.o(i.indev_proc_release) refers to lv_obj.o(i.lv_obj_get_drag_dir) for lv_obj_get_drag_dir
    lv_indev.o(i.indev_proc_release) refers to lv_obj.o(i.lv_obj_get_coords) for lv_obj_get_coords
    lv_indev.o(i.indev_proc_release) refers to lv_obj.o(i.lv_obj_get_x) for lv_obj_get_x
    lv_indev.o(i.indev_proc_release) refers to lv_obj.o(i.lv_obj_get_y) for lv_obj_get_y
    lv_indev.o(i.indev_proc_release) refers to lv_obj.o(i.lv_obj_set_x) for lv_obj_set_x
    lv_indev.o(i.indev_proc_release) refers to lv_obj.o(i.lv_obj_set_pos) for lv_obj_set_pos
    lv_indev.o(i.indev_proc_release) refers to lv_obj.o(i.lv_obj_set_y) for lv_obj_set_y
    lv_indev.o(i.indev_proc_release) refers to lv_indev.o(.data) for .data
    lv_indev.o(i.indev_search_obj) refers to lv_area.o(i.lv_area_is_point_on) for lv_area_is_point_on
    lv_indev.o(i.indev_search_obj) refers to lv_ll.o(i.lv_ll_get_head) for lv_ll_get_head
    lv_indev.o(i.indev_search_obj) refers to lv_ll.o(i.lv_ll_get_next) for lv_ll_get_next
    lv_indev.o(i.indev_search_obj) refers to lv_obj.o(i.lv_obj_get_click) for lv_obj_get_click
    lv_indev.o(i.indev_search_obj) refers to lv_obj.o(i.lv_obj_get_hidden) for lv_obj_get_hidden
    lv_indev.o(i.indev_search_obj) refers to lv_obj.o(i.lv_obj_get_parent) for lv_obj_get_parent
    lv_indev.o(i.lv_indev_get_act) refers to lv_indev.o(.data) for .data
    lv_indev.o(i.lv_indev_get_obj_act) refers to lv_indev.o(.data) for .data
    lv_indev.o(i.lv_indev_init) refers to lv_hal_indev.o(i.lv_indev_get_next) for lv_indev_get_next
    lv_indev.o(i.lv_indev_read_task) refers to lv_hal_indev.o(i.lv_indev_read) for lv_indev_read
    lv_indev.o(i.lv_indev_read_task) refers to lv_hal_tick.o(i.lv_tick_get) for lv_tick_get
    lv_indev.o(i.lv_indev_read_task) refers to lv_obj.o(i.lv_obj_set_pos) for lv_obj_set_pos
    lv_indev.o(i.lv_indev_read_task) refers to lv_indev.o(i.indev_proc_press) for indev_proc_press
    lv_indev.o(i.lv_indev_read_task) refers to lv_indev.o(i.indev_proc_release) for indev_proc_release
    lv_indev.o(i.lv_indev_read_task) refers to lv_group.o(i.lv_group_get_focused) for lv_group_get_focused
    lv_indev.o(i.lv_indev_read_task) refers to lv_group.o(i.lv_group_send_data) for lv_group_send_data
    lv_indev.o(i.lv_indev_read_task) refers to lv_obj.o(i.lv_event_send) for lv_event_send
    lv_indev.o(i.lv_indev_read_task) refers to lv_group.o(i.lv_group_set_editing) for lv_group_set_editing
    lv_indev.o(i.lv_indev_read_task) refers to lv_group.o(i.lv_group_focus_next) for lv_group_focus_next
    lv_indev.o(i.lv_indev_read_task) refers to lv_group.o(i.lv_group_focus_prev) for lv_group_focus_prev
    lv_indev.o(i.lv_indev_read_task) refers to lv_hal_tick.o(i.lv_tick_elaps) for lv_tick_elaps
    lv_indev.o(i.lv_indev_read_task) refers to lv_indev.o(.data) for .data
    lv_indev.o(i.lv_indev_read_task) refers to lv_group.o(i.lv_group_get_editing) for lv_group_get_editing
    lv_indev.o(i.lv_indev_read_task) refers to lv_ll.o(i.lv_ll_is_empty) for lv_ll_is_empty
    lv_indev.o(i.lv_indev_reset) refers to lv_hal_indev.o(i.lv_indev_get_next) for lv_indev_get_next
    lv_indev.o(i.lv_indev_reset_long_press) refers to lv_hal_tick.o(i.lv_tick_get) for lv_tick_get
    lv_indev.o(i.lv_indev_set_cursor) refers to lv_disp.o(i.lv_disp_get_layer_sys) for lv_disp_get_layer_sys
    lv_indev.o(i.lv_indev_set_cursor) refers to lv_obj.o(i.lv_obj_set_parent) for lv_obj_set_parent
    lv_indev.o(i.lv_indev_set_cursor) refers to lv_obj.o(i.lv_obj_set_pos) for lv_obj_set_pos
    lv_obj.o(i.delete_children) refers to lv_ll.o(i.lv_ll_get_head) for lv_ll_get_head
    lv_obj.o(i.delete_children) refers to lv_group.o(i.lv_group_remove_obj) for lv_group_remove_obj
    lv_obj.o(i.delete_children) refers to lv_ll.o(i.lv_ll_get_next) for lv_ll_get_next
    lv_obj.o(i.delete_children) refers to lv_obj.o(i.lv_event_send) for lv_event_send
    lv_obj.o(i.delete_children) refers to lv_anim.o(i.lv_anim_del) for lv_anim_del
    lv_obj.o(i.delete_children) refers to lv_hal_indev.o(i.lv_indev_get_next) for lv_indev_get_next
    lv_obj.o(i.delete_children) refers to lv_indev.o(i.lv_indev_reset) for lv_indev_reset
    lv_obj.o(i.delete_children) refers to lv_indev.o(i.lv_indev_get_obj_act) for lv_indev_get_obj_act
    lv_obj.o(i.delete_children) refers to lv_ll.o(i.lv_ll_rem) for lv_ll_rem
    lv_obj.o(i.delete_children) refers to lv_mem.o(i.lv_mem_free) for lv_mem_free
    lv_obj.o(i.delete_children) refers to lv_obj.o(.data) for .data
    lv_obj.o(i.lv_event_get_data) refers to lv_obj.o(.data) for .data
    lv_obj.o(i.lv_event_send) refers to lv_indev.o(i.lv_indev_get_act) for lv_indev_get_act
    lv_obj.o(i.lv_event_send) refers to lv_obj.o(.data) for .data
    lv_obj.o(i.lv_event_send_func) refers to lv_indev.o(i.lv_indev_get_act) for lv_indev_get_act
    lv_obj.o(i.lv_event_send_func) refers to lv_obj.o(i.lv_event_send) for lv_event_send
    lv_obj.o(i.lv_event_send_func) refers to lv_obj.o(.data) for .data
    lv_obj.o(i.lv_init) refers to lv_mem.o(i.lv_mem_init) for lv_mem_init
    lv_obj.o(i.lv_init) refers to lv_task.o(i.lv_task_core_init) for lv_task_core_init
    lv_obj.o(i.lv_init) refers to lv_fs.o(i.lv_fs_init) for lv_fs_init
    lv_obj.o(i.lv_init) refers to lv_anim.o(i.lv_anim_core_init) for lv_anim_core_init
    lv_obj.o(i.lv_init) refers to lv_group.o(i.lv_group_init) for lv_group_init
    lv_obj.o(i.lv_init) refers to lv_style.o(i.lv_style_init) for lv_style_init
    lv_obj.o(i.lv_init) refers to lv_refr.o(i.lv_refr_init) for lv_refr_init
    lv_obj.o(i.lv_init) refers to lv_ll.o(i.lv_ll_init) for lv_ll_init
    lv_obj.o(i.lv_init) refers to lv_indev.o(i.lv_indev_init) for lv_indev_init
    lv_obj.o(i.lv_init) refers to lv_img_decoder.o(i.lv_img_decoder_init) for lv_img_decoder_init
    lv_obj.o(i.lv_init) refers to lv_img_cache.o(i.lv_img_cache_set_size) for lv_img_cache_set_size
    lv_obj.o(i.lv_init) refers to lv_obj.o(.data) for .data
    lv_obj.o(i.lv_init) refers to lv_gc.o(.bss) for _lv_disp_ll
    lv_obj.o(i.lv_init) refers to lv_gc.o(.bss) for _lv_indev_ll
    lv_obj.o(i.lv_obj_align) refers to lv_obj.o(i.lv_obj_set_pos) for lv_obj_set_pos
    lv_obj.o(i.lv_obj_align_origo) refers to lv_obj.o(i.lv_obj_set_pos) for lv_obj_set_pos
    lv_obj.o(i.lv_obj_allocate_ext_attr) refers to lv_mem.o(i.lv_mem_realloc) for lv_mem_realloc
    lv_obj.o(i.lv_obj_clean) refers to lv_ll.o(i.lv_ll_get_head) for lv_ll_get_head
    lv_obj.o(i.lv_obj_clean) refers to lv_ll.o(i.lv_ll_get_next) for lv_ll_get_next
    lv_obj.o(i.lv_obj_clean) refers to lv_obj.o(i.lv_obj_del) for lv_obj_del
    lv_obj.o(i.lv_obj_count_children) refers to lv_ll.o(i.lv_ll_get_head) for lv_ll_get_head
    lv_obj.o(i.lv_obj_count_children) refers to lv_ll.o(i.lv_ll_get_next) for lv_ll_get_next
    lv_obj.o(i.lv_obj_count_children_recursive) refers to lv_ll.o(i.lv_ll_get_head) for lv_ll_get_head
    lv_obj.o(i.lv_obj_count_children_recursive) refers to lv_ll.o(i.lv_ll_get_next) for lv_ll_get_next
    lv_obj.o(i.lv_obj_create) refers to lv_ll.o(i.lv_ll_ins_head) for lv_ll_ins_head
    lv_obj.o(i.lv_obj_create) refers to lv_ll.o(i.lv_ll_init) for lv_ll_init
    lv_obj.o(i.lv_obj_create) refers to lv_theme.o(i.lv_theme_get_current) for lv_theme_get_current
    lv_obj.o(i.lv_obj_create) refers to lv_hal_disp.o(i.lv_disp_get_default) for lv_disp_get_default
    lv_obj.o(i.lv_obj_create) refers to lv_hal_disp.o(i.lv_disp_get_hor_res) for lv_disp_get_hor_res
    lv_obj.o(i.lv_obj_create) refers to lv_hal_disp.o(i.lv_disp_get_ver_res) for lv_disp_get_ver_res
    lv_obj.o(i.lv_obj_create) refers to lv_group.o(i.lv_group_add_obj) for lv_group_add_obj
    lv_obj.o(i.lv_obj_create) refers to lv_obj.o(i.lv_obj_set_pos) for lv_obj_set_pos
    lv_obj.o(i.lv_obj_create) refers to lv_obj.o(i.lv_obj_invalidate) for lv_obj_invalidate
    lv_obj.o(i.lv_obj_create) refers to lv_style.o(.bss) for lv_style_plain_color
    lv_obj.o(i.lv_obj_create) refers to lv_obj.o(i.lv_obj_signal) for lv_obj_signal
    lv_obj.o(i.lv_obj_create) refers to lv_obj.o(i.lv_obj_design) for lv_obj_design
    lv_obj.o(i.lv_obj_del) refers to lv_obj.o(i.lv_obj_invalidate) for lv_obj_invalidate
    lv_obj.o(i.lv_obj_del) refers to lv_group.o(i.lv_group_remove_obj) for lv_group_remove_obj
    lv_obj.o(i.lv_obj_del) refers to lv_anim.o(i.lv_anim_del) for lv_anim_del
    lv_obj.o(i.lv_obj_del) refers to lv_ll.o(i.lv_ll_get_head) for lv_ll_get_head
    lv_obj.o(i.lv_obj_del) refers to lv_ll.o(i.lv_ll_get_next) for lv_ll_get_next
    lv_obj.o(i.lv_obj_del) refers to lv_obj.o(i.delete_children) for delete_children
    lv_obj.o(i.lv_obj_del) refers to lv_obj.o(i.lv_event_send) for lv_event_send
    lv_obj.o(i.lv_obj_del) refers to lv_hal_indev.o(i.lv_indev_get_next) for lv_indev_get_next
    lv_obj.o(i.lv_obj_del) refers to lv_indev.o(i.lv_indev_reset) for lv_indev_reset
    lv_obj.o(i.lv_obj_del) refers to lv_indev.o(i.lv_indev_get_obj_act) for lv_indev_get_obj_act
    lv_obj.o(i.lv_obj_del) refers to lv_ll.o(i.lv_ll_rem) for lv_ll_rem
    lv_obj.o(i.lv_obj_del) refers to lv_mem.o(i.lv_mem_free) for lv_mem_free
    lv_obj.o(i.lv_obj_del) refers to lv_obj.o(.data) for .data
    lv_obj.o(i.lv_obj_del) refers to lv_gc.o(.bss) for _lv_disp_ll
    lv_obj.o(i.lv_obj_del_async) refers to lv_async.o(i.lv_async_call) for lv_async_call
    lv_obj.o(i.lv_obj_del_async) refers to lv_obj.o(i.lv_obj_del_async_cb) for lv_obj_del_async_cb
    lv_obj.o(i.lv_obj_del_async_cb) refers to lv_obj.o(i.lv_obj_del) for lv_obj_del
    lv_obj.o(i.lv_obj_design) refers to lv_area.o(i.lv_area_is_in) for lv_area_is_in
    lv_obj.o(i.lv_obj_design) refers to lv_obj.o(i.lv_obj_get_style) for lv_obj_get_style
    lv_obj.o(i.lv_obj_design) refers to lv_draw_rect.o(i.lv_draw_rect) for lv_draw_rect
    lv_obj.o(i.lv_obj_get_child) refers to lv_ll.o(i.lv_ll_get_next) for lv_ll_get_next
    lv_obj.o(i.lv_obj_get_child) refers to lv_ll.o(i.lv_ll_get_head) for lv_ll_get_head
    lv_obj.o(i.lv_obj_get_child_back) refers to lv_ll.o(i.lv_ll_get_prev) for lv_ll_get_prev
    lv_obj.o(i.lv_obj_get_child_back) refers to lv_ll.o(i.lv_ll_get_tail) for lv_ll_get_tail
    lv_obj.o(i.lv_obj_get_disp) refers to lv_ll.o(i.lv_ll_get_head) for lv_ll_get_head
    lv_obj.o(i.lv_obj_get_disp) refers to lv_ll.o(i.lv_ll_get_next) for lv_ll_get_next
    lv_obj.o(i.lv_obj_get_disp) refers to lv_gc.o(.bss) for _lv_disp_ll
    lv_obj.o(i.lv_obj_get_height_fit) refers to lv_obj.o(i.lv_obj_get_style) for lv_obj_get_style
    lv_obj.o(i.lv_obj_get_inner_coords) refers to lv_obj.o(i.lv_obj_get_style) for lv_obj_get_style
    lv_obj.o(i.lv_obj_get_style) refers to lv_group.o(i.lv_group_get_focused) for lv_group_get_focused
    lv_obj.o(i.lv_obj_get_style) refers to lv_group.o(i.lv_group_mod_style) for lv_group_mod_style
    lv_obj.o(i.lv_obj_get_style) refers to lv_style.o(.bss) for lv_style_plain
    lv_obj.o(i.lv_obj_get_width_fit) refers to lv_obj.o(i.lv_obj_get_style) for lv_obj_get_style
    lv_obj.o(i.lv_obj_invalidate) refers to lv_ll.o(i.lv_ll_get_head) for lv_ll_get_head
    lv_obj.o(i.lv_obj_invalidate) refers to lv_ll.o(i.lv_ll_get_next) for lv_ll_get_next
    lv_obj.o(i.lv_obj_invalidate) refers to lv_disp.o(i.lv_disp_get_scr_act) for lv_disp_get_scr_act
    lv_obj.o(i.lv_obj_invalidate) refers to lv_disp.o(i.lv_disp_get_layer_top) for lv_disp_get_layer_top
    lv_obj.o(i.lv_obj_invalidate) refers to lv_disp.o(i.lv_disp_get_layer_sys) for lv_disp_get_layer_sys
    lv_obj.o(i.lv_obj_invalidate) refers to lv_area.o(i.lv_area_intersect) for lv_area_intersect
    lv_obj.o(i.lv_obj_invalidate) refers to lv_refr.o(i.lv_inv_area) for lv_inv_area
    lv_obj.o(i.lv_obj_invalidate) refers to lv_gc.o(.bss) for _lv_disp_ll
    lv_obj.o(i.lv_obj_is_focused) refers to lv_group.o(i.lv_group_get_focused) for lv_group_get_focused
    lv_obj.o(i.lv_obj_move_background) refers to lv_ll.o(i.lv_ll_get_tail) for lv_ll_get_tail
    lv_obj.o(i.lv_obj_move_background) refers to lv_obj.o(i.lv_obj_invalidate) for lv_obj_invalidate
    lv_obj.o(i.lv_obj_move_background) refers to lv_ll.o(i.lv_ll_chg_list) for lv_ll_chg_list
    lv_obj.o(i.lv_obj_move_foreground) refers to lv_ll.o(i.lv_ll_get_head) for lv_ll_get_head
    lv_obj.o(i.lv_obj_move_foreground) refers to lv_obj.o(i.lv_obj_invalidate) for lv_obj_invalidate
    lv_obj.o(i.lv_obj_move_foreground) refers to lv_ll.o(i.lv_ll_chg_list) for lv_ll_chg_list
    lv_obj.o(i.lv_obj_realign) refers to lv_obj.o(i.lv_obj_align_origo) for lv_obj_align_origo
    lv_obj.o(i.lv_obj_realign) refers to lv_obj.o(i.lv_obj_align) for lv_obj_align
    lv_obj.o(i.lv_obj_refresh_ext_draw_pad) refers to lv_obj.o(i.lv_obj_invalidate) for lv_obj_invalidate
    lv_obj.o(i.lv_obj_refresh_style) refers to lv_obj.o(i.lv_obj_invalidate) for lv_obj_invalidate
    lv_obj.o(i.lv_obj_report_style_mod) refers to lv_hal_disp.o(i.lv_disp_get_next) for lv_disp_get_next
    lv_obj.o(i.lv_obj_report_style_mod) refers to lv_ll.o(i.lv_ll_get_head) for lv_ll_get_head
    lv_obj.o(i.lv_obj_report_style_mod) refers to lv_obj.o(i.lv_obj_invalidate) for lv_obj_invalidate
    lv_obj.o(i.lv_obj_report_style_mod) refers to lv_obj.o(i.refresh_children_style) for refresh_children_style
    lv_obj.o(i.lv_obj_report_style_mod) refers to lv_ll.o(i.lv_ll_get_next) for lv_ll_get_next
    lv_obj.o(i.lv_obj_report_style_mod) refers to lv_obj.o(i.report_style_mod_core) for report_style_mod_core
    lv_obj.o(i.lv_obj_set_height) refers to lv_obj.o(i.lv_obj_set_size) for lv_obj_set_size
    lv_obj.o(i.lv_obj_set_hidden) refers to lv_obj.o(i.lv_obj_invalidate) for lv_obj_invalidate
    lv_obj.o(i.lv_obj_set_opa_scale) refers to lv_obj.o(i.lv_obj_invalidate) for lv_obj_invalidate
    lv_obj.o(i.lv_obj_set_parent) refers to lv_obj.o(i.lv_obj_invalidate) for lv_obj_invalidate
    lv_obj.o(i.lv_obj_set_parent) refers to lv_ll.o(i.lv_ll_chg_list) for lv_ll_chg_list
    lv_obj.o(i.lv_obj_set_parent) refers to lv_obj.o(i.lv_obj_set_pos) for lv_obj_set_pos
    lv_obj.o(i.lv_obj_set_pos) refers to lv_obj.o(i.lv_obj_invalidate) for lv_obj_invalidate
    lv_obj.o(i.lv_obj_set_pos) refers to lv_ll.o(i.lv_ll_get_head) for lv_ll_get_head
    lv_obj.o(i.lv_obj_set_pos) refers to lv_obj.o(i.refresh_children_position) for refresh_children_position
    lv_obj.o(i.lv_obj_set_pos) refers to lv_ll.o(i.lv_ll_get_next) for lv_ll_get_next
    lv_obj.o(i.lv_obj_set_size) refers to lv_obj.o(i.lv_obj_invalidate) for lv_obj_invalidate
    lv_obj.o(i.lv_obj_set_size) refers to lv_ll.o(i.lv_ll_get_head) for lv_ll_get_head
    lv_obj.o(i.lv_obj_set_size) refers to lv_ll.o(i.lv_ll_get_next) for lv_ll_get_next
    lv_obj.o(i.lv_obj_set_size) refers to lv_obj.o(i.lv_obj_align_origo) for lv_obj_align_origo
    lv_obj.o(i.lv_obj_set_size) refers to lv_obj.o(i.lv_obj_align) for lv_obj_align
    lv_obj.o(i.lv_obj_set_style) refers to lv_obj.o(i.refresh_children_style) for refresh_children_style
    lv_obj.o(i.lv_obj_set_style) refers to lv_obj.o(i.lv_obj_invalidate) for lv_obj_invalidate
    lv_obj.o(i.lv_obj_set_width) refers to lv_obj.o(i.lv_obj_set_size) for lv_obj_set_size
    lv_obj.o(i.lv_obj_set_x) refers to lv_obj.o(i.lv_obj_set_pos) for lv_obj_set_pos
    lv_obj.o(i.lv_obj_set_y) refers to lv_obj.o(i.lv_obj_set_pos) for lv_obj_set_pos
    lv_obj.o(i.lv_obj_signal) refers to lv_obj.o(i.lv_obj_get_style) for lv_obj_get_style
    lv_obj.o(i.lv_obj_signal) refers to lv_obj.o(i.lv_obj_invalidate) for lv_obj_invalidate
    lv_obj.o(i.refresh_children_position) refers to lv_ll.o(i.lv_ll_get_head) for lv_ll_get_head
    lv_obj.o(i.refresh_children_position) refers to lv_ll.o(i.lv_ll_get_next) for lv_ll_get_next
    lv_obj.o(i.refresh_children_style) refers to lv_ll.o(i.lv_ll_get_head) for lv_ll_get_head
    lv_obj.o(i.refresh_children_style) refers to lv_ll.o(i.lv_ll_get_next) for lv_ll_get_next
    lv_obj.o(i.refresh_children_style) refers to lv_obj.o(i.lv_obj_invalidate) for lv_obj_invalidate
    lv_obj.o(i.report_style_mod_core) refers to lv_ll.o(i.lv_ll_get_head) for lv_ll_get_head
    lv_obj.o(i.report_style_mod_core) refers to lv_obj.o(i.refresh_children_style) for refresh_children_style
    lv_obj.o(i.report_style_mod_core) refers to lv_ll.o(i.lv_ll_get_next) for lv_ll_get_next
    lv_obj.o(i.report_style_mod_core) refers to lv_obj.o(i.lv_obj_invalidate) for lv_obj_invalidate
    lv_refr.o(i.lv_disp_refr_task) refers to lv_hal_tick.o(i.lv_tick_get) for lv_tick_get
    lv_refr.o(i.lv_disp_refr_task) refers to lv_area.o(i.lv_area_is_on) for lv_area_is_on
    lv_refr.o(i.lv_disp_refr_task) refers to lv_area.o(i.lv_area_join) for lv_area_join
    lv_refr.o(i.lv_disp_refr_task) refers to lv_area.o(i.lv_area_get_size) for lv_area_get_size
    lv_refr.o(i.lv_disp_refr_task) refers to lv_hal_disp.o(i.lv_disp_is_true_double_buf) for lv_disp_is_true_double_buf
    lv_refr.o(i.lv_disp_refr_task) refers to lv_hal_disp.o(i.lv_disp_get_buf) for lv_disp_get_buf
    lv_refr.o(i.lv_disp_refr_task) refers to lv_hal_disp.o(i.lv_disp_get_hor_res) for lv_disp_get_hor_res
    lv_refr.o(i.lv_disp_refr_task) refers to lv_hal_disp.o(i.lv_disp_get_ver_res) for lv_disp_get_ver_res
    lv_refr.o(i.lv_disp_refr_task) refers to lv_refr.o(i.lv_refr_area_part) for lv_refr_area_part
    lv_refr.o(i.lv_disp_refr_task) refers to lv_hal_disp.o(i.lv_disp_is_double_buf) for lv_disp_is_double_buf
    lv_refr.o(i.lv_disp_refr_task) refers to memmovea.o(.text) for __aeabi_memcpy
    lv_refr.o(i.lv_disp_refr_task) refers to memseta.o(.text) for __aeabi_memclr4
    lv_refr.o(i.lv_disp_refr_task) refers to lv_hal_tick.o(i.lv_tick_elaps) for lv_tick_elaps
    lv_refr.o(i.lv_disp_refr_task) refers to lv_draw.o(i.lv_draw_free_buf) for lv_draw_free_buf
    lv_refr.o(i.lv_disp_refr_task) refers to lv_refr.o(.data) for .data
    lv_refr.o(i.lv_inv_area) refers to lv_hal_disp.o(i.lv_disp_get_default) for lv_disp_get_default
    lv_refr.o(i.lv_inv_area) refers to lv_hal_disp.o(i.lv_disp_get_hor_res) for lv_disp_get_hor_res
    lv_refr.o(i.lv_inv_area) refers to lv_hal_disp.o(i.lv_disp_get_ver_res) for lv_disp_get_ver_res
    lv_refr.o(i.lv_inv_area) refers to lv_area.o(i.lv_area_intersect) for lv_area_intersect
    lv_refr.o(i.lv_inv_area) refers to lv_area.o(i.lv_area_is_in) for lv_area_is_in
    lv_refr.o(i.lv_refr_area_part) refers to lv_hal_disp.o(i.lv_disp_get_buf) for lv_disp_get_buf
    lv_refr.o(i.lv_refr_area_part) refers to lv_hal_disp.o(i.lv_disp_is_double_buf) for lv_disp_is_double_buf
    lv_refr.o(i.lv_refr_area_part) refers to lv_area.o(i.lv_area_intersect) for lv_area_intersect
    lv_refr.o(i.lv_refr_area_part) refers to lv_disp.o(i.lv_disp_get_scr_act) for lv_disp_get_scr_act
    lv_refr.o(i.lv_refr_area_part) refers to lv_area.o(i.lv_area_is_in) for lv_area_is_in
    lv_refr.o(i.lv_refr_area_part) refers to lv_ll.o(i.lv_ll_get_head) for lv_ll_get_head
    lv_refr.o(i.lv_refr_area_part) refers to lv_refr.o(i.lv_refr_get_top_obj) for lv_refr_get_top_obj
    lv_refr.o(i.lv_refr_area_part) refers to lv_ll.o(i.lv_ll_get_next) for lv_ll_get_next
    lv_refr.o(i.lv_refr_area_part) refers to lv_obj.o(i.lv_obj_get_style) for lv_obj_get_style
    lv_refr.o(i.lv_refr_area_part) refers to lv_obj.o(i.lv_obj_get_opa_scale) for lv_obj_get_opa_scale
    lv_refr.o(i.lv_refr_area_part) refers to lv_refr.o(i.lv_refr_obj_and_children) for lv_refr_obj_and_children
    lv_refr.o(i.lv_refr_area_part) refers to lv_disp.o(i.lv_disp_get_layer_top) for lv_disp_get_layer_top
    lv_refr.o(i.lv_refr_area_part) refers to lv_disp.o(i.lv_disp_get_layer_sys) for lv_disp_get_layer_sys
    lv_refr.o(i.lv_refr_area_part) refers to lv_hal_disp.o(i.lv_disp_is_true_double_buf) for lv_disp_is_true_double_buf
    lv_refr.o(i.lv_refr_area_part) refers to lv_refr.o(.data) for .data
    lv_refr.o(i.lv_refr_get_disp_refreshing) refers to lv_refr.o(.data) for .data
    lv_refr.o(i.lv_refr_get_top_obj) refers to lv_area.o(i.lv_area_is_in) for lv_area_is_in
    lv_refr.o(i.lv_refr_get_top_obj) refers to lv_ll.o(i.lv_ll_get_head) for lv_ll_get_head
    lv_refr.o(i.lv_refr_get_top_obj) refers to lv_ll.o(i.lv_ll_get_next) for lv_ll_get_next
    lv_refr.o(i.lv_refr_get_top_obj) refers to lv_obj.o(i.lv_obj_get_style) for lv_obj_get_style
    lv_refr.o(i.lv_refr_get_top_obj) refers to lv_obj.o(i.lv_obj_get_opa_scale) for lv_obj_get_opa_scale
    lv_refr.o(i.lv_refr_now) refers to lv_refr.o(i.lv_disp_refr_task) for lv_disp_refr_task
    lv_refr.o(i.lv_refr_now) refers to lv_hal_disp.o(i.lv_disp_get_next) for lv_disp_get_next
    lv_refr.o(i.lv_refr_obj) refers to lv_obj.o(i.lv_obj_get_coords) for lv_obj_get_coords
    lv_refr.o(i.lv_refr_obj) refers to lv_area.o(i.lv_area_intersect) for lv_area_intersect
    lv_refr.o(i.lv_refr_obj) refers to lv_ll.o(i.lv_ll_get_tail) for lv_ll_get_tail
    lv_refr.o(i.lv_refr_obj) refers to lv_ll.o(i.lv_ll_get_prev) for lv_ll_get_prev
    lv_refr.o(i.lv_refr_obj_and_children) refers to lv_disp.o(i.lv_disp_get_scr_act) for lv_disp_get_scr_act
    lv_refr.o(i.lv_refr_obj_and_children) refers to lv_refr.o(i.lv_refr_obj) for lv_refr_obj
    lv_refr.o(i.lv_refr_obj_and_children) refers to lv_obj.o(i.lv_obj_get_parent) for lv_obj_get_parent
    lv_refr.o(i.lv_refr_obj_and_children) refers to lv_ll.o(i.lv_ll_get_prev) for lv_ll_get_prev
    lv_refr.o(i.lv_refr_obj_and_children) refers to lv_obj.o(i.lv_obj_get_coords) for lv_obj_get_coords
    lv_refr.o(i.lv_refr_obj_and_children) refers to lv_area.o(i.lv_area_intersect) for lv_area_intersect
    lv_refr.o(i.lv_refr_obj_and_children) refers to lv_ll.o(i.lv_ll_get_tail) for lv_ll_get_tail
    lv_refr.o(i.lv_refr_obj_and_children) refers to lv_refr.o(.data) for .data
    lv_refr.o(i.lv_refr_set_disp_refreshing) refers to lv_refr.o(.data) for .data
    lv_style.o(i.lv_style_anim_init) refers to lv_anim.o(i.lv_anim_init) for lv_anim_init
    lv_style.o(i.lv_style_anim_init) refers to lv_mem.o(i.lv_mem_alloc) for lv_mem_alloc
    lv_style.o(i.lv_style_anim_init) refers to lv_style.o(i.lv_style_copy) for lv_style_copy
    lv_style.o(i.lv_style_anim_init) refers to lv_style.o(i.style_animator) for style_animator
    lv_style.o(i.lv_style_anim_init) refers to lv_anim.o(i.lv_anim_path_linear) for lv_anim_path_linear
    lv_style.o(i.lv_style_anim_init) refers to lv_style.o(i.style_animation_common_end_cb) for style_animation_common_end_cb
    lv_style.o(i.lv_style_anim_init) refers to lv_style.o(.bss) for .bss
    lv_style.o(i.lv_style_init) refers to lv_style.o(i.lv_style_copy) for lv_style_copy
    lv_style.o(i.lv_style_init) refers to lv_style.o(.bss) for .bss
    lv_style.o(i.lv_style_init) refers to lv_font_roboto_16.o(.data) for lv_font_roboto_16
    lv_style.o(i.lv_style_mix) refers to lv_style.o(i.lv_color_mix) for lv_color_mix
    lv_style.o(i.style_animation_common_end_cb) refers to lv_mem.o(i.lv_mem_free) for lv_mem_free
    lv_style.o(i.style_animator) refers to lv_style.o(i.lv_style_mix) for lv_style_mix
    lv_style.o(i.style_animator) refers to lv_obj.o(i.lv_obj_report_style_mod) for lv_obj_report_style_mod
    lv_draw.o(i.lv_draw_aa_get_opa) refers to lv_draw.o(.data) for .data
    lv_draw.o(i.lv_draw_aa_hor_seg) refers to lv_draw_basic.o(i.lv_draw_px) for lv_draw_px
    lv_draw.o(i.lv_draw_aa_hor_seg) refers to lv_draw.o(.data) for .data
    lv_draw.o(i.lv_draw_aa_ver_seg) refers to lv_draw_basic.o(i.lv_draw_px) for lv_draw_px
    lv_draw.o(i.lv_draw_aa_ver_seg) refers to lv_draw.o(.data) for .data
    lv_draw.o(i.lv_draw_free_buf) refers to lv_mem.o(i.lv_mem_free) for lv_mem_free
    lv_draw.o(i.lv_draw_free_buf) refers to lv_gc.o(.data) for _lv_draw_buf
    lv_draw.o(i.lv_draw_free_buf) refers to lv_draw.o(.data) for .data
    lv_draw.o(i.lv_draw_get_buf) refers to lv_mem.o(i.lv_mem_realloc) for lv_mem_realloc
    lv_draw.o(i.lv_draw_get_buf) refers to lv_mem.o(i.lv_mem_alloc) for lv_mem_alloc
    lv_draw.o(i.lv_draw_get_buf) refers to lv_draw.o(.data) for .data
    lv_draw.o(i.lv_draw_get_buf) refers to lv_gc.o(.data) for _lv_draw_buf
    lv_draw.o(.data) refers to lv_draw.o(.constdata) for seg1
    lv_draw.o(.data) refers to lv_draw.o(.constdata) for seg2
    lv_draw.o(.data) refers to lv_draw.o(.constdata) for seg3
    lv_draw.o(.data) refers to lv_draw.o(.constdata) for seg4
    lv_draw.o(.data) refers to lv_draw.o(.constdata) for seg5
    lv_draw.o(.data) refers to lv_draw.o(.constdata) for seg6
    lv_draw.o(.data) refers to lv_draw.o(.constdata) for seg7
    lv_draw.o(.data) refers to lv_draw.o(.constdata) for seg8
    lv_draw_arc.o(i.lv_draw_arc) refers to lv_area.o(i.lv_area_set) for lv_area_set
    lv_draw_arc.o(i.lv_draw_arc) refers to lv_draw_basic.o(i.lv_draw_fill) for lv_draw_fill
    lv_draw_arc.o(i.lv_draw_arc) refers to lv_draw_arc.o(i.deg_test_norm) for deg_test_norm
    lv_draw_arc.o(i.lv_draw_arc) refers to lv_draw_arc.o(i.deg_test_inv) for deg_test_inv
    lv_draw_basic.o(i.lv_draw_fill) refers to lv_area.o(i.lv_area_intersect) for lv_area_intersect
    lv_draw_basic.o(i.lv_draw_fill) refers to lv_refr.o(i.lv_refr_get_disp_refreshing) for lv_refr_get_disp_refreshing
    lv_draw_basic.o(i.lv_draw_fill) refers to lv_hal_disp.o(i.lv_disp_get_buf) for lv_disp_get_buf
    lv_draw_basic.o(i.lv_draw_fill) refers to lv_draw_basic.o(i.lv_color_mix) for lv_color_mix
    lv_draw_basic.o(i.lv_draw_fill) refers to memmovea.o(.text) for __aeabi_memcpy
    lv_draw_basic.o(i.lv_draw_letter) refers to lv_font.o(i.lv_font_get_glyph_dsc) for lv_font_get_glyph_dsc
    lv_draw_basic.o(i.lv_draw_letter) refers to lv_font.o(i.lv_font_get_glyph_bitmap) for lv_font_get_glyph_bitmap
    lv_draw_basic.o(i.lv_draw_letter) refers to lv_refr.o(i.lv_refr_get_disp_refreshing) for lv_refr_get_disp_refreshing
    lv_draw_basic.o(i.lv_draw_letter) refers to lv_hal_disp.o(i.lv_disp_get_buf) for lv_disp_get_buf
    lv_draw_basic.o(i.lv_draw_map) refers to lv_area.o(i.lv_area_intersect) for lv_area_intersect
    lv_draw_basic.o(i.lv_draw_map) refers to lv_refr.o(i.lv_refr_get_disp_refreshing) for lv_refr_get_disp_refreshing
    lv_draw_basic.o(i.lv_draw_map) refers to lv_hal_disp.o(i.lv_disp_get_buf) for lv_disp_get_buf
    lv_draw_basic.o(i.lv_draw_map) refers to lv_draw_basic.o(i.lv_color_mix) for lv_color_mix
    lv_draw_basic.o(i.lv_draw_map) refers to memmovea.o(.text) for __aeabi_memcpy
    lv_draw_basic.o(i.lv_draw_px) refers to lv_refr.o(i.lv_refr_get_disp_refreshing) for lv_refr_get_disp_refreshing
    lv_draw_basic.o(i.lv_draw_px) refers to lv_hal_disp.o(i.lv_disp_get_buf) for lv_disp_get_buf
    lv_draw_basic.o(i.lv_draw_px) refers to lv_draw_basic.o(i.lv_color_mix) for lv_color_mix
    lv_draw_img.o(i.lv_draw_img) refers to lv_area.o(i.lv_area_intersect) for lv_area_intersect
    lv_draw_img.o(i.lv_draw_img) refers to lv_img_cache.o(i.lv_img_cache_open) for lv_img_cache_open
    lv_draw_img.o(i.lv_draw_img) refers to lv_draw_rect.o(i.lv_draw_rect) for lv_draw_rect
    lv_draw_img.o(i.lv_draw_img) refers to lv_draw_label.o(i.lv_draw_label) for lv_draw_label
    lv_draw_img.o(i.lv_draw_img) refers to lv_draw_basic.o(i.lv_draw_map) for lv_draw_map
    lv_draw_img.o(i.lv_draw_img) refers to lv_draw.o(i.lv_draw_get_buf) for lv_draw_get_buf
    lv_draw_img.o(i.lv_draw_img) refers to lv_area.o(i.lv_area_set_height) for lv_area_set_height
    lv_draw_img.o(i.lv_draw_img) refers to lv_img_decoder.o(i.lv_img_decoder_read_line) for lv_img_decoder_read_line
    lv_draw_img.o(i.lv_draw_img) refers to lv_img_decoder.o(i.lv_img_decoder_close) for lv_img_decoder_close
    lv_draw_img.o(i.lv_draw_img) refers to lv_style.o(.bss) for lv_style_plain
    lv_draw_img.o(i.lv_img_buf_get_px_color) refers to lv_draw_img.o(i.lv_img_color_format_get_px_size) for lv_img_color_format_get_px_size
    lv_draw_img.o(i.lv_img_buf_set_px_alpha) refers to lv_draw_img.o(i.lv_img_color_format_get_px_size) for lv_img_color_format_get_px_size
    lv_draw_img.o(i.lv_img_buf_set_px_color) refers to lv_draw_img.o(i.lv_img_color_format_get_px_size) for lv_img_color_format_get_px_size
    lv_draw_img.o(i.lv_img_buf_set_px_color) refers to memmovea.o(.text) for __aeabi_memcpy
    lv_draw_label.o(i.lv_draw_label) refers to lv_txt.o(i.lv_txt_get_size) for lv_txt_get_size
    lv_draw_label.o(i.lv_draw_label) refers to lv_txt.o(i.lv_txt_get_next_line) for lv_txt_get_next_line
    lv_draw_label.o(i.lv_draw_label) refers to lv_txt.o(i.lv_txt_get_width) for lv_txt_get_width
    lv_draw_label.o(i.lv_draw_label) refers to lv_style.o(i.lv_style_copy) for lv_style_copy
    lv_draw_label.o(i.lv_draw_label) refers to lv_font.o(i.lv_font_get_glyph_width) for lv_font_get_glyph_width
    lv_draw_label.o(i.lv_draw_label) refers to lv_draw_rect.o(i.lv_draw_rect) for lv_draw_rect
    lv_draw_label.o(i.lv_draw_label) refers to lv_draw_basic.o(i.lv_draw_letter) for lv_draw_letter
    lv_draw_label.o(i.lv_draw_label) refers to lv_style.o(.bss) for lv_style_plain_color
    lv_draw_label.o(i.lv_draw_label) refers to lv_txt.o(.data) for lv_txt_encoded_next
    lv_draw_label.o(i.lv_draw_label) refers to lv_txt.o(.data) for lv_encoded_get_char_id
    lv_draw_line.o(i.line_draw_skew) refers to lv_refr.o(i.lv_refr_get_disp_refreshing) for lv_refr_get_disp_refreshing
    lv_draw_line.o(i.line_draw_skew) refers to lv_hal_disp.o(i.lv_disp_get_antialiasing) for lv_disp_get_antialiasing
    lv_draw_line.o(i.line_draw_skew) refers to lv_draw.o(i.lv_draw_get_buf) for lv_draw_get_buf
    lv_draw_line.o(i.line_draw_skew) refers to lv_draw_line.o(i.line_init) for line_init
    lv_draw_line.o(i.line_draw_skew) refers to lv_draw.o(i.lv_draw_aa_ver_seg) for lv_draw_aa_ver_seg
    lv_draw_line.o(i.line_draw_skew) refers to lv_draw.o(i.lv_draw_aa_hor_seg) for lv_draw_aa_hor_seg
    lv_draw_line.o(i.line_draw_skew) refers to lv_draw_basic.o(i.lv_draw_fill) for lv_draw_fill
    lv_draw_line.o(i.line_draw_skew) refers to lv_draw_basic.o(i.lv_draw_px) for lv_draw_px
    lv_draw_line.o(i.lv_draw_line) refers to lv_draw_line.o(i.line_init) for line_init
    lv_draw_line.o(i.lv_draw_line) refers to lv_draw_basic.o(i.lv_draw_fill) for lv_draw_fill
    lv_draw_line.o(i.lv_draw_line) refers to lv_refr.o(i.lv_refr_get_disp_refreshing) for lv_refr_get_disp_refreshing
    lv_draw_line.o(i.lv_draw_line) refers to lv_hal_disp.o(i.lv_disp_get_antialiasing) for lv_disp_get_antialiasing
    lv_draw_line.o(i.lv_draw_line) refers to lv_draw_line.o(i.line_draw_skew) for line_draw_skew
    lv_draw_rect.o(i.lv_draw_cont_radius_corr) refers to lv_refr.o(i.lv_refr_get_disp_refreshing) for lv_refr_get_disp_refreshing
    lv_draw_rect.o(i.lv_draw_cont_radius_corr) refers to lv_hal_disp.o(i.lv_disp_get_antialiasing) for lv_disp_get_antialiasing
    lv_draw_rect.o(i.lv_draw_rect) refers to lv_draw_rect.o(i.lv_draw_cont_radius_corr) for lv_draw_cont_radius_corr
    lv_draw_rect.o(i.lv_draw_rect) refers to lv_area.o(i.lv_area_is_in) for lv_area_is_in
    lv_draw_rect.o(i.lv_draw_rect) refers to lv_draw_rect.o(i.lv_draw_shadow_full) for lv_draw_shadow_full
    lv_draw_rect.o(i.lv_draw_rect) refers to lv_refr.o(i.lv_refr_get_disp_refreshing) for lv_refr_get_disp_refreshing
    lv_draw_rect.o(i.lv_draw_rect) refers to lv_hal_disp.o(i.lv_disp_get_antialiasing) for lv_disp_get_antialiasing
    lv_draw_rect.o(i.lv_draw_rect) refers to lv_draw.o(i.lv_draw_get_buf) for lv_draw_get_buf
    lv_draw_rect.o(i.lv_draw_rect) refers to lv_circ.o(i.lv_circ_init) for lv_circ_init
    lv_draw_rect.o(i.lv_draw_rect) refers to lv_circ.o(i.lv_circ_cont) for lv_circ_cont
    lv_draw_rect.o(i.lv_draw_rect) refers to lv_circ.o(i.lv_circ_next) for lv_circ_next
    lv_draw_rect.o(i.lv_draw_rect) refers to lv_draw_basic.o(i.lv_draw_px) for lv_draw_px
    lv_draw_rect.o(i.lv_draw_rect) refers to lv_draw_basic.o(i.lv_draw_fill) for lv_draw_fill
    lv_draw_rect.o(i.lv_draw_rect) refers to lv_area.o(i.lv_area_is_on) for lv_area_is_on
    lv_draw_rect.o(i.lv_draw_rect) refers to lv_draw_rect.o(i.lv_color_mix) for lv_color_mix
    lv_draw_rect.o(i.lv_draw_rect) refers to lv_draw_rect.o(i.lv_draw_rect_main_corner) for lv_draw_rect_main_corner
    lv_draw_rect.o(i.lv_draw_rect) refers to lv_draw_rect.o(i.lv_draw_rect_border_corner) for lv_draw_rect_border_corner
    lv_draw_rect.o(i.lv_draw_rect_border_corner) refers to lv_refr.o(i.lv_refr_get_disp_refreshing) for lv_refr_get_disp_refreshing
    lv_draw_rect.o(i.lv_draw_rect_border_corner) refers to lv_hal_disp.o(i.lv_disp_get_antialiasing) for lv_disp_get_antialiasing
    lv_draw_rect.o(i.lv_draw_rect_border_corner) refers to lv_draw_rect.o(i.lv_draw_cont_radius_corr) for lv_draw_cont_radius_corr
    lv_draw_rect.o(i.lv_draw_rect_border_corner) refers to lv_circ.o(i.lv_circ_init) for lv_circ_init
    lv_draw_rect.o(i.lv_draw_rect_border_corner) refers to lv_draw.o(i.lv_draw_aa_get_opa) for lv_draw_aa_get_opa
    lv_draw_rect.o(i.lv_draw_rect_border_corner) refers to lv_draw_basic.o(i.lv_draw_px) for lv_draw_px
    lv_draw_rect.o(i.lv_draw_rect_border_corner) refers to lv_draw_rect.o(.constdata) for .constdata
    lv_draw_rect.o(i.lv_draw_rect_border_corner) refers to lv_draw_basic.o(i.lv_draw_fill) for lv_draw_fill
    lv_draw_rect.o(i.lv_draw_rect_border_corner) refers to lv_circ.o(i.lv_circ_next) for lv_circ_next
    lv_draw_rect.o(i.lv_draw_rect_main_corner) refers to lv_refr.o(i.lv_refr_get_disp_refreshing) for lv_refr_get_disp_refreshing
    lv_draw_rect.o(i.lv_draw_rect_main_corner) refers to lv_hal_disp.o(i.lv_disp_get_antialiasing) for lv_disp_get_antialiasing
    lv_draw_rect.o(i.lv_draw_rect_main_corner) refers to lv_draw_rect.o(i.lv_draw_cont_radius_corr) for lv_draw_cont_radius_corr
    lv_draw_rect.o(i.lv_draw_rect_main_corner) refers to lv_circ.o(i.lv_circ_init) for lv_circ_init
    lv_draw_rect.o(i.lv_draw_rect_main_corner) refers to lv_area.o(i.lv_area_set) for lv_area_set
    lv_draw_rect.o(i.lv_draw_rect_main_corner) refers to lv_circ.o(i.lv_circ_cont) for lv_circ_cont
    lv_draw_rect.o(i.lv_draw_rect_main_corner) refers to lv_draw_rect.o(i.lv_color_mix) for lv_color_mix
    lv_draw_rect.o(i.lv_draw_rect_main_corner) refers to lv_draw.o(i.lv_draw_aa_get_opa) for lv_draw_aa_get_opa
    lv_draw_rect.o(i.lv_draw_rect_main_corner) refers to lv_draw_basic.o(i.lv_draw_px) for lv_draw_px
    lv_draw_rect.o(i.lv_draw_rect_main_corner) refers to lv_draw_basic.o(i.lv_draw_fill) for lv_draw_fill
    lv_draw_rect.o(i.lv_draw_rect_main_corner) refers to lv_circ.o(i.lv_circ_next) for lv_circ_next
    lv_draw_rect.o(i.lv_draw_rect_main_corner) refers to lv_draw_rect.o(.constdata) for .constdata
    lv_draw_rect.o(i.lv_draw_shadow_full) refers to lv_refr.o(i.lv_refr_get_disp_refreshing) for lv_refr_get_disp_refreshing
    lv_draw_rect.o(i.lv_draw_shadow_full) refers to lv_hal_disp.o(i.lv_disp_get_antialiasing) for lv_disp_get_antialiasing
    lv_draw_rect.o(i.lv_draw_shadow_full) refers to lv_draw_rect.o(i.lv_draw_cont_radius_corr) for lv_draw_cont_radius_corr
    lv_draw_rect.o(i.lv_draw_shadow_full) refers to lv_draw.o(i.lv_draw_get_buf) for lv_draw_get_buf
    lv_draw_rect.o(i.lv_draw_shadow_full) refers to memseta.o(.text) for __aeabi_memclr
    lv_draw_rect.o(i.lv_draw_shadow_full) refers to lv_circ.o(i.lv_circ_init) for lv_circ_init
    lv_draw_rect.o(i.lv_draw_shadow_full) refers to lv_circ.o(i.lv_circ_cont) for lv_circ_cont
    lv_draw_rect.o(i.lv_draw_shadow_full) refers to lv_circ.o(i.lv_circ_next) for lv_circ_next
    lv_draw_rect.o(i.lv_draw_shadow_full) refers to lv_draw_basic.o(i.lv_draw_px) for lv_draw_px
    lv_draw_rect.o(i.lv_draw_shadow_full) refers to lv_draw_basic.o(i.lv_draw_fill) for lv_draw_fill
    lv_draw_triangle.o(i.lv_draw_polygon) refers to lv_draw_triangle.o(i.tri_draw_tall) for tri_draw_tall
    lv_draw_triangle.o(i.lv_draw_polygon) refers to lv_draw_triangle.o(i.tri_draw_flat) for tri_draw_flat
    lv_draw_triangle.o(i.lv_draw_triangle) refers to lv_draw_triangle.o(i.tri_draw_tall) for tri_draw_tall
    lv_draw_triangle.o(i.lv_draw_triangle) refers to lv_draw_triangle.o(i.tri_draw_flat) for tri_draw_flat
    lv_draw_triangle.o(i.tri_draw_flat) refers to lv_draw_basic.o(i.lv_draw_fill) for lv_draw_fill
    lv_draw_triangle.o(i.tri_draw_tall) refers to lv_draw_basic.o(i.lv_draw_fill) for lv_draw_fill
    lv_img_cache.o(i.lv_img_cache_invalidate_src) refers to lv_img_decoder.o(i.lv_img_decoder_close) for lv_img_decoder_close
    lv_img_cache.o(i.lv_img_cache_invalidate_src) refers to lv_gc.o(.data) for _lv_img_cache_array
    lv_img_cache.o(i.lv_img_cache_invalidate_src) refers to lv_img_cache.o(.data) for .data
    lv_img_cache.o(i.lv_img_cache_open) refers to lv_img_decoder.o(i.lv_img_decoder_close) for lv_img_decoder_close
    lv_img_cache.o(i.lv_img_cache_open) refers to lv_hal_tick.o(i.lv_tick_get) for lv_tick_get
    lv_img_cache.o(i.lv_img_cache_open) refers to lv_img_decoder.o(i.lv_img_decoder_open) for lv_img_decoder_open
    lv_img_cache.o(i.lv_img_cache_open) refers to lv_hal_tick.o(i.lv_tick_elaps) for lv_tick_elaps
    lv_img_cache.o(i.lv_img_cache_open) refers to lv_img_cache.o(.data) for .data
    lv_img_cache.o(i.lv_img_cache_open) refers to lv_gc.o(.data) for _lv_img_cache_array
    lv_img_cache.o(i.lv_img_cache_set_size) refers to lv_img_decoder.o(i.lv_img_decoder_close) for lv_img_decoder_close
    lv_img_cache.o(i.lv_img_cache_set_size) refers to lv_mem.o(i.lv_mem_free) for lv_mem_free
    lv_img_cache.o(i.lv_img_cache_set_size) refers to lv_mem.o(i.lv_mem_alloc) for lv_mem_alloc
    lv_img_cache.o(i.lv_img_cache_set_size) refers to lv_gc.o(.data) for _lv_img_cache_array
    lv_img_cache.o(i.lv_img_cache_set_size) refers to lv_img_cache.o(.data) for .data
    lv_img_decoder.o(i.lv_img_decoder_built_in_close) refers to lv_fs.o(i.lv_fs_close) for lv_fs_close
    lv_img_decoder.o(i.lv_img_decoder_built_in_close) refers to lv_mem.o(i.lv_mem_free) for lv_mem_free
    lv_img_decoder.o(i.lv_img_decoder_built_in_info) refers to lv_draw_img.o(i.lv_img_src_get_type) for lv_img_src_get_type
    lv_img_decoder.o(i.lv_img_decoder_built_in_info) refers to lv_fs.o(i.lv_fs_open) for lv_fs_open
    lv_img_decoder.o(i.lv_img_decoder_built_in_info) refers to lv_fs.o(i.lv_fs_read) for lv_fs_read
    lv_img_decoder.o(i.lv_img_decoder_built_in_info) refers to lv_fs.o(i.lv_fs_close) for lv_fs_close
    lv_img_decoder.o(i.lv_img_decoder_built_in_open) refers to lv_fs.o(i.lv_fs_close) for lv_fs_close
    lv_img_decoder.o(i.lv_img_decoder_built_in_open) refers to lv_mem.o(i.lv_mem_free) for lv_mem_free
    lv_img_decoder.o(i.lv_img_decoder_built_in_open) refers to lv_fs.o(i.lv_fs_get_ext) for lv_fs_get_ext
    lv_img_decoder.o(i.lv_img_decoder_built_in_open) refers to strcmp.o(.text) for strcmp
    lv_img_decoder.o(i.lv_img_decoder_built_in_open) refers to lv_fs.o(i.lv_fs_open) for lv_fs_open
    lv_img_decoder.o(i.lv_img_decoder_built_in_open) refers to lv_mem.o(i.lv_mem_alloc) for lv_mem_alloc
    lv_img_decoder.o(i.lv_img_decoder_built_in_open) refers to lv_img_decoder.o(i.__ARM_common_memclr4_8) for __ARM_common_memclr4_8
    lv_img_decoder.o(i.lv_img_decoder_built_in_open) refers to lv_draw_img.o(i.lv_img_color_format_get_px_size) for lv_img_color_format_get_px_size
    lv_img_decoder.o(i.lv_img_decoder_built_in_open) refers to lv_fs.o(i.lv_fs_seek) for lv_fs_seek
    lv_img_decoder.o(i.lv_img_decoder_built_in_open) refers to lv_fs.o(i.lv_fs_read) for lv_fs_read
    lv_img_decoder.o(i.lv_img_decoder_built_in_read_line) refers to lv_draw_img.o(i.lv_img_color_format_get_px_size) for lv_img_color_format_get_px_size
    lv_img_decoder.o(i.lv_img_decoder_built_in_read_line) refers to lv_fs.o(i.lv_fs_seek) for lv_fs_seek
    lv_img_decoder.o(i.lv_img_decoder_built_in_read_line) refers to lv_fs.o(i.lv_fs_read) for lv_fs_read
    lv_img_decoder.o(i.lv_img_decoder_create) refers to lv_ll.o(i.lv_ll_ins_head) for lv_ll_ins_head
    lv_img_decoder.o(i.lv_img_decoder_create) refers to lv_gc.o(.bss) for _lv_img_defoder_ll
    lv_img_decoder.o(i.lv_img_decoder_delete) refers to lv_ll.o(i.lv_ll_rem) for lv_ll_rem
    lv_img_decoder.o(i.lv_img_decoder_delete) refers to lv_mem.o(i.lv_mem_free) for lv_mem_free
    lv_img_decoder.o(i.lv_img_decoder_delete) refers to lv_gc.o(.bss) for _lv_img_defoder_ll
    lv_img_decoder.o(i.lv_img_decoder_get_info) refers to lv_ll.o(i.lv_ll_get_head) for lv_ll_get_head
    lv_img_decoder.o(i.lv_img_decoder_get_info) refers to lv_ll.o(i.lv_ll_get_next) for lv_ll_get_next
    lv_img_decoder.o(i.lv_img_decoder_get_info) refers to lv_gc.o(.bss) for _lv_img_defoder_ll
    lv_img_decoder.o(i.lv_img_decoder_init) refers to lv_ll.o(i.lv_ll_init) for lv_ll_init
    lv_img_decoder.o(i.lv_img_decoder_init) refers to lv_ll.o(i.lv_ll_ins_head) for lv_ll_ins_head
    lv_img_decoder.o(i.lv_img_decoder_init) refers to lv_gc.o(.bss) for _lv_img_defoder_ll
    lv_img_decoder.o(i.lv_img_decoder_init) refers to lv_img_decoder.o(i.lv_img_decoder_built_in_info) for lv_img_decoder_built_in_info
    lv_img_decoder.o(i.lv_img_decoder_init) refers to lv_img_decoder.o(i.lv_img_decoder_built_in_open) for lv_img_decoder_built_in_open
    lv_img_decoder.o(i.lv_img_decoder_init) refers to lv_img_decoder.o(i.lv_img_decoder_built_in_read_line) for lv_img_decoder_built_in_read_line
    lv_img_decoder.o(i.lv_img_decoder_init) refers to lv_img_decoder.o(i.lv_img_decoder_built_in_close) for lv_img_decoder_built_in_close
    lv_img_decoder.o(i.lv_img_decoder_open) refers to lv_draw_img.o(i.lv_img_src_get_type) for lv_img_src_get_type
    lv_img_decoder.o(i.lv_img_decoder_open) refers to lv_ll.o(i.lv_ll_get_head) for lv_ll_get_head
    lv_img_decoder.o(i.lv_img_decoder_open) refers to lv_ll.o(i.lv_ll_get_next) for lv_ll_get_next
    lv_img_decoder.o(i.lv_img_decoder_open) refers to lv_gc.o(.bss) for _lv_img_defoder_ll
    lv_font_fmt_txt.o(i.get_glyph_dsc_id) refers to lv_utils.o(i.lv_utils_bsearch) for lv_utils_bsearch
    lv_font_fmt_txt.o(i.get_glyph_dsc_id) refers to lv_font_fmt_txt.o(i.unicode_list_compare) for unicode_list_compare
    lv_font_fmt_txt.o(i.lv_font_get_bitmap_fmt_txt) refers to lv_font_fmt_txt.o(i.get_glyph_dsc_id) for get_glyph_dsc_id
    lv_font_fmt_txt.o(i.lv_font_get_glyph_dsc_fmt_txt) refers to lv_font_fmt_txt.o(i.get_glyph_dsc_id) for get_glyph_dsc_id
    lv_font_fmt_txt.o(i.lv_font_get_glyph_dsc_fmt_txt) refers to lv_utils.o(i.lv_utils_bsearch) for lv_utils_bsearch
    lv_font_fmt_txt.o(i.lv_font_get_glyph_dsc_fmt_txt) refers to lv_font_fmt_txt.o(i.kern_pair_16_compare) for kern_pair_16_compare
    lv_font_fmt_txt.o(i.lv_font_get_glyph_dsc_fmt_txt) refers to lv_font_fmt_txt.o(i.kern_pair_8_compare) for kern_pair_8_compare
    lv_font_roboto_12.o(.constdata) refers to lv_font_roboto_12.o(.data) for unicode_list_1
    lv_font_roboto_12.o(.data) refers to lv_font_roboto_12.o(.data) for kern_class_values
    lv_font_roboto_12.o(.data) refers to lv_font_roboto_12.o(.data) for kern_left_class_mapping
    lv_font_roboto_12.o(.data) refers to lv_font_roboto_12.o(.data) for kern_right_class_mapping
    lv_font_roboto_12.o(.data) refers to lv_font_roboto_12.o(.constdata) for gylph_bitmap
    lv_font_roboto_12.o(.data) refers to lv_font_roboto_12.o(.data) for glyph_dsc
    lv_font_roboto_12.o(.data) refers to lv_font_roboto_12.o(.constdata) for cmaps
    lv_font_roboto_12.o(.data) refers to lv_font_roboto_12.o(.data) for kern_classes
    lv_font_roboto_12.o(.data) refers to lv_font_fmt_txt.o(i.lv_font_get_glyph_dsc_fmt_txt) for lv_font_get_glyph_dsc_fmt_txt
    lv_font_roboto_12.o(.data) refers to lv_font_fmt_txt.o(i.lv_font_get_bitmap_fmt_txt) for lv_font_get_bitmap_fmt_txt
    lv_font_roboto_12.o(.data) refers to lv_font_roboto_12.o(.data) for font_dsc
    lv_font_roboto_16.o(.constdata) refers to lv_font_roboto_16.o(.data) for unicode_list_1
    lv_font_roboto_16.o(.data) refers to lv_font_roboto_16.o(.data) for kern_class_values
    lv_font_roboto_16.o(.data) refers to lv_font_roboto_16.o(.data) for kern_left_class_mapping
    lv_font_roboto_16.o(.data) refers to lv_font_roboto_16.o(.data) for kern_right_class_mapping
    lv_font_roboto_16.o(.data) refers to lv_font_roboto_16.o(.constdata) for gylph_bitmap
    lv_font_roboto_16.o(.data) refers to lv_font_roboto_16.o(.data) for glyph_dsc
    lv_font_roboto_16.o(.data) refers to lv_font_roboto_16.o(.constdata) for cmaps
    lv_font_roboto_16.o(.data) refers to lv_font_roboto_16.o(.data) for kern_classes
    lv_font_roboto_16.o(.data) refers to lv_font_fmt_txt.o(i.lv_font_get_glyph_dsc_fmt_txt) for lv_font_get_glyph_dsc_fmt_txt
    lv_font_roboto_16.o(.data) refers to lv_font_fmt_txt.o(i.lv_font_get_bitmap_fmt_txt) for lv_font_get_bitmap_fmt_txt
    lv_font_roboto_16.o(.data) refers to lv_font_roboto_16.o(.data) for font_dsc
    lv_hal_disp.o(i.lv_disp_drv_register) refers to lv_ll.o(i.lv_ll_ins_head) for lv_ll_ins_head
    lv_hal_disp.o(i.lv_disp_drv_register) refers to memseta.o(.text) for __aeabi_memclr4
    lv_hal_disp.o(i.lv_disp_drv_register) refers to lv_ll.o(i.lv_ll_init) for lv_ll_init
    lv_hal_disp.o(i.lv_disp_drv_register) refers to lv_obj.o(i.lv_obj_create) for lv_obj_create
    lv_hal_disp.o(i.lv_disp_drv_register) refers to lv_obj.o(i.lv_obj_set_style) for lv_obj_set_style
    lv_hal_disp.o(i.lv_disp_drv_register) refers to lv_obj.o(i.lv_obj_invalidate) for lv_obj_invalidate
    lv_hal_disp.o(i.lv_disp_drv_register) refers to lv_task.o(i.lv_task_create) for lv_task_create
    lv_hal_disp.o(i.lv_disp_drv_register) refers to lv_task.o(i.lv_task_ready) for lv_task_ready
    lv_hal_disp.o(i.lv_disp_drv_register) refers to lv_gc.o(.bss) for _lv_disp_ll
    lv_hal_disp.o(i.lv_disp_drv_register) refers to lv_hal_disp.o(.data) for .data
    lv_hal_disp.o(i.lv_disp_drv_register) refers to lv_style.o(.bss) for lv_style_transp
    lv_hal_disp.o(i.lv_disp_drv_register) refers to lv_refr.o(i.lv_disp_refr_task) for lv_disp_refr_task
    lv_hal_disp.o(i.lv_disp_drv_update) refers to lv_ll.o(i.lv_ll_get_head) for lv_ll_get_head
    lv_hal_disp.o(i.lv_disp_drv_update) refers to lv_obj.o(i.lv_obj_set_size) for lv_obj_set_size
    lv_hal_disp.o(i.lv_disp_drv_update) refers to lv_ll.o(i.lv_ll_get_next) for lv_ll_get_next
    lv_hal_disp.o(i.lv_disp_drv_update) refers to lv_hal_disp.o(.data) for .data
    lv_hal_disp.o(i.lv_disp_get_antialiasing) refers to lv_hal_disp.o(.data) for .data
    lv_hal_disp.o(i.lv_disp_get_default) refers to lv_hal_disp.o(.data) for .data
    lv_hal_disp.o(i.lv_disp_get_hor_res) refers to lv_hal_disp.o(.data) for .data
    lv_hal_disp.o(i.lv_disp_get_next) refers to lv_ll.o(i.lv_ll_get_next) for lv_ll_get_next
    lv_hal_disp.o(i.lv_disp_get_next) refers to lv_ll.o(i.lv_ll_get_head) for lv_ll_get_head
    lv_hal_disp.o(i.lv_disp_get_next) refers to lv_gc.o(.bss) for _lv_disp_ll
    lv_hal_disp.o(i.lv_disp_get_ver_res) refers to lv_hal_disp.o(.data) for .data
    lv_hal_disp.o(i.lv_disp_remove) refers to lv_hal_indev.o(i.lv_indev_get_next) for lv_indev_get_next
    lv_hal_disp.o(i.lv_disp_remove) refers to lv_ll.o(i.lv_ll_rem) for lv_ll_rem
    lv_hal_disp.o(i.lv_disp_remove) refers to lv_mem.o(i.lv_mem_free) for lv_mem_free
    lv_hal_disp.o(i.lv_disp_remove) refers to lv_ll.o(i.lv_ll_get_head) for lv_ll_get_head
    lv_hal_disp.o(i.lv_disp_remove) refers to lv_hal_disp.o(.data) for .data
    lv_hal_disp.o(i.lv_disp_remove) refers to lv_gc.o(.bss) for _lv_disp_ll
    lv_hal_disp.o(i.lv_disp_set_default) refers to lv_hal_disp.o(.data) for .data
    lv_hal_indev.o(i.lv_indev_drv_register) refers to lv_hal_disp.o(i.lv_disp_get_default) for lv_disp_get_default
    lv_hal_indev.o(i.lv_indev_drv_register) refers to lv_ll.o(i.lv_ll_ins_head) for lv_ll_ins_head
    lv_hal_indev.o(i.lv_indev_drv_register) refers to memseta.o(.text) for __aeabi_memclr4
    lv_hal_indev.o(i.lv_indev_drv_register) refers to lv_task.o(i.lv_task_create) for lv_task_create
    lv_hal_indev.o(i.lv_indev_drv_register) refers to lv_gc.o(.bss) for _lv_indev_ll
    lv_hal_indev.o(i.lv_indev_drv_register) refers to lv_indev.o(i.lv_indev_read_task) for lv_indev_read_task
    lv_hal_indev.o(i.lv_indev_get_next) refers to lv_ll.o(i.lv_ll_get_next) for lv_ll_get_next
    lv_hal_indev.o(i.lv_indev_get_next) refers to lv_ll.o(i.lv_ll_get_head) for lv_ll_get_head
    lv_hal_indev.o(i.lv_indev_get_next) refers to lv_gc.o(.bss) for _lv_indev_ll
    lv_hal_tick.o(i.lv_tick_elaps) refers to delay.o(i.millis) for millis
    lv_hal_tick.o(i.lv_tick_get) refers to delay.o(i.millis) for millis
    lv_hal_tick.o(i.lv_tick_inc) refers to lv_hal_tick.o(.data) for .data
    lv_anim.o(i.anim_task) refers to lv_ll.o(i.lv_ll_get_head) for lv_ll_get_head
    lv_anim.o(i.anim_task) refers to lv_ll.o(i.lv_ll_get_next) for lv_ll_get_next
    lv_anim.o(i.anim_task) refers to lv_hal_tick.o(i.lv_tick_elaps) for lv_tick_elaps
    lv_anim.o(i.anim_task) refers to lv_ll.o(i.lv_ll_rem) for lv_ll_rem
    lv_anim.o(i.anim_task) refers to lv_mem.o(i.lv_mem_free) for lv_mem_free
    lv_anim.o(i.anim_task) refers to lv_hal_tick.o(i.lv_tick_get) for lv_tick_get
    lv_anim.o(i.anim_task) refers to lv_gc.o(.bss) for _lv_anim_ll
    lv_anim.o(i.anim_task) refers to lv_anim.o(.data) for .data
    lv_anim.o(i.lv_anim_core_init) refers to lv_ll.o(i.lv_ll_init) for lv_ll_init
    lv_anim.o(i.lv_anim_core_init) refers to lv_hal_tick.o(i.lv_tick_get) for lv_tick_get
    lv_anim.o(i.lv_anim_core_init) refers to lv_task.o(i.lv_task_create) for lv_task_create
    lv_anim.o(i.lv_anim_core_init) refers to lv_gc.o(.bss) for _lv_anim_ll
    lv_anim.o(i.lv_anim_core_init) refers to lv_anim.o(.data) for .data
    lv_anim.o(i.lv_anim_core_init) refers to lv_anim.o(i.anim_task) for anim_task
    lv_anim.o(i.lv_anim_count_running) refers to lv_ll.o(i.lv_ll_get_head) for lv_ll_get_head
    lv_anim.o(i.lv_anim_count_running) refers to lv_ll.o(i.lv_ll_get_next) for lv_ll_get_next
    lv_anim.o(i.lv_anim_count_running) refers to lv_gc.o(.bss) for _lv_anim_ll
    lv_anim.o(i.lv_anim_create) refers to lv_ll.o(i.lv_ll_get_head) for lv_ll_get_head
    lv_anim.o(i.lv_anim_create) refers to lv_ll.o(i.lv_ll_get_next) for lv_ll_get_next
    lv_anim.o(i.lv_anim_create) refers to lv_ll.o(i.lv_ll_rem) for lv_ll_rem
    lv_anim.o(i.lv_anim_create) refers to lv_mem.o(i.lv_mem_free) for lv_mem_free
    lv_anim.o(i.lv_anim_create) refers to lv_ll.o(i.lv_ll_ins_head) for lv_ll_ins_head
    lv_anim.o(i.lv_anim_create) refers to lv_anim.o(.data) for .data
    lv_anim.o(i.lv_anim_create) refers to lv_gc.o(.bss) for _lv_anim_ll
    lv_anim.o(i.lv_anim_del) refers to lv_ll.o(i.lv_ll_get_head) for lv_ll_get_head
    lv_anim.o(i.lv_anim_del) refers to lv_ll.o(i.lv_ll_get_next) for lv_ll_get_next
    lv_anim.o(i.lv_anim_del) refers to lv_ll.o(i.lv_ll_rem) for lv_ll_rem
    lv_anim.o(i.lv_anim_del) refers to lv_mem.o(i.lv_mem_free) for lv_mem_free
    lv_anim.o(i.lv_anim_del) refers to lv_gc.o(.bss) for _lv_anim_ll
    lv_anim.o(i.lv_anim_del) refers to lv_anim.o(.data) for .data
    lv_anim.o(i.lv_anim_init) refers to lv_anim.o(i.lv_anim_path_linear) for lv_anim_path_linear
    lv_anim.o(i.lv_anim_path_bounce) refers to lv_math.o(i.lv_bezier3) for lv_bezier3
    lv_anim.o(i.lv_anim_path_ease_in) refers to lv_math.o(i.lv_bezier3) for lv_bezier3
    lv_anim.o(i.lv_anim_path_ease_in_out) refers to lv_math.o(i.lv_bezier3) for lv_bezier3
    lv_anim.o(i.lv_anim_path_ease_out) refers to lv_math.o(i.lv_bezier3) for lv_bezier3
    lv_anim.o(i.lv_anim_path_overshoot) refers to lv_math.o(i.lv_bezier3) for lv_bezier3
    lv_async.o(i.lv_async_call) refers to lv_mem.o(i.lv_mem_alloc) for lv_mem_alloc
    lv_async.o(i.lv_async_call) refers to lv_task.o(i.lv_task_create) for lv_task_create
    lv_async.o(i.lv_async_call) refers to lv_task.o(i.lv_task_once) for lv_task_once
    lv_async.o(i.lv_async_call) refers to lv_mem.o(i.lv_mem_free) for lv_mem_free
    lv_async.o(i.lv_async_call) refers to lv_async.o(i.lv_async_task_cb) for lv_async_task_cb
    lv_async.o(i.lv_async_task_cb) refers to lv_mem.o(i.lv_mem_free) for lv_mem_free
    lv_fs.o(i.lv_fs_close) refers to lv_mem.o(i.lv_mem_free) for lv_mem_free
    lv_fs.o(i.lv_fs_dir_close) refers to lv_mem.o(i.lv_mem_free) for lv_mem_free
    lv_fs.o(i.lv_fs_dir_open) refers to lv_ll.o(i.lv_ll_get_head) for lv_ll_get_head
    lv_fs.o(i.lv_fs_dir_open) refers to lv_ll.o(i.lv_ll_get_next) for lv_ll_get_next
    lv_fs.o(i.lv_fs_dir_open) refers to lv_mem.o(i.lv_mem_alloc) for lv_mem_alloc
    lv_fs.o(i.lv_fs_dir_open) refers to lv_gc.o(.bss) for _lv_drv_ll
    lv_fs.o(i.lv_fs_drv_init) refers to memseta.o(.text) for __aeabi_memclr4
    lv_fs.o(i.lv_fs_drv_register) refers to lv_ll.o(i.lv_ll_ins_head) for lv_ll_ins_head
    lv_fs.o(i.lv_fs_drv_register) refers to memmovea.o(.text) for __aeabi_memcpy4
    lv_fs.o(i.lv_fs_drv_register) refers to lv_gc.o(.bss) for _lv_drv_ll
    lv_fs.o(i.lv_fs_free_space) refers to lv_ll.o(i.lv_ll_get_head) for lv_ll_get_head
    lv_fs.o(i.lv_fs_free_space) refers to lv_ll.o(i.lv_ll_get_next) for lv_ll_get_next
    lv_fs.o(i.lv_fs_free_space) refers to lv_gc.o(.bss) for _lv_drv_ll
    lv_fs.o(i.lv_fs_get_drv) refers to lv_ll.o(i.lv_ll_get_head) for lv_ll_get_head
    lv_fs.o(i.lv_fs_get_drv) refers to lv_ll.o(i.lv_ll_get_next) for lv_ll_get_next
    lv_fs.o(i.lv_fs_get_drv) refers to lv_gc.o(.bss) for _lv_drv_ll
    lv_fs.o(i.lv_fs_get_ext) refers to strlen.o(.text) for strlen
    lv_fs.o(i.lv_fs_get_last) refers to strlen.o(.text) for strlen
    lv_fs.o(i.lv_fs_get_letters) refers to lv_ll.o(i.lv_ll_get_head) for lv_ll_get_head
    lv_fs.o(i.lv_fs_get_letters) refers to lv_ll.o(i.lv_ll_get_next) for lv_ll_get_next
    lv_fs.o(i.lv_fs_get_letters) refers to lv_gc.o(.bss) for _lv_drv_ll
    lv_fs.o(i.lv_fs_init) refers to lv_ll.o(i.lv_ll_init) for lv_ll_init
    lv_fs.o(i.lv_fs_init) refers to lv_gc.o(.bss) for _lv_drv_ll
    lv_fs.o(i.lv_fs_is_ready) refers to lv_ll.o(i.lv_ll_get_head) for lv_ll_get_head
    lv_fs.o(i.lv_fs_is_ready) refers to lv_ll.o(i.lv_ll_get_next) for lv_ll_get_next
    lv_fs.o(i.lv_fs_is_ready) refers to lv_gc.o(.bss) for _lv_drv_ll
    lv_fs.o(i.lv_fs_open) refers to lv_ll.o(i.lv_ll_get_head) for lv_ll_get_head
    lv_fs.o(i.lv_fs_open) refers to lv_ll.o(i.lv_ll_get_next) for lv_ll_get_next
    lv_fs.o(i.lv_fs_open) refers to lv_mem.o(i.lv_mem_alloc) for lv_mem_alloc
    lv_fs.o(i.lv_fs_open) refers to lv_mem.o(i.lv_mem_free) for lv_mem_free
    lv_fs.o(i.lv_fs_open) refers to lv_gc.o(.bss) for _lv_drv_ll
    lv_fs.o(i.lv_fs_remove) refers to lv_ll.o(i.lv_ll_get_head) for lv_ll_get_head
    lv_fs.o(i.lv_fs_remove) refers to lv_ll.o(i.lv_ll_get_next) for lv_ll_get_next
    lv_fs.o(i.lv_fs_remove) refers to lv_gc.o(.bss) for _lv_drv_ll
    lv_fs.o(i.lv_fs_rename) refers to lv_ll.o(i.lv_ll_get_head) for lv_ll_get_head
    lv_fs.o(i.lv_fs_rename) refers to lv_ll.o(i.lv_ll_get_next) for lv_ll_get_next
    lv_fs.o(i.lv_fs_rename) refers to lv_gc.o(.bss) for _lv_drv_ll
    lv_fs.o(i.lv_fs_up) refers to strlen.o(.text) for strlen
    lv_ll.o(i.lv_ll_chg_list) refers to lv_ll.o(i.lv_ll_rem) for lv_ll_rem
    lv_ll.o(i.lv_ll_chg_list) refers to memseta.o(.text) for __aeabi_memclr
    lv_ll.o(i.lv_ll_chg_list) refers to memmovea.o(.text) for __aeabi_memcpy
    lv_ll.o(i.lv_ll_clear) refers to lv_ll.o(i.lv_ll_rem) for lv_ll_rem
    lv_ll.o(i.lv_ll_clear) refers to lv_mem.o(i.lv_mem_free) for lv_mem_free
    lv_ll.o(i.lv_ll_ins_head) refers to lv_mem.o(i.lv_mem_alloc) for lv_mem_alloc
    lv_ll.o(i.lv_ll_ins_head) refers to memseta.o(.text) for __aeabi_memclr
    lv_ll.o(i.lv_ll_ins_head) refers to memmovea.o(.text) for __aeabi_memcpy
    lv_ll.o(i.lv_ll_ins_prev) refers to lv_ll.o(i.lv_ll_ins_head) for lv_ll_ins_head
    lv_ll.o(i.lv_ll_ins_prev) refers to lv_mem.o(i.lv_mem_alloc) for lv_mem_alloc
    lv_ll.o(i.lv_ll_ins_prev) refers to memmovea.o(.text) for __aeabi_memcpy
    lv_ll.o(i.lv_ll_ins_prev) refers to memseta.o(.text) for __aeabi_memclr
    lv_ll.o(i.lv_ll_ins_tail) refers to lv_mem.o(i.lv_mem_alloc) for lv_mem_alloc
    lv_ll.o(i.lv_ll_ins_tail) refers to memseta.o(.text) for __aeabi_memclr
    lv_ll.o(i.lv_ll_ins_tail) refers to memmovea.o(.text) for __aeabi_memcpy
    lv_ll.o(i.lv_ll_move_before) refers to lv_ll.o(i.lv_ll_rem) for lv_ll_rem
    lv_ll.o(i.lv_ll_move_before) refers to memmovea.o(.text) for __aeabi_memcpy
    lv_ll.o(i.lv_ll_move_before) refers to memseta.o(.text) for __aeabi_memclr
    lv_ll.o(i.lv_ll_rem) refers to memseta.o(.text) for __aeabi_memclr
    lv_ll.o(i.lv_ll_rem) refers to memmovea.o(.text) for __aeabi_memcpy
    lv_math.o(i.lv_trigo_sin) refers to lv_math.o(.data) for .data
    lv_mem.o(i.lv_mem_alloc) refers to heap_2.o(i.pvPortMalloc) for pvPortMalloc
    lv_mem.o(i.lv_mem_alloc) refers to memseta.o(.text) for __aeabi_memset
    lv_mem.o(i.lv_mem_alloc) refers to lv_mem.o(.data) for .data
    lv_mem.o(i.lv_mem_free) refers to memseta.o(.text) for __aeabi_memset
    lv_mem.o(i.lv_mem_free) refers to heap_2.o(i.vPortFree) for vPortFree
    lv_mem.o(i.lv_mem_free) refers to lv_mem.o(.data) for .data
    lv_mem.o(i.lv_mem_get_size) refers to lv_mem.o(.data) for .data
    lv_mem.o(i.lv_mem_realloc) refers to heap_2.o(i.pvPortMalloc) for pvPortMalloc
    lv_mem.o(i.lv_mem_realloc) refers to memseta.o(.text) for __aeabi_memset
    lv_mem.o(i.lv_mem_realloc) refers to memmovea.o(.text) for __aeabi_memcpy
    lv_mem.o(i.lv_mem_realloc) refers to heap_2.o(i.vPortFree) for vPortFree
    lv_mem.o(i.lv_mem_realloc) refers to lv_mem.o(.data) for .data
    lv_task.o(i.lv_task_core_init) refers to lv_ll.o(i.lv_ll_init) for lv_ll_init
    lv_task.o(i.lv_task_core_init) refers to lv_gc.o(.bss) for _lv_task_ll
    lv_task.o(i.lv_task_core_init) refers to lv_task.o(.data) for .data
    lv_task.o(i.lv_task_create) refers to lv_ll.o(i.lv_ll_get_head) for lv_ll_get_head
    lv_task.o(i.lv_task_create) refers to lv_ll.o(i.lv_ll_ins_head) for lv_ll_ins_head
    lv_task.o(i.lv_task_create) refers to lv_ll.o(i.lv_ll_ins_prev) for lv_ll_ins_prev
    lv_task.o(i.lv_task_create) refers to lv_ll.o(i.lv_ll_get_next) for lv_ll_get_next
    lv_task.o(i.lv_task_create) refers to lv_ll.o(i.lv_ll_ins_tail) for lv_ll_ins_tail
    lv_task.o(i.lv_task_create) refers to lv_hal_tick.o(i.lv_tick_get) for lv_tick_get
    lv_task.o(i.lv_task_create) refers to lv_ll.o(i.lv_ll_move_before) for lv_ll_move_before
    lv_task.o(i.lv_task_create) refers to lv_gc.o(.bss) for _lv_task_ll
    lv_task.o(i.lv_task_create) refers to lv_task.o(.data) for .data
    lv_task.o(i.lv_task_create_basic) refers to lv_ll.o(i.lv_ll_get_head) for lv_ll_get_head
    lv_task.o(i.lv_task_create_basic) refers to lv_ll.o(i.lv_ll_ins_head) for lv_ll_ins_head
    lv_task.o(i.lv_task_create_basic) refers to lv_ll.o(i.lv_ll_ins_prev) for lv_ll_ins_prev
    lv_task.o(i.lv_task_create_basic) refers to lv_ll.o(i.lv_ll_get_next) for lv_ll_get_next
    lv_task.o(i.lv_task_create_basic) refers to lv_ll.o(i.lv_ll_ins_tail) for lv_ll_ins_tail
    lv_task.o(i.lv_task_create_basic) refers to lv_hal_tick.o(i.lv_tick_get) for lv_tick_get
    lv_task.o(i.lv_task_create_basic) refers to lv_gc.o(.bss) for _lv_task_ll
    lv_task.o(i.lv_task_create_basic) refers to lv_task.o(.data) for .data
    lv_task.o(i.lv_task_del) refers to lv_ll.o(i.lv_ll_rem) for lv_ll_rem
    lv_task.o(i.lv_task_del) refers to lv_mem.o(i.lv_mem_free) for lv_mem_free
    lv_task.o(i.lv_task_del) refers to lv_gc.o(.bss) for _lv_task_ll
    lv_task.o(i.lv_task_del) refers to lv_gc.o(.data) for _lv_task_act
    lv_task.o(i.lv_task_del) refers to lv_task.o(.data) for .data
    lv_task.o(i.lv_task_enable) refers to lv_task.o(.data) for .data
    lv_task.o(i.lv_task_get_idle) refers to lv_task.o(.data) for .data
    lv_task.o(i.lv_task_handler) refers to lv_hal_tick.o(i.lv_tick_get) for lv_tick_get
    lv_task.o(i.lv_task_handler) refers to lv_ll.o(i.lv_ll_get_head) for lv_ll_get_head
    lv_task.o(i.lv_task_handler) refers to lv_ll.o(i.lv_ll_get_next) for lv_ll_get_next
    lv_task.o(i.lv_task_handler) refers to lv_hal_tick.o(i.lv_tick_elaps) for lv_tick_elaps
    lv_task.o(i.lv_task_handler) refers to lv_ll.o(i.lv_ll_rem) for lv_ll_rem
    lv_task.o(i.lv_task_handler) refers to lv_mem.o(i.lv_mem_free) for lv_mem_free
    lv_task.o(i.lv_task_handler) refers to lv_task.o(.data) for .data
    lv_task.o(i.lv_task_handler) refers to lv_gc.o(.data) for _lv_task_act
    lv_task.o(i.lv_task_handler) refers to lv_gc.o(.bss) for _lv_task_ll
    lv_task.o(i.lv_task_ready) refers to lv_hal_tick.o(i.lv_tick_get) for lv_tick_get
    lv_task.o(i.lv_task_reset) refers to lv_hal_tick.o(i.lv_tick_get) for lv_tick_get
    lv_task.o(i.lv_task_set_prio) refers to lv_ll.o(i.lv_ll_get_head) for lv_ll_get_head
    lv_task.o(i.lv_task_set_prio) refers to lv_ll.o(i.lv_ll_move_before) for lv_ll_move_before
    lv_task.o(i.lv_task_set_prio) refers to lv_ll.o(i.lv_ll_get_next) for lv_ll_get_next
    lv_task.o(i.lv_task_set_prio) refers to lv_gc.o(.bss) for _lv_task_ll
    lv_txt.o(i.lv_txt_cut) refers to strlen.o(.text) for strlen
    lv_txt.o(i.lv_txt_cut) refers to lv_txt.o(.data) for .data
    lv_txt.o(i.lv_txt_get_next_line) refers to lv_font.o(i.lv_font_get_glyph_width) for lv_font_get_glyph_width
    lv_txt.o(i.lv_txt_get_next_line) refers to lv_txt.o(.data) for .data
    lv_txt.o(i.lv_txt_get_size) refers to lv_font.o(i.lv_font_get_glyph_width) for lv_font_get_glyph_width
    lv_txt.o(i.lv_txt_get_size) refers to lv_txt.o(.data) for .data
    lv_txt.o(i.lv_txt_get_size) refers to lv_txt.o(i.lv_txt_get_next_line) for i.lv_txt_get_next_line
    lv_txt.o(i.lv_txt_get_width) refers to lv_font.o(i.lv_font_get_glyph_width) for lv_font_get_glyph_width
    lv_txt.o(i.lv_txt_get_width) refers to lv_txt.o(.data) for .data
    lv_txt.o(i.lv_txt_ins) refers to strlen.o(.text) for strlen
    lv_txt.o(i.lv_txt_ins) refers to memmovea.o(.text) for __aeabi_memcpy
    lv_txt.o(i.lv_txt_ins) refers to lv_txt.o(.data) for .data
    lv_txt.o(i.lv_txt_utf8_get_byte_id) refers to lv_txt.o(.data) for .data
    lv_txt.o(i.lv_txt_utf8_get_char_id) refers to lv_txt.o(.data) for .data
    lv_txt.o(i.lv_txt_utf8_get_length) refers to lv_txt.o(.data) for .data
    lv_txt.o(i.lv_txt_utf8_prev) refers to lv_txt.o(.data) for .data
    lv_txt.o(.data) refers to lv_txt.o(i.lv_txt_utf8_size) for lv_txt_utf8_size
    lv_txt.o(.data) refers to lv_txt.o(i.lv_txt_utf8_next) for lv_txt_utf8_next
    lv_txt.o(.data) refers to lv_txt.o(i.lv_txt_utf8_prev) for lv_txt_utf8_prev
    lv_txt.o(.data) refers to lv_txt.o(i.lv_txt_utf8_get_byte_id) for lv_txt_utf8_get_byte_id
    lv_txt.o(.data) refers to lv_txt.o(i.lv_txt_unicode_to_utf8) for lv_txt_unicode_to_utf8
    lv_txt.o(.data) refers to lv_txt.o(i.lv_txt_utf8_conv_wc) for lv_txt_utf8_conv_wc
    lv_txt.o(.data) refers to lv_txt.o(i.lv_txt_utf8_get_char_id) for lv_txt_utf8_get_char_id
    lv_txt.o(.data) refers to lv_txt.o(i.lv_txt_utf8_get_length) for lv_txt_utf8_get_length
    lv_arc.o(i.lv_arc_create) refers to lv_obj.o(i.lv_obj_create) for lv_obj_create
    lv_arc.o(i.lv_arc_create) refers to lv_obj.o(i.lv_obj_allocate_ext_attr) for lv_obj_allocate_ext_attr
    lv_arc.o(i.lv_arc_create) refers to lv_obj.o(i.lv_obj_get_signal_cb) for lv_obj_get_signal_cb
    lv_arc.o(i.lv_arc_create) refers to lv_obj.o(i.lv_obj_get_design_cb) for lv_obj_get_design_cb
    lv_arc.o(i.lv_arc_create) refers to lv_obj.o(i.lv_obj_set_signal_cb) for lv_obj_set_signal_cb
    lv_arc.o(i.lv_arc_create) refers to lv_obj.o(i.lv_obj_set_design_cb) for lv_obj_set_design_cb
    lv_arc.o(i.lv_arc_create) refers to lv_obj.o(i.lv_obj_get_ext_attr) for lv_obj_get_ext_attr
    lv_arc.o(i.lv_arc_create) refers to lv_obj.o(i.lv_obj_refresh_style) for lv_obj_refresh_style
    lv_arc.o(i.lv_arc_create) refers to lv_theme.o(i.lv_theme_get_current) for lv_theme_get_current
    lv_arc.o(i.lv_arc_create) refers to lv_obj.o(i.lv_obj_set_style) for lv_obj_set_style
    lv_arc.o(i.lv_arc_create) refers to lv_arc.o(.data) for .data
    lv_arc.o(i.lv_arc_create) refers to lv_arc.o(i.lv_arc_signal) for lv_arc_signal
    lv_arc.o(i.lv_arc_create) refers to lv_arc.o(i.lv_arc_design) for lv_arc_design
    lv_arc.o(i.lv_arc_create) refers to lv_style.o(.bss) for lv_style_plain_color
    lv_arc.o(i.lv_arc_design) refers to lv_obj.o(i.lv_obj_get_ext_attr) for lv_obj_get_ext_attr
    lv_arc.o(i.lv_arc_design) refers to lv_obj.o(i.lv_obj_get_style) for lv_obj_get_style
    lv_arc.o(i.lv_arc_design) refers to lv_obj.o(i.lv_obj_get_width) for lv_obj_get_width
    lv_arc.o(i.lv_arc_design) refers to lv_obj.o(i.lv_obj_get_height) for lv_obj_get_height
    lv_arc.o(i.lv_arc_design) refers to lv_obj.o(i.lv_obj_get_opa_scale) for lv_obj_get_opa_scale
    lv_arc.o(i.lv_arc_design) refers to lv_draw_arc.o(i.lv_draw_arc) for lv_draw_arc
    lv_arc.o(i.lv_arc_design) refers to lv_math.o(i.lv_trigo_sin) for lv_trigo_sin
    lv_arc.o(i.lv_arc_design) refers to lv_style.o(i.lv_style_copy) for lv_style_copy
    lv_arc.o(i.lv_arc_design) refers to lv_draw_rect.o(i.lv_draw_rect) for lv_draw_rect
    lv_arc.o(i.lv_arc_design) refers to lv_style.o(.bss) for lv_style_plain
    lv_arc.o(i.lv_arc_get_angle_end) refers to lv_obj.o(i.lv_obj_get_ext_attr) for lv_obj_get_ext_attr
    lv_arc.o(i.lv_arc_get_angle_start) refers to lv_obj.o(i.lv_obj_get_ext_attr) for lv_obj_get_ext_attr
    lv_arc.o(i.lv_arc_get_style) refers to lv_obj.o(i.lv_obj_get_style) for lv_obj_get_style
    lv_arc.o(i.lv_arc_set_angles) refers to lv_obj.o(i.lv_obj_get_ext_attr) for lv_obj_get_ext_attr
    lv_arc.o(i.lv_arc_set_angles) refers to lv_obj.o(i.lv_obj_invalidate) for lv_obj_invalidate
    lv_arc.o(i.lv_arc_set_style) refers to lv_obj.o(i.lv_obj_set_style) for lv_obj_set_style
    lv_arc.o(i.lv_arc_signal) refers to lv_arc.o(.data) for .data
    lv_bar.o(i.lv_bar_anim) refers to lv_obj.o(i.lv_obj_get_ext_attr) for lv_obj_get_ext_attr
    lv_bar.o(i.lv_bar_anim) refers to lv_obj.o(i.lv_obj_invalidate) for lv_obj_invalidate
    lv_bar.o(i.lv_bar_anim_ready) refers to lv_obj.o(i.lv_obj_get_ext_attr) for lv_obj_get_ext_attr
    lv_bar.o(i.lv_bar_anim_ready) refers to lv_bar.o(i.lv_bar_set_value) for lv_bar_set_value
    lv_bar.o(i.lv_bar_create) refers to lv_obj.o(i.lv_obj_create) for lv_obj_create
    lv_bar.o(i.lv_bar_create) refers to lv_obj.o(i.lv_obj_get_signal_cb) for lv_obj_get_signal_cb
    lv_bar.o(i.lv_bar_create) refers to lv_obj.o(i.lv_obj_get_design_cb) for lv_obj_get_design_cb
    lv_bar.o(i.lv_bar_create) refers to lv_obj.o(i.lv_obj_allocate_ext_attr) for lv_obj_allocate_ext_attr
    lv_bar.o(i.lv_bar_create) refers to lv_obj.o(i.lv_obj_set_signal_cb) for lv_obj_set_signal_cb
    lv_bar.o(i.lv_bar_create) refers to lv_obj.o(i.lv_obj_set_design_cb) for lv_obj_set_design_cb
    lv_bar.o(i.lv_bar_create) refers to lv_obj.o(i.lv_obj_get_ext_attr) for lv_obj_get_ext_attr
    lv_bar.o(i.lv_bar_create) refers to lv_obj.o(i.lv_obj_refresh_style) for lv_obj_refresh_style
    lv_bar.o(i.lv_bar_create) refers to lv_bar.o(i.lv_bar_set_value) for lv_bar_set_value
    lv_bar.o(i.lv_bar_create) refers to lv_obj.o(i.lv_obj_set_click) for lv_obj_set_click
    lv_bar.o(i.lv_bar_create) refers to lv_obj.o(i.lv_obj_set_size) for lv_obj_set_size
    lv_bar.o(i.lv_bar_create) refers to lv_theme.o(i.lv_theme_get_current) for lv_theme_get_current
    lv_bar.o(i.lv_bar_create) refers to lv_obj.o(i.lv_obj_set_style) for lv_obj_set_style
    lv_bar.o(i.lv_bar_create) refers to lv_obj.o(i.lv_obj_refresh_ext_draw_pad) for lv_obj_refresh_ext_draw_pad
    lv_bar.o(i.lv_bar_create) refers to lv_bar.o(.data) for .data
    lv_bar.o(i.lv_bar_create) refers to lv_style.o(.bss) for lv_style_pretty_color
    lv_bar.o(i.lv_bar_create) refers to lv_bar.o(i.lv_bar_signal) for lv_bar_signal
    lv_bar.o(i.lv_bar_create) refers to lv_bar.o(i.lv_bar_design) for lv_bar_design
    lv_bar.o(i.lv_bar_design) refers to lv_obj.o(i.lv_obj_get_opa_scale) for lv_obj_get_opa_scale
    lv_bar.o(i.lv_bar_design) refers to lv_obj.o(i.lv_obj_is_focused) for lv_obj_is_focused
    lv_bar.o(i.lv_bar_design) refers to lv_obj.o(i.lv_obj_get_ext_attr) for lv_obj_get_ext_attr
    lv_bar.o(i.lv_bar_design) refers to lv_obj.o(i.lv_obj_get_style) for lv_obj_get_style
    lv_bar.o(i.lv_bar_design) refers to lv_style.o(i.lv_style_copy) for lv_style_copy
    lv_bar.o(i.lv_bar_design) refers to lv_draw_rect.o(i.lv_draw_rect) for lv_draw_rect
    lv_bar.o(i.lv_bar_design) refers to lv_bar.o(.data) for .data
    lv_bar.o(i.lv_bar_get_anim_time) refers to lv_obj.o(i.lv_obj_get_ext_attr) for lv_obj_get_ext_attr
    lv_bar.o(i.lv_bar_get_max_value) refers to lv_obj.o(i.lv_obj_get_ext_attr) for lv_obj_get_ext_attr
    lv_bar.o(i.lv_bar_get_min_value) refers to lv_obj.o(i.lv_obj_get_ext_attr) for lv_obj_get_ext_attr
    lv_bar.o(i.lv_bar_get_style) refers to lv_obj.o(i.lv_obj_get_ext_attr) for lv_obj_get_ext_attr
    lv_bar.o(i.lv_bar_get_style) refers to lv_obj.o(i.lv_obj_get_style) for lv_obj_get_style
    lv_bar.o(i.lv_bar_get_sym) refers to lv_obj.o(i.lv_obj_get_ext_attr) for lv_obj_get_ext_attr
    lv_bar.o(i.lv_bar_get_value) refers to lv_obj.o(i.lv_obj_get_ext_attr) for lv_obj_get_ext_attr
    lv_bar.o(i.lv_bar_set_anim_time) refers to lv_obj.o(i.lv_obj_get_ext_attr) for lv_obj_get_ext_attr
    lv_bar.o(i.lv_bar_set_range) refers to lv_obj.o(i.lv_obj_get_ext_attr) for lv_obj_get_ext_attr
    lv_bar.o(i.lv_bar_set_range) refers to lv_bar.o(i.lv_bar_set_value) for lv_bar_set_value
    lv_bar.o(i.lv_bar_set_range) refers to lv_obj.o(i.lv_obj_invalidate) for lv_obj_invalidate
    lv_bar.o(i.lv_bar_set_style) refers to lv_obj.o(i.lv_obj_get_ext_attr) for lv_obj_get_ext_attr
    lv_bar.o(i.lv_bar_set_style) refers to lv_obj.o(i.lv_obj_refresh_ext_draw_pad) for lv_obj_refresh_ext_draw_pad
    lv_bar.o(i.lv_bar_set_style) refers to lv_obj.o(i.lv_obj_set_style) for lv_obj_set_style
    lv_bar.o(i.lv_bar_set_sym) refers to lv_obj.o(i.lv_obj_get_ext_attr) for lv_obj_get_ext_attr
    lv_bar.o(i.lv_bar_set_value) refers to lv_obj.o(i.lv_obj_get_ext_attr) for lv_obj_get_ext_attr
    lv_bar.o(i.lv_bar_set_value) refers to lv_anim.o(i.lv_anim_create) for lv_anim_create
    lv_bar.o(i.lv_bar_set_value) refers to lv_obj.o(i.lv_obj_invalidate) for lv_obj_invalidate
    lv_bar.o(i.lv_bar_set_value) refers to lv_bar.o(i.lv_bar_anim) for lv_bar_anim
    lv_bar.o(i.lv_bar_set_value) refers to lv_anim.o(i.lv_anim_path_linear) for lv_anim_path_linear
    lv_bar.o(i.lv_bar_set_value) refers to lv_bar.o(i.lv_bar_anim_ready) for lv_bar_anim_ready
    lv_bar.o(i.lv_bar_signal) refers to lv_obj.o(i.lv_obj_get_ext_attr) for lv_obj_get_ext_attr
    lv_bar.o(i.lv_bar_signal) refers to lv_bar.o(.data) for .data
    lv_btn.o(i.lv_btn_create) refers to lv_cont.o(i.lv_cont_create) for lv_cont_create
    lv_btn.o(i.lv_btn_create) refers to lv_obj.o(i.lv_obj_get_signal_cb) for lv_obj_get_signal_cb
    lv_btn.o(i.lv_btn_create) refers to lv_obj.o(i.lv_obj_get_design_cb) for lv_obj_get_design_cb
    lv_btn.o(i.lv_btn_create) refers to lv_obj.o(i.lv_obj_allocate_ext_attr) for lv_obj_allocate_ext_attr
    lv_btn.o(i.lv_btn_create) refers to lv_obj.o(i.lv_obj_set_signal_cb) for lv_obj_set_signal_cb
    lv_btn.o(i.lv_btn_create) refers to lv_obj.o(i.lv_obj_set_design_cb) for lv_obj_set_design_cb
    lv_btn.o(i.lv_btn_create) refers to lv_obj.o(i.lv_obj_get_ext_attr) for lv_obj_get_ext_attr
    lv_btn.o(i.lv_btn_create) refers to lv_obj.o(i.lv_obj_refresh_style) for lv_obj_refresh_style
    lv_btn.o(i.lv_btn_create) refers to lv_cont.o(i.lv_cont_set_layout) for lv_cont_set_layout
    lv_btn.o(i.lv_btn_create) refers to lv_obj.o(i.lv_obj_set_click) for lv_obj_set_click
    lv_btn.o(i.lv_btn_create) refers to lv_theme.o(i.lv_theme_get_current) for lv_theme_get_current
    lv_btn.o(i.lv_btn_create) refers to lv_btn.o(i.lv_btn_set_style) for lv_btn_set_style
    lv_btn.o(i.lv_btn_create) refers to lv_obj.o(i.lv_obj_set_style) for lv_obj_set_style
    lv_btn.o(i.lv_btn_create) refers to lv_btn.o(.data) for .data
    lv_btn.o(i.lv_btn_create) refers to lv_style.o(.bss) for lv_style_btn_rel
    lv_btn.o(i.lv_btn_create) refers to lv_btn.o(i.lv_btn_signal) for lv_btn_signal
    lv_btn.o(i.lv_btn_create) refers to lv_btn.o(i.lv_btn_design) for lv_btn_design
    lv_btn.o(i.lv_btn_design) refers to lv_btn.o(.data) for .data
    lv_btn.o(i.lv_btn_get_state) refers to lv_obj.o(i.lv_obj_get_ext_attr) for lv_obj_get_ext_attr
    lv_btn.o(i.lv_btn_get_style) refers to lv_obj.o(i.lv_obj_get_ext_attr) for lv_obj_get_ext_attr
    lv_btn.o(i.lv_btn_get_style) refers to lv_obj.o(i.lv_obj_get_style) for lv_obj_get_style
    lv_btn.o(i.lv_btn_get_toggle) refers to lv_obj.o(i.lv_obj_get_ext_attr) for lv_obj_get_ext_attr
    lv_btn.o(i.lv_btn_set_state) refers to lv_obj.o(i.lv_obj_get_ext_attr) for lv_obj_get_ext_attr
    lv_btn.o(i.lv_btn_set_state) refers to lv_obj.o(i.lv_obj_set_style) for lv_obj_set_style
    lv_btn.o(i.lv_btn_set_style) refers to lv_obj.o(i.lv_obj_get_ext_attr) for lv_obj_get_ext_attr
    lv_btn.o(i.lv_btn_set_style) refers to lv_obj.o(i.lv_obj_set_style) for lv_obj_set_style
    lv_btn.o(i.lv_btn_set_toggle) refers to lv_obj.o(i.lv_obj_get_ext_attr) for lv_obj_get_ext_attr
    lv_btn.o(i.lv_btn_signal) refers to lv_obj.o(i.lv_obj_get_ext_attr) for lv_obj_get_ext_attr
    lv_btn.o(i.lv_btn_signal) refers to lv_obj.o(i.lv_obj_set_style) for lv_obj_set_style
    lv_btn.o(i.lv_btn_signal) refers to lv_indev.o(i.lv_indev_is_dragging) for lv_indev_is_dragging
    lv_btn.o(i.lv_btn_signal) refers to lv_obj.o(i.lv_event_send) for lv_event_send
    lv_btn.o(i.lv_btn_signal) refers to lv_btn.o(.data) for .data
    lv_btn.o(i.lv_btn_toggle) refers to lv_obj.o(i.lv_obj_get_ext_attr) for lv_obj_get_ext_attr
    lv_btn.o(i.lv_btn_toggle) refers to lv_obj.o(i.lv_obj_set_style) for lv_obj_set_style
    lv_btnm.o(i.invalidate_button_area) refers to lv_obj.o(i.lv_obj_get_ext_attr) for lv_obj_get_ext_attr
    lv_btnm.o(i.invalidate_button_area) refers to lv_obj.o(i.lv_obj_get_coords) for lv_obj_get_coords
    lv_btnm.o(i.invalidate_button_area) refers to lv_obj.o(i.lv_obj_get_disp) for lv_obj_get_disp
    lv_btnm.o(i.invalidate_button_area) refers to lv_refr.o(i.lv_inv_area) for lv_inv_area
    lv_btnm.o(i.lv_btnm_clear_btn_ctrl) refers to lv_obj.o(i.lv_obj_get_ext_attr) for lv_obj_get_ext_attr
    lv_btnm.o(i.lv_btnm_clear_btn_ctrl) refers to lv_btnm.o(i.invalidate_button_area) for invalidate_button_area
    lv_btnm.o(i.lv_btnm_clear_btn_ctrl_all) refers to lv_obj.o(i.lv_obj_get_ext_attr) for lv_obj_get_ext_attr
    lv_btnm.o(i.lv_btnm_clear_btn_ctrl_all) refers to lv_btnm.o(i.invalidate_button_area) for invalidate_button_area
    lv_btnm.o(i.lv_btnm_create) refers to lv_obj.o(i.lv_obj_create) for lv_obj_create
    lv_btnm.o(i.lv_btnm_create) refers to lv_obj.o(i.lv_obj_get_signal_cb) for lv_obj_get_signal_cb
    lv_btnm.o(i.lv_btnm_create) refers to lv_obj.o(i.lv_obj_allocate_ext_attr) for lv_obj_allocate_ext_attr
    lv_btnm.o(i.lv_btnm_create) refers to lv_obj.o(i.lv_obj_get_design_cb) for lv_obj_get_design_cb
    lv_btnm.o(i.lv_btnm_create) refers to lv_obj.o(i.lv_obj_set_signal_cb) for lv_obj_set_signal_cb
    lv_btnm.o(i.lv_btnm_create) refers to lv_obj.o(i.lv_obj_set_design_cb) for lv_obj_set_design_cb
    lv_btnm.o(i.lv_btnm_create) refers to lv_obj.o(i.lv_obj_get_ext_attr) for lv_obj_get_ext_attr
    lv_btnm.o(i.lv_btnm_create) refers to lv_btnm.o(i.lv_btnm_set_map) for lv_btnm_set_map
    lv_btnm.o(i.lv_btnm_create) refers to lv_obj.o(i.lv_obj_set_size) for lv_obj_set_size
    lv_btnm.o(i.lv_btnm_create) refers to lv_theme.o(i.lv_theme_get_current) for lv_theme_get_current
    lv_btnm.o(i.lv_btnm_create) refers to lv_btnm.o(i.lv_btnm_set_style) for lv_btnm_set_style
    lv_btnm.o(i.lv_btnm_create) refers to lv_obj.o(i.lv_obj_set_style) for lv_obj_set_style
    lv_btnm.o(i.lv_btnm_create) refers to lv_btnm.o(.data) for .data
    lv_btnm.o(i.lv_btnm_create) refers to lv_style.o(.bss) for lv_style_btn_rel
    lv_btnm.o(i.lv_btnm_create) refers to lv_btnm.o(i.lv_btnm_signal) for lv_btnm_signal
    lv_btnm.o(i.lv_btnm_create) refers to lv_btnm.o(i.lv_btnm_design) for lv_btnm_design
    lv_btnm.o(i.lv_btnm_design) refers to lv_obj.o(i.lv_obj_get_ext_attr) for lv_obj_get_ext_attr
    lv_btnm.o(i.lv_btnm_design) refers to lv_obj.o(i.lv_obj_get_style) for lv_obj_get_style
    lv_btnm.o(i.lv_btnm_design) refers to lv_obj.o(i.lv_obj_get_opa_scale) for lv_obj_get_opa_scale
    lv_btnm.o(i.lv_btnm_design) refers to lv_obj.o(i.lv_obj_get_coords) for lv_obj_get_coords
    lv_btnm.o(i.lv_btnm_design) refers to strcmp.o(.text) for strcmp
    lv_btnm.o(i.lv_btnm_design) refers to lv_btnm.o(i.lv_btnm_get_style) for lv_btnm_get_style
    lv_btnm.o(i.lv_btnm_design) refers to lv_style.o(i.lv_style_copy) for lv_style_copy
    lv_btnm.o(i.lv_btnm_design) refers to lv_draw_rect.o(i.lv_draw_rect) for lv_draw_rect
    lv_btnm.o(i.lv_btnm_design) refers to lv_txt.o(i.lv_txt_get_size) for lv_txt_get_size
    lv_btnm.o(i.lv_btnm_design) refers to lv_draw_label.o(i.lv_draw_label) for lv_draw_label
    lv_btnm.o(i.lv_btnm_design) refers to lv_btnm.o(.data) for .data
    lv_btnm.o(i.lv_btnm_get_active_btn) refers to lv_obj.o(i.lv_obj_get_ext_attr) for lv_obj_get_ext_attr
    lv_btnm.o(i.lv_btnm_get_active_btn_text) refers to lv_obj.o(i.lv_obj_get_ext_attr) for lv_obj_get_ext_attr
    lv_btnm.o(i.lv_btnm_get_active_btn_text) refers to strcmp.o(.text) for strcmp
    lv_btnm.o(i.lv_btnm_get_active_btn_text) refers to lv_btnm.o(i.lv_btnm_set_map) for i.lv_btnm_set_map
    lv_btnm.o(i.lv_btnm_get_btn_ctrl) refers to lv_obj.o(i.lv_obj_get_ext_attr) for lv_obj_get_ext_attr
    lv_btnm.o(i.lv_btnm_get_btn_text) refers to lv_obj.o(i.lv_obj_get_ext_attr) for lv_obj_get_ext_attr
    lv_btnm.o(i.lv_btnm_get_btn_text) refers to strcmp.o(.text) for strcmp
    lv_btnm.o(i.lv_btnm_get_btn_text) refers to lv_btnm.o(i.lv_btnm_set_map) for i.lv_btnm_set_map
    lv_btnm.o(i.lv_btnm_get_map_array) refers to lv_obj.o(i.lv_obj_get_ext_attr) for lv_obj_get_ext_attr
    lv_btnm.o(i.lv_btnm_get_one_toggle) refers to lv_obj.o(i.lv_obj_get_ext_attr) for lv_obj_get_ext_attr
    lv_btnm.o(i.lv_btnm_get_pressed_btn) refers to lv_obj.o(i.lv_obj_get_ext_attr) for lv_obj_get_ext_attr
    lv_btnm.o(i.lv_btnm_get_recolor) refers to lv_obj.o(i.lv_obj_get_ext_attr) for lv_obj_get_ext_attr
    lv_btnm.o(i.lv_btnm_get_style) refers to lv_obj.o(i.lv_obj_get_ext_attr) for lv_obj_get_ext_attr
    lv_btnm.o(i.lv_btnm_get_style) refers to lv_obj.o(i.lv_obj_get_style) for lv_obj_get_style
    lv_btnm.o(i.lv_btnm_set_btn_ctrl) refers to lv_obj.o(i.lv_obj_get_ext_attr) for lv_obj_get_ext_attr
    lv_btnm.o(i.lv_btnm_set_btn_ctrl) refers to lv_btnm.o(i.invalidate_button_area) for invalidate_button_area
    lv_btnm.o(i.lv_btnm_set_btn_ctrl_all) refers to lv_obj.o(i.lv_obj_get_ext_attr) for lv_obj_get_ext_attr
    lv_btnm.o(i.lv_btnm_set_btn_ctrl_all) refers to lv_btnm.o(i.invalidate_button_area) for invalidate_button_area
    lv_btnm.o(i.lv_btnm_set_btn_width) refers to lv_obj.o(i.lv_obj_get_ext_attr) for lv_obj_get_ext_attr
    lv_btnm.o(i.lv_btnm_set_btn_width) refers to lv_btnm.o(i.lv_btnm_set_map) for lv_btnm_set_map
    lv_btnm.o(i.lv_btnm_set_ctrl_map) refers to lv_obj.o(i.lv_obj_get_ext_attr) for lv_obj_get_ext_attr
    lv_btnm.o(i.lv_btnm_set_ctrl_map) refers to memmovea.o(.text) for __aeabi_memcpy
    lv_btnm.o(i.lv_btnm_set_ctrl_map) refers to lv_btnm.o(i.lv_btnm_set_map) for lv_btnm_set_map
    lv_btnm.o(i.lv_btnm_set_map) refers to lv_obj.o(i.lv_obj_get_ext_attr) for lv_obj_get_ext_attr
    lv_btnm.o(i.lv_btnm_set_map) refers to strcmp.o(.text) for strcmp
    lv_btnm.o(i.lv_btnm_set_map) refers to strlen.o(.text) for strlen
    lv_btnm.o(i.lv_btnm_set_map) refers to lv_mem.o(i.lv_mem_free) for lv_mem_free
    lv_btnm.o(i.lv_btnm_set_map) refers to lv_mem.o(i.lv_mem_alloc) for lv_mem_alloc
    lv_btnm.o(i.lv_btnm_set_map) refers to memseta.o(.text) for __aeabi_memclr
    lv_btnm.o(i.lv_btnm_set_map) refers to lv_btnm.o(i.lv_btnm_get_style) for lv_btnm_get_style
    lv_btnm.o(i.lv_btnm_set_map) refers to lv_obj.o(i.lv_obj_get_width) for lv_obj_get_width
    lv_btnm.o(i.lv_btnm_set_map) refers to lv_obj.o(i.lv_obj_get_height) for lv_obj_get_height
    lv_btnm.o(i.lv_btnm_set_map) refers to lv_area.o(i.lv_area_set) for lv_area_set
    lv_btnm.o(i.lv_btnm_set_map) refers to lv_obj.o(i.lv_obj_invalidate) for lv_obj_invalidate
    lv_btnm.o(i.lv_btnm_set_one_toggle) refers to lv_obj.o(i.lv_obj_get_ext_attr) for lv_obj_get_ext_attr
    lv_btnm.o(i.lv_btnm_set_one_toggle) refers to lv_btnm.o(i.invalidate_button_area) for invalidate_button_area
    lv_btnm.o(i.lv_btnm_set_pressed) refers to lv_obj.o(i.lv_obj_get_ext_attr) for lv_obj_get_ext_attr
    lv_btnm.o(i.lv_btnm_set_pressed) refers to lv_obj.o(i.lv_obj_invalidate) for lv_obj_invalidate
    lv_btnm.o(i.lv_btnm_set_recolor) refers to lv_obj.o(i.lv_obj_get_ext_attr) for lv_obj_get_ext_attr
    lv_btnm.o(i.lv_btnm_set_recolor) refers to lv_obj.o(i.lv_obj_invalidate) for lv_obj_invalidate
    lv_btnm.o(i.lv_btnm_set_style) refers to lv_obj.o(i.lv_obj_get_ext_attr) for lv_obj_get_ext_attr
    lv_btnm.o(i.lv_btnm_set_style) refers to lv_obj.o(i.lv_obj_set_style) for lv_obj_set_style
    lv_btnm.o(i.lv_btnm_set_style) refers to lv_obj.o(i.lv_obj_invalidate) for lv_obj_invalidate
    lv_btnm.o(i.lv_btnm_signal) refers to lv_obj.o(i.lv_obj_get_ext_attr) for lv_obj_get_ext_attr
    lv_btnm.o(i.lv_btnm_signal) refers to lv_mem.o(i.lv_mem_free) for lv_mem_free
    lv_btnm.o(i.lv_btnm_signal) refers to lv_btnm.o(i.lv_btnm_set_map) for lv_btnm_set_map
    lv_btnm.o(i.lv_btnm_signal) refers to lv_indev.o(i.lv_indev_get_act) for lv_indev_get_act
    lv_btnm.o(i.lv_btnm_signal) refers to lv_indev.o(i.lv_indev_get_type) for lv_indev_get_type
    lv_btnm.o(i.lv_btnm_signal) refers to lv_indev.o(i.lv_indev_get_point) for lv_indev_get_point
    lv_btnm.o(i.lv_btnm_signal) refers to lv_obj.o(i.lv_obj_get_coords) for lv_obj_get_coords
    lv_btnm.o(i.lv_btnm_signal) refers to lv_area.o(i.lv_area_is_point_on) for lv_area_is_point_on
    lv_btnm.o(i.lv_btnm_signal) refers to lv_btnm.o(i.invalidate_button_area) for invalidate_button_area
    lv_btnm.o(i.lv_btnm_signal) refers to lv_indev.o(i.lv_indev_reset_long_press) for lv_indev_reset_long_press
    lv_btnm.o(i.lv_btnm_signal) refers to lv_obj.o(i.lv_event_send) for lv_event_send
    lv_btnm.o(i.lv_btnm_signal) refers to lv_obj.o(i.lv_obj_get_group) for lv_obj_get_group
    lv_btnm.o(i.lv_btnm_signal) refers to lv_group.o(i.lv_group_get_focused) for lv_group_get_focused
    lv_btnm.o(i.lv_btnm_signal) refers to lv_obj.o(i.lv_obj_invalidate) for lv_obj_invalidate
    lv_btnm.o(i.lv_btnm_signal) refers to lv_btnm.o(.data) for .data
    lv_btnm.o(i.lv_btnm_signal) refers to lv_group.o(i.lv_group_get_editing) for lv_group_get_editing
    lv_btnm.o(i.lv_btnm_signal) refers to lv_btnm.o(i.lv_btnm_get_style) for lv_btnm_get_style
    lv_btnm.o(.data) refers to lv_btnm.o(.conststring) for .conststring
    lv_calendar.o(i.draw_days) refers to lv_obj.o(i.lv_obj_get_ext_attr) for lv_obj_get_ext_attr
    lv_calendar.o(i.draw_days) refers to lv_obj.o(i.lv_obj_get_style) for lv_obj_get_style
    lv_calendar.o(i.draw_days) refers to lv_obj.o(i.lv_obj_get_opa_scale) for lv_obj_get_opa_scale
    lv_calendar.o(i.draw_days) refers to lv_obj.o(i.lv_obj_get_width) for lv_obj_get_width
    lv_calendar.o(i.draw_days) refers to lv_calendar.o(i.get_day_of_week) for get_day_of_week
    lv_calendar.o(i.draw_days) refers to lv_calendar.o(i.get_month_length) for get_month_length
    lv_calendar.o(i.draw_days) refers to lv_draw_rect.o(i.lv_draw_rect) for lv_draw_rect
    lv_calendar.o(i.draw_days) refers to lv_utils.o(i.lv_utils_num_to_str) for lv_utils_num_to_str
    lv_calendar.o(i.draw_days) refers to lv_draw_label.o(i.lv_draw_label) for lv_draw_label
    lv_calendar.o(i.lv_calendar_create) refers to lv_obj.o(i.lv_obj_create) for lv_obj_create
    lv_calendar.o(i.lv_calendar_create) refers to lv_obj.o(i.lv_obj_allocate_ext_attr) for lv_obj_allocate_ext_attr
    lv_calendar.o(i.lv_calendar_create) refers to lv_obj.o(i.lv_obj_get_signal_cb) for lv_obj_get_signal_cb
    lv_calendar.o(i.lv_calendar_create) refers to lv_obj.o(i.lv_obj_get_design_cb) for lv_obj_get_design_cb
    lv_calendar.o(i.lv_calendar_create) refers to lv_obj.o(i.lv_obj_set_signal_cb) for lv_obj_set_signal_cb
    lv_calendar.o(i.lv_calendar_create) refers to lv_obj.o(i.lv_obj_set_design_cb) for lv_obj_set_design_cb
    lv_calendar.o(i.lv_calendar_create) refers to lv_obj.o(i.lv_obj_get_ext_attr) for lv_obj_get_ext_attr
    lv_calendar.o(i.lv_calendar_create) refers to lv_obj.o(i.lv_obj_refresh_style) for lv_obj_refresh_style
    lv_calendar.o(i.lv_calendar_create) refers to lv_obj.o(i.lv_obj_set_size) for lv_obj_set_size
    lv_calendar.o(i.lv_calendar_create) refers to lv_obj.o(i.lv_obj_set_style) for lv_obj_set_style
    lv_calendar.o(i.lv_calendar_create) refers to lv_theme.o(i.lv_theme_get_current) for lv_theme_get_current
    lv_calendar.o(i.lv_calendar_create) refers to lv_calendar.o(i.lv_calendar_set_style) for lv_calendar_set_style
    lv_calendar.o(i.lv_calendar_create) refers to lv_calendar.o(.data) for .data
    lv_calendar.o(i.lv_calendar_create) refers to lv_style.o(.bss) for lv_style_plain_color
    lv_calendar.o(i.lv_calendar_create) refers to lv_calendar.o(i.lv_calendar_signal) for lv_calendar_signal
    lv_calendar.o(i.lv_calendar_create) refers to lv_calendar.o(i.lv_calendar_design) for lv_calendar_design
    lv_calendar.o(i.lv_calendar_design) refers to lv_obj.o(i.lv_obj_get_opa_scale) for lv_obj_get_opa_scale
    lv_calendar.o(i.lv_calendar_design) refers to lv_obj.o(i.lv_obj_get_ext_attr) for lv_obj_get_ext_attr
    lv_calendar.o(i.lv_calendar_design) refers to lv_obj.o(i.lv_obj_get_style) for lv_obj_get_style
    lv_calendar.o(i.lv_calendar_design) refers to lv_draw_rect.o(i.lv_draw_rect) for lv_draw_rect
    lv_calendar.o(i.lv_calendar_design) refers to lv_utils.o(i.lv_utils_num_to_str) for lv_utils_num_to_str
    lv_calendar.o(i.lv_calendar_design) refers to strcpy.o(.text) for strcpy
    lv_calendar.o(i.lv_calendar_design) refers to lv_draw_label.o(i.lv_draw_label) for lv_draw_label
    lv_calendar.o(i.lv_calendar_design) refers to lv_txt.o(i.lv_txt_get_width) for lv_txt_get_width
    lv_calendar.o(i.lv_calendar_design) refers to lv_obj.o(i.lv_obj_get_width) for lv_obj_get_width
    lv_calendar.o(i.lv_calendar_design) refers to lv_calendar.o(i.draw_days) for draw_days
    lv_calendar.o(i.lv_calendar_design) refers to lv_calendar.o(.data) for .data
    lv_calendar.o(i.lv_calendar_get_day_names) refers to lv_obj.o(i.lv_obj_get_ext_attr) for lv_obj_get_ext_attr
    lv_calendar.o(i.lv_calendar_get_highlighted_dates) refers to lv_obj.o(i.lv_obj_get_ext_attr) for lv_obj_get_ext_attr
    lv_calendar.o(i.lv_calendar_get_highlighted_dates_num) refers to lv_obj.o(i.lv_obj_get_ext_attr) for lv_obj_get_ext_attr
    lv_calendar.o(i.lv_calendar_get_month_names) refers to lv_obj.o(i.lv_obj_get_ext_attr) for lv_obj_get_ext_attr
    lv_calendar.o(i.lv_calendar_get_pressed_date) refers to lv_obj.o(i.lv_obj_get_ext_attr) for lv_obj_get_ext_attr
    lv_calendar.o(i.lv_calendar_get_showed_date) refers to lv_obj.o(i.lv_obj_get_ext_attr) for lv_obj_get_ext_attr
    lv_calendar.o(i.lv_calendar_get_style) refers to lv_obj.o(i.lv_obj_get_ext_attr) for lv_obj_get_ext_attr
    lv_calendar.o(i.lv_calendar_get_style) refers to lv_obj.o(i.lv_obj_get_style) for lv_obj_get_style
    lv_calendar.o(i.lv_calendar_get_today_date) refers to lv_obj.o(i.lv_obj_get_ext_attr) for lv_obj_get_ext_attr
    lv_calendar.o(i.lv_calendar_set_day_names) refers to lv_obj.o(i.lv_obj_get_ext_attr) for lv_obj_get_ext_attr
    lv_calendar.o(i.lv_calendar_set_day_names) refers to lv_obj.o(i.lv_obj_invalidate) for lv_obj_invalidate
    lv_calendar.o(i.lv_calendar_set_highlighted_dates) refers to lv_obj.o(i.lv_obj_get_ext_attr) for lv_obj_get_ext_attr
    lv_calendar.o(i.lv_calendar_set_highlighted_dates) refers to lv_obj.o(i.lv_obj_invalidate) for lv_obj_invalidate
    lv_calendar.o(i.lv_calendar_set_month_names) refers to lv_obj.o(i.lv_obj_get_ext_attr) for lv_obj_get_ext_attr
    lv_calendar.o(i.lv_calendar_set_month_names) refers to lv_obj.o(i.lv_obj_invalidate) for lv_obj_invalidate
    lv_calendar.o(i.lv_calendar_set_showed_date) refers to lv_obj.o(i.lv_obj_get_ext_attr) for lv_obj_get_ext_attr
    lv_calendar.o(i.lv_calendar_set_showed_date) refers to lv_obj.o(i.lv_obj_invalidate) for lv_obj_invalidate
    lv_calendar.o(i.lv_calendar_set_style) refers to lv_obj.o(i.lv_obj_get_ext_attr) for lv_obj_get_ext_attr
    lv_calendar.o(i.lv_calendar_set_style) refers to lv_obj.o(i.lv_obj_set_style) for lv_obj_set_style
    lv_calendar.o(i.lv_calendar_set_style) refers to lv_obj.o(i.lv_obj_invalidate) for lv_obj_invalidate
    lv_calendar.o(i.lv_calendar_set_today_date) refers to lv_obj.o(i.lv_obj_get_ext_attr) for lv_obj_get_ext_attr
    lv_calendar.o(i.lv_calendar_set_today_date) refers to lv_obj.o(i.lv_obj_invalidate) for lv_obj_invalidate
    lv_calendar.o(i.lv_calendar_signal) refers to lv_obj.o(i.lv_obj_get_ext_attr) for lv_obj_get_ext_attr
    lv_calendar.o(i.lv_calendar_signal) refers to lv_indev.o(i.lv_indev_get_act) for lv_indev_get_act
    lv_calendar.o(i.lv_calendar_signal) refers to lv_indev.o(i.lv_indev_get_point) for lv_indev_get_point
    lv_calendar.o(i.lv_calendar_signal) refers to lv_area.o(i.lv_area_is_point_on) for lv_area_is_point_on
    lv_calendar.o(i.lv_calendar_signal) refers to lv_obj.o(i.lv_obj_invalidate) for lv_obj_invalidate
    lv_calendar.o(i.lv_calendar_signal) refers to lv_obj.o(i.lv_obj_get_style) for lv_obj_get_style
    lv_calendar.o(i.lv_calendar_signal) refers to lv_calendar.o(i.get_day_of_week) for get_day_of_week
    lv_calendar.o(i.lv_calendar_signal) refers to lv_calendar.o(i.get_month_length) for get_month_length
    lv_calendar.o(i.lv_calendar_signal) refers to lv_obj.o(i.lv_event_send) for lv_event_send
    lv_calendar.o(i.lv_calendar_signal) refers to lv_calendar.o(.data) for .data
    lv_calendar.o(.data) refers to lv_calendar.o(.conststring) for .conststring
    lv_canvas.o(i.lv_canvas_copy_buf) refers to lv_obj.o(i.lv_obj_get_ext_attr) for lv_obj_get_ext_attr
    lv_canvas.o(i.lv_canvas_copy_buf) refers to lv_draw_img.o(i.lv_img_color_format_get_px_size) for lv_img_color_format_get_px_size
    lv_canvas.o(i.lv_canvas_copy_buf) refers to memmovea.o(.text) for __aeabi_memcpy
    lv_canvas.o(i.lv_canvas_create) refers to lv_img.o(i.lv_img_create) for lv_img_create
    lv_canvas.o(i.lv_canvas_create) refers to lv_obj.o(i.lv_obj_allocate_ext_attr) for lv_obj_allocate_ext_attr
    lv_canvas.o(i.lv_canvas_create) refers to lv_obj.o(i.lv_obj_get_signal_cb) for lv_obj_get_signal_cb
    lv_canvas.o(i.lv_canvas_create) refers to lv_obj.o(i.lv_obj_get_design_cb) for lv_obj_get_design_cb
    lv_canvas.o(i.lv_canvas_create) refers to lv_img.o(i.lv_img_set_src) for lv_img_set_src
    lv_canvas.o(i.lv_canvas_create) refers to lv_obj.o(i.lv_obj_set_signal_cb) for lv_obj_set_signal_cb
    lv_canvas.o(i.lv_canvas_create) refers to lv_obj.o(i.lv_obj_refresh_style) for lv_obj_refresh_style
    lv_canvas.o(i.lv_canvas_create) refers to lv_canvas.o(.data) for .data
    lv_canvas.o(i.lv_canvas_create) refers to lv_canvas.o(i.lv_canvas_signal) for lv_canvas_signal
    lv_canvas.o(i.lv_canvas_draw_arc) refers to lv_obj.o(i.lv_obj_get_ext_attr) for lv_obj_get_ext_attr
    lv_canvas.o(i.lv_canvas_draw_arc) refers to memseta.o(.text) for __aeabi_memclr4
    lv_canvas.o(i.lv_canvas_draw_arc) refers to lv_hal_disp.o(i.lv_disp_buf_init) for lv_disp_buf_init
    lv_canvas.o(i.lv_canvas_draw_arc) refers to lv_hal_disp.o(i.lv_disp_drv_init) for lv_disp_drv_init
    lv_canvas.o(i.lv_canvas_draw_arc) refers to lv_refr.o(i.lv_refr_get_disp_refreshing) for lv_refr_get_disp_refreshing
    lv_canvas.o(i.lv_canvas_draw_arc) refers to lv_refr.o(i.lv_refr_set_disp_refreshing) for lv_refr_set_disp_refreshing
    lv_canvas.o(i.lv_canvas_draw_arc) refers to lv_draw_arc.o(i.lv_draw_arc) for lv_draw_arc
    lv_canvas.o(i.lv_canvas_draw_img) refers to lv_obj.o(i.lv_obj_get_ext_attr) for lv_obj_get_ext_attr
    lv_canvas.o(i.lv_canvas_draw_img) refers to lv_img_decoder.o(i.lv_img_decoder_get_info) for lv_img_decoder_get_info
    lv_canvas.o(i.lv_canvas_draw_img) refers to memseta.o(.text) for __aeabi_memclr4
    lv_canvas.o(i.lv_canvas_draw_img) refers to lv_hal_disp.o(i.lv_disp_buf_init) for lv_disp_buf_init
    lv_canvas.o(i.lv_canvas_draw_img) refers to lv_hal_disp.o(i.lv_disp_drv_init) for lv_disp_drv_init
    lv_canvas.o(i.lv_canvas_draw_img) refers to lv_refr.o(i.lv_refr_get_disp_refreshing) for lv_refr_get_disp_refreshing
    lv_canvas.o(i.lv_canvas_draw_img) refers to lv_refr.o(i.lv_refr_set_disp_refreshing) for lv_refr_set_disp_refreshing
    lv_canvas.o(i.lv_canvas_draw_img) refers to lv_draw_img.o(i.lv_draw_img) for lv_draw_img
    lv_canvas.o(i.lv_canvas_draw_line) refers to lv_obj.o(i.lv_obj_get_ext_attr) for lv_obj_get_ext_attr
    lv_canvas.o(i.lv_canvas_draw_line) refers to memseta.o(.text) for __aeabi_memclr4
    lv_canvas.o(i.lv_canvas_draw_line) refers to lv_hal_disp.o(i.lv_disp_buf_init) for lv_disp_buf_init
    lv_canvas.o(i.lv_canvas_draw_line) refers to lv_hal_disp.o(i.lv_disp_drv_init) for lv_disp_drv_init
    lv_canvas.o(i.lv_canvas_draw_line) refers to lv_refr.o(i.lv_refr_get_disp_refreshing) for lv_refr_get_disp_refreshing
    lv_canvas.o(i.lv_canvas_draw_line) refers to lv_refr.o(i.lv_refr_set_disp_refreshing) for lv_refr_set_disp_refreshing
    lv_canvas.o(i.lv_canvas_draw_line) refers to lv_draw_line.o(i.lv_draw_line) for lv_draw_line
    lv_canvas.o(i.lv_canvas_draw_polygon) refers to lv_obj.o(i.lv_obj_get_ext_attr) for lv_obj_get_ext_attr
    lv_canvas.o(i.lv_canvas_draw_polygon) refers to memseta.o(.text) for __aeabi_memclr4
    lv_canvas.o(i.lv_canvas_draw_polygon) refers to lv_hal_disp.o(i.lv_disp_buf_init) for lv_disp_buf_init
    lv_canvas.o(i.lv_canvas_draw_polygon) refers to lv_hal_disp.o(i.lv_disp_drv_init) for lv_disp_drv_init
    lv_canvas.o(i.lv_canvas_draw_polygon) refers to lv_refr.o(i.lv_refr_get_disp_refreshing) for lv_refr_get_disp_refreshing
    lv_canvas.o(i.lv_canvas_draw_polygon) refers to lv_refr.o(i.lv_refr_set_disp_refreshing) for lv_refr_set_disp_refreshing
    lv_canvas.o(i.lv_canvas_draw_polygon) refers to lv_draw_triangle.o(i.lv_draw_polygon) for lv_draw_polygon
    lv_canvas.o(i.lv_canvas_draw_rect) refers to lv_obj.o(i.lv_obj_get_ext_attr) for lv_obj_get_ext_attr
    lv_canvas.o(i.lv_canvas_draw_rect) refers to memseta.o(.text) for __aeabi_memclr4
    lv_canvas.o(i.lv_canvas_draw_rect) refers to lv_hal_disp.o(i.lv_disp_buf_init) for lv_disp_buf_init
    lv_canvas.o(i.lv_canvas_draw_rect) refers to lv_hal_disp.o(i.lv_disp_drv_init) for lv_disp_drv_init
    lv_canvas.o(i.lv_canvas_draw_rect) refers to lv_refr.o(i.lv_refr_get_disp_refreshing) for lv_refr_get_disp_refreshing
    lv_canvas.o(i.lv_canvas_draw_rect) refers to lv_refr.o(i.lv_refr_set_disp_refreshing) for lv_refr_set_disp_refreshing
    lv_canvas.o(i.lv_canvas_draw_rect) refers to lv_draw_rect.o(i.lv_draw_rect) for lv_draw_rect
    lv_canvas.o(i.lv_canvas_draw_text) refers to lv_obj.o(i.lv_obj_get_ext_attr) for lv_obj_get_ext_attr
    lv_canvas.o(i.lv_canvas_draw_text) refers to memseta.o(.text) for __aeabi_memclr4
    lv_canvas.o(i.lv_canvas_draw_text) refers to lv_hal_disp.o(i.lv_disp_buf_init) for lv_disp_buf_init
    lv_canvas.o(i.lv_canvas_draw_text) refers to lv_hal_disp.o(i.lv_disp_drv_init) for lv_disp_drv_init
    lv_canvas.o(i.lv_canvas_draw_text) refers to lv_refr.o(i.lv_refr_get_disp_refreshing) for lv_refr_get_disp_refreshing
    lv_canvas.o(i.lv_canvas_draw_text) refers to lv_refr.o(i.lv_refr_set_disp_refreshing) for lv_refr_set_disp_refreshing
    lv_canvas.o(i.lv_canvas_draw_text) refers to lv_draw_label.o(i.lv_draw_label) for lv_draw_label
    lv_canvas.o(i.lv_canvas_fill_bg) refers to lv_obj.o(i.lv_obj_get_ext_attr) for lv_obj_get_ext_attr
    lv_canvas.o(i.lv_canvas_fill_bg) refers to lv_draw_img.o(i.lv_img_buf_set_px_color) for lv_img_buf_set_px_color
    lv_canvas.o(i.lv_canvas_get_img) refers to lv_obj.o(i.lv_obj_get_ext_attr) for lv_obj_get_ext_attr
    lv_canvas.o(i.lv_canvas_get_px) refers to lv_obj.o(i.lv_obj_get_ext_attr) for lv_obj_get_ext_attr
    lv_canvas.o(i.lv_canvas_get_px) refers to lv_obj.o(i.lv_obj_get_style) for lv_obj_get_style
    lv_canvas.o(i.lv_canvas_get_px) refers to lv_draw_img.o(i.lv_img_buf_get_px_color) for lv_img_buf_get_px_color
    lv_canvas.o(i.lv_canvas_get_style) refers to lv_obj.o(i.lv_obj_get_style) for lv_obj_get_style
    lv_canvas.o(i.lv_canvas_rotate) refers to lv_obj.o(i.lv_obj_get_ext_attr) for lv_obj_get_ext_attr
    lv_canvas.o(i.lv_canvas_rotate) refers to lv_obj.o(i.lv_obj_get_style) for lv_obj_get_style
    lv_canvas.o(i.lv_canvas_rotate) refers to lv_math.o(i.lv_trigo_sin) for lv_trigo_sin
    lv_canvas.o(i.lv_canvas_rotate) refers to lv_draw_img.o(i.lv_img_buf_get_px_color) for lv_img_buf_get_px_color
    lv_canvas.o(i.lv_canvas_rotate) refers to lv_draw_img.o(i.lv_img_color_format_is_chroma_keyed) for lv_img_color_format_is_chroma_keyed
    lv_canvas.o(i.lv_canvas_rotate) refers to lv_draw_img.o(i.lv_img_color_format_has_alpha) for lv_img_color_format_has_alpha
    lv_canvas.o(i.lv_canvas_rotate) refers to lv_draw_img.o(i.lv_img_buf_get_px_alpha) for lv_img_buf_get_px_alpha
    lv_canvas.o(i.lv_canvas_rotate) refers to lv_draw_img.o(i.lv_img_buf_set_px_color) for lv_img_buf_set_px_color
    lv_canvas.o(i.lv_canvas_rotate) refers to lv_draw_img.o(i.lv_img_buf_set_px_alpha) for lv_img_buf_set_px_alpha
    lv_canvas.o(i.lv_canvas_rotate) refers to lv_obj.o(i.lv_obj_invalidate) for lv_obj_invalidate
    lv_canvas.o(i.lv_canvas_set_buffer) refers to lv_obj.o(i.lv_obj_get_ext_attr) for lv_obj_get_ext_attr
    lv_canvas.o(i.lv_canvas_set_buffer) refers to lv_draw_img.o(i.lv_img_color_format_get_px_size) for lv_img_color_format_get_px_size
    lv_canvas.o(i.lv_canvas_set_buffer) refers to lv_img.o(i.lv_img_set_src) for lv_img_set_src
    lv_canvas.o(i.lv_canvas_set_palette) refers to lv_obj.o(i.lv_obj_get_ext_attr) for lv_obj_get_ext_attr
    lv_canvas.o(i.lv_canvas_set_palette) refers to lv_draw_img.o(i.lv_img_buf_set_palette) for lv_img_buf_set_palette
    lv_canvas.o(i.lv_canvas_set_palette) refers to lv_obj.o(i.lv_obj_invalidate) for lv_obj_invalidate
    lv_canvas.o(i.lv_canvas_set_px) refers to lv_obj.o(i.lv_obj_get_ext_attr) for lv_obj_get_ext_attr
    lv_canvas.o(i.lv_canvas_set_px) refers to lv_draw_img.o(i.lv_img_buf_set_px_color) for lv_img_buf_set_px_color
    lv_canvas.o(i.lv_canvas_set_px) refers to lv_obj.o(i.lv_obj_invalidate) for lv_obj_invalidate
    lv_canvas.o(i.lv_canvas_set_style) refers to lv_obj.o(i.lv_obj_set_style) for lv_obj_set_style
    lv_canvas.o(i.lv_canvas_signal) refers to lv_canvas.o(.data) for .data
    lv_cb.o(i.lv_bullet_design) refers to lv_obj.o(i.lv_obj_get_style) for lv_obj_get_style
    lv_cb.o(i.lv_bullet_design) refers to lv_obj.o(i.lv_obj_get_parent) for lv_obj_get_parent
    lv_cb.o(i.lv_bullet_design) refers to lv_obj.o(i.lv_obj_get_group) for lv_obj_get_group
    lv_cb.o(i.lv_bullet_design) refers to lv_group.o(i.lv_group_get_focused) for lv_group_get_focused
    lv_cb.o(i.lv_bullet_design) refers to lv_group.o(i.lv_group_mod_style) for lv_group_mod_style
    lv_cb.o(i.lv_bullet_design) refers to lv_cb.o(.data) for .data
    lv_cb.o(i.lv_cb_create) refers to lv_btn.o(i.lv_btn_create) for lv_btn_create
    lv_cb.o(i.lv_cb_create) refers to lv_obj.o(i.lv_obj_get_signal_cb) for lv_obj_get_signal_cb
    lv_cb.o(i.lv_cb_create) refers to lv_obj.o(i.lv_obj_get_design_cb) for lv_obj_get_design_cb
    lv_cb.o(i.lv_cb_create) refers to lv_obj.o(i.lv_obj_allocate_ext_attr) for lv_obj_allocate_ext_attr
    lv_cb.o(i.lv_cb_create) refers to lv_obj.o(i.lv_obj_set_signal_cb) for lv_obj_set_signal_cb
    lv_cb.o(i.lv_cb_create) refers to lv_obj.o(i.lv_obj_set_design_cb) for lv_obj_set_design_cb
    lv_cb.o(i.lv_cb_create) refers to lv_obj.o(i.lv_obj_get_ext_attr) for lv_obj_get_ext_attr
    lv_cb.o(i.lv_cb_create) refers to lv_label.o(i.lv_label_create) for lv_label_create
    lv_cb.o(i.lv_cb_create) refers to lv_obj.o(i.lv_obj_refresh_style) for lv_obj_refresh_style
    lv_cb.o(i.lv_cb_create) refers to lv_obj.o(i.lv_obj_set_click) for lv_obj_set_click
    lv_cb.o(i.lv_cb_create) refers to lv_label.o(i.lv_label_set_text) for lv_label_set_text
    lv_cb.o(i.lv_cb_create) refers to lv_cont.o(i.lv_cont_set_layout) for lv_cont_set_layout
    lv_cb.o(i.lv_cb_create) refers to lv_cont.o(i.lv_cont_set_fit4) for lv_cont_set_fit4
    lv_cb.o(i.lv_cb_create) refers to lv_btn.o(i.lv_btn_set_toggle) for lv_btn_set_toggle
    lv_cb.o(i.lv_cb_create) refers to lv_obj.o(i.lv_obj_set_protect) for lv_obj_set_protect
    lv_cb.o(i.lv_cb_create) refers to lv_theme.o(i.lv_theme_get_current) for lv_theme_get_current
    lv_cb.o(i.lv_cb_create) refers to lv_cb.o(i.lv_cb_set_style) for lv_cb_set_style
    lv_cb.o(i.lv_cb_create) refers to lv_cb.o(.data) for .data
    lv_cb.o(i.lv_cb_create) refers to lv_cb.o(i.lv_cb_signal) for lv_cb_signal
    lv_cb.o(i.lv_cb_create) refers to lv_cb.o(i.lv_cb_design) for lv_cb_design
    lv_cb.o(i.lv_cb_create) refers to lv_cb.o(i.lv_bullet_design) for lv_bullet_design
    lv_cb.o(i.lv_cb_create) refers to lv_style.o(.bss) for lv_style_transp
    lv_cb.o(i.lv_cb_design) refers to lv_obj.o(i.lv_obj_get_ext_attr) for lv_obj_get_ext_attr
    lv_cb.o(i.lv_cb_design) refers to lv_cb.o(.data) for .data
    lv_cb.o(i.lv_cb_get_style) refers to lv_obj.o(i.lv_obj_get_ext_attr) for lv_obj_get_ext_attr
    lv_cb.o(i.lv_cb_get_style) refers to lv_btn.o(i.lv_btn_get_style) for lv_btn_get_style
    lv_cb.o(i.lv_cb_get_text) refers to lv_obj.o(i.lv_obj_get_ext_attr) for lv_obj_get_ext_attr
    lv_cb.o(i.lv_cb_get_text) refers to lv_label.o(i.lv_label_get_text) for lv_label_get_text
    lv_cb.o(i.lv_cb_set_static_text) refers to lv_obj.o(i.lv_obj_get_ext_attr) for lv_obj_get_ext_attr
    lv_cb.o(i.lv_cb_set_static_text) refers to lv_label.o(i.lv_label_set_static_text) for lv_label_set_static_text
    lv_cb.o(i.lv_cb_set_style) refers to lv_obj.o(i.lv_obj_get_ext_attr) for lv_obj_get_ext_attr
    lv_cb.o(i.lv_cb_set_style) refers to lv_btn.o(i.lv_btn_set_style) for lv_btn_set_style
    lv_cb.o(i.lv_cb_set_text) refers to lv_obj.o(i.lv_obj_get_ext_attr) for lv_obj_get_ext_attr
    lv_cb.o(i.lv_cb_set_text) refers to lv_label.o(i.lv_label_set_text) for lv_label_set_text
    lv_cb.o(i.lv_cb_signal) refers to lv_obj.o(i.lv_obj_get_ext_attr) for lv_obj_get_ext_attr
    lv_cb.o(i.lv_cb_signal) refers to lv_obj.o(i.lv_obj_get_style) for lv_obj_get_style
    lv_cb.o(i.lv_cb_signal) refers to lv_obj.o(i.lv_obj_set_size) for lv_obj_set_size
    lv_cb.o(i.lv_cb_signal) refers to lv_btn.o(i.lv_btn_get_state) for lv_btn_get_state
    lv_cb.o(i.lv_cb_signal) refers to lv_btn.o(i.lv_btn_set_state) for lv_btn_set_state
    lv_cb.o(i.lv_cb_signal) refers to lv_cb.o(.data) for .data
    lv_chart.o(i.lv_chart_add_series) refers to lv_obj.o(i.lv_obj_get_ext_attr) for lv_obj_get_ext_attr
    lv_chart.o(i.lv_chart_add_series) refers to lv_ll.o(i.lv_ll_ins_head) for lv_ll_ins_head
    lv_chart.o(i.lv_chart_add_series) refers to lv_mem.o(i.lv_mem_alloc) for lv_mem_alloc
    lv_chart.o(i.lv_chart_clear_serie) refers to lv_obj.o(i.lv_obj_get_ext_attr) for lv_obj_get_ext_attr
    lv_chart.o(i.lv_chart_create) refers to lv_obj.o(i.lv_obj_create) for lv_obj_create
    lv_chart.o(i.lv_chart_create) refers to lv_obj.o(i.lv_obj_allocate_ext_attr) for lv_obj_allocate_ext_attr
    lv_chart.o(i.lv_chart_create) refers to lv_ll.o(i.lv_ll_init) for lv_ll_init
    lv_chart.o(i.lv_chart_create) refers to lv_obj.o(i.lv_obj_get_design_cb) for lv_obj_get_design_cb
    lv_chart.o(i.lv_chart_create) refers to lv_obj.o(i.lv_obj_get_signal_cb) for lv_obj_get_signal_cb
    lv_chart.o(i.lv_chart_create) refers to lv_obj.o(i.lv_obj_set_signal_cb) for lv_obj_set_signal_cb
    lv_chart.o(i.lv_chart_create) refers to lv_obj.o(i.lv_obj_set_design_cb) for lv_obj_set_design_cb
    lv_chart.o(i.lv_chart_create) refers to lv_obj.o(i.lv_obj_get_ext_attr) for lv_obj_get_ext_attr
    lv_chart.o(i.lv_chart_create) refers to lv_obj.o(i.lv_obj_refresh_style) for lv_obj_refresh_style
    lv_chart.o(i.lv_chart_create) refers to lv_obj.o(i.lv_obj_set_size) for lv_obj_set_size
    lv_chart.o(i.lv_chart_create) refers to lv_theme.o(i.lv_theme_get_current) for lv_theme_get_current
    lv_chart.o(i.lv_chart_create) refers to lv_obj.o(i.lv_obj_set_style) for lv_obj_set_style
    lv_chart.o(i.lv_chart_create) refers to lv_chart.o(.data) for .data
    lv_chart.o(i.lv_chart_create) refers to lv_chart.o(i.lv_chart_signal) for lv_chart_signal
    lv_chart.o(i.lv_chart_create) refers to lv_chart.o(i.lv_chart_design) for lv_chart_design
    lv_chart.o(i.lv_chart_create) refers to lv_style.o(.bss) for lv_style_pretty
    lv_chart.o(i.lv_chart_design) refers to lv_obj.o(i.lv_obj_get_opa_scale) for lv_obj_get_opa_scale
    lv_chart.o(i.lv_chart_design) refers to lv_obj.o(i.lv_obj_get_style) for lv_obj_get_style
    lv_chart.o(i.lv_chart_design) refers to lv_draw_rect.o(i.lv_draw_rect) for lv_draw_rect
    lv_chart.o(i.lv_chart_design) refers to lv_obj.o(i.lv_obj_get_ext_attr) for lv_obj_get_ext_attr
    lv_chart.o(i.lv_chart_design) refers to lv_obj.o(i.lv_obj_get_width) for lv_obj_get_width
    lv_chart.o(i.lv_chart_design) refers to lv_obj.o(i.lv_obj_get_height) for lv_obj_get_height
    lv_chart.o(i.lv_chart_design) refers to lv_draw_line.o(i.lv_draw_line) for lv_draw_line
    lv_chart.o(i.lv_chart_design) refers to lv_chart.o(i.lv_chart_draw_lines) for lv_chart_draw_lines
    lv_chart.o(i.lv_chart_design) refers to lv_style.o(i.lv_style_copy) for lv_style_copy
    lv_chart.o(i.lv_chart_design) refers to lv_ll.o(i.lv_ll_get_tail) for lv_ll_get_tail
    lv_chart.o(i.lv_chart_design) refers to lv_area.o(i.lv_area_intersect) for lv_area_intersect
    lv_chart.o(i.lv_chart_design) refers to lv_ll.o(i.lv_ll_get_prev) for lv_ll_get_prev
    lv_chart.o(i.lv_chart_design) refers to lv_chart.o(.data) for .data
    lv_chart.o(i.lv_chart_design) refers to lv_style.o(.bss) for lv_style_plain
    lv_chart.o(i.lv_chart_design) refers to lv_draw_triangle.o(i.lv_draw_triangle) for lv_draw_triangle
    lv_chart.o(i.lv_chart_design) refers to lv_txt.o(i.lv_txt_get_size) for lv_txt_get_size
    lv_chart.o(i.lv_chart_design) refers to lv_draw_label.o(i.lv_draw_label) for lv_draw_label
    lv_chart.o(i.lv_chart_draw_lines) refers to lv_obj.o(i.lv_obj_get_ext_attr) for lv_obj_get_ext_attr
    lv_chart.o(i.lv_chart_draw_lines) refers to lv_obj.o(i.lv_obj_get_width) for lv_obj_get_width
    lv_chart.o(i.lv_chart_draw_lines) refers to lv_obj.o(i.lv_obj_get_height) for lv_obj_get_height
    lv_chart.o(i.lv_chart_draw_lines) refers to lv_obj.o(i.lv_obj_get_opa_scale) for lv_obj_get_opa_scale
    lv_chart.o(i.lv_chart_draw_lines) refers to lv_style.o(i.lv_style_copy) for lv_style_copy
    lv_chart.o(i.lv_chart_draw_lines) refers to lv_ll.o(i.lv_ll_get_tail) for lv_ll_get_tail
    lv_chart.o(i.lv_chart_draw_lines) refers to lv_draw_line.o(i.lv_draw_line) for lv_draw_line
    lv_chart.o(i.lv_chart_draw_lines) refers to lv_ll.o(i.lv_ll_get_prev) for lv_ll_get_prev
    lv_chart.o(i.lv_chart_draw_lines) refers to lv_style.o(.bss) for lv_style_plain
    lv_chart.o(i.lv_chart_get_margin) refers to lv_obj.o(i.lv_obj_get_ext_attr) for lv_obj_get_ext_attr
    lv_chart.o(i.lv_chart_get_point_cnt) refers to lv_obj.o(i.lv_obj_get_ext_attr) for lv_obj_get_ext_attr
    lv_chart.o(i.lv_chart_get_series_darking) refers to lv_obj.o(i.lv_obj_get_ext_attr) for lv_obj_get_ext_attr
    lv_chart.o(i.lv_chart_get_series_opa) refers to lv_obj.o(i.lv_obj_get_ext_attr) for lv_obj_get_ext_attr
    lv_chart.o(i.lv_chart_get_series_width) refers to lv_obj.o(i.lv_obj_get_ext_attr) for lv_obj_get_ext_attr
    lv_chart.o(i.lv_chart_get_type) refers to lv_obj.o(i.lv_obj_get_ext_attr) for lv_obj_get_ext_attr
    lv_chart.o(i.lv_chart_init_points) refers to lv_obj.o(i.lv_obj_get_ext_attr) for lv_obj_get_ext_attr
    lv_chart.o(i.lv_chart_init_points) refers to lv_obj.o(i.lv_obj_invalidate) for lv_obj_invalidate
    lv_chart.o(i.lv_chart_inv_lines) refers to lv_obj.o(i.lv_obj_get_ext_attr) for lv_obj_get_ext_attr
    lv_chart.o(i.lv_chart_inv_lines) refers to lv_obj.o(i.lv_obj_get_width) for lv_obj_get_width
    lv_chart.o(i.lv_chart_inv_lines) refers to lv_obj.o(i.lv_obj_get_coords) for lv_obj_get_coords
    lv_chart.o(i.lv_chart_inv_lines) refers to lv_obj.o(i.lv_obj_get_disp) for lv_obj_get_disp
    lv_chart.o(i.lv_chart_inv_lines) refers to lv_refr.o(i.lv_inv_area) for lv_inv_area
    lv_chart.o(i.lv_chart_refresh) refers to lv_obj.o(i.lv_obj_invalidate) for lv_obj_invalidate
    lv_chart.o(i.lv_chart_set_div_line_count) refers to lv_obj.o(i.lv_obj_get_ext_attr) for lv_obj_get_ext_attr
    lv_chart.o(i.lv_chart_set_div_line_count) refers to lv_obj.o(i.lv_obj_invalidate) for lv_obj_invalidate
    lv_chart.o(i.lv_chart_set_margin) refers to lv_obj.o(i.lv_obj_get_ext_attr) for lv_obj_get_ext_attr
    lv_chart.o(i.lv_chart_set_margin) refers to lv_obj.o(i.lv_obj_refresh_ext_draw_pad) for lv_obj_refresh_ext_draw_pad
    lv_chart.o(i.lv_chart_set_next) refers to lv_obj.o(i.lv_obj_get_ext_attr) for lv_obj_get_ext_attr
    lv_chart.o(i.lv_chart_set_next) refers to lv_chart.o(i.lv_chart_inv_lines) for lv_chart_inv_lines
    lv_chart.o(i.lv_chart_set_next) refers to lv_obj.o(i.lv_obj_get_width) for lv_obj_get_width
    lv_chart.o(i.lv_chart_set_next) refers to lv_obj.o(i.lv_obj_get_coords) for lv_obj_get_coords
    lv_chart.o(i.lv_chart_set_next) refers to lv_obj.o(i.lv_obj_get_disp) for lv_obj_get_disp
    lv_chart.o(i.lv_chart_set_next) refers to lv_refr.o(i.lv_inv_area) for lv_inv_area
    lv_chart.o(i.lv_chart_set_next) refers to lv_obj.o(i.lv_obj_invalidate) for lv_obj_invalidate
    lv_chart.o(i.lv_chart_set_point_count) refers to lv_obj.o(i.lv_obj_get_ext_attr) for lv_obj_get_ext_attr
    lv_chart.o(i.lv_chart_set_point_count) refers to lv_ll.o(i.lv_ll_get_tail) for lv_ll_get_tail
    lv_chart.o(i.lv_chart_set_point_count) refers to lv_mem.o(i.lv_mem_alloc) for lv_mem_alloc
    lv_chart.o(i.lv_chart_set_point_count) refers to lv_mem.o(i.lv_mem_free) for lv_mem_free
    lv_chart.o(i.lv_chart_set_point_count) refers to lv_mem.o(i.lv_mem_realloc) for lv_mem_realloc
    lv_chart.o(i.lv_chart_set_point_count) refers to lv_ll.o(i.lv_ll_get_prev) for lv_ll_get_prev
    lv_chart.o(i.lv_chart_set_point_count) refers to lv_obj.o(i.lv_obj_invalidate) for lv_obj_invalidate
    lv_chart.o(i.lv_chart_set_points) refers to lv_obj.o(i.lv_obj_get_ext_attr) for lv_obj_get_ext_attr
    lv_chart.o(i.lv_chart_set_points) refers to memmovea.o(.text) for __aeabi_memcpy
    lv_chart.o(i.lv_chart_set_points) refers to lv_obj.o(i.lv_obj_invalidate) for lv_obj_invalidate
    lv_chart.o(i.lv_chart_set_range) refers to lv_obj.o(i.lv_obj_get_ext_attr) for lv_obj_get_ext_attr
    lv_chart.o(i.lv_chart_set_range) refers to lv_obj.o(i.lv_obj_invalidate) for lv_obj_invalidate
    lv_chart.o(i.lv_chart_set_series_darking) refers to lv_obj.o(i.lv_obj_get_ext_attr) for lv_obj_get_ext_attr
    lv_chart.o(i.lv_chart_set_series_darking) refers to lv_obj.o(i.lv_obj_invalidate) for lv_obj_invalidate
    lv_chart.o(i.lv_chart_set_series_opa) refers to lv_obj.o(i.lv_obj_get_ext_attr) for lv_obj_get_ext_attr
    lv_chart.o(i.lv_chart_set_series_opa) refers to lv_obj.o(i.lv_obj_invalidate) for lv_obj_invalidate
    lv_chart.o(i.lv_chart_set_series_width) refers to lv_obj.o(i.lv_obj_get_ext_attr) for lv_obj_get_ext_attr
    lv_chart.o(i.lv_chart_set_series_width) refers to lv_obj.o(i.lv_obj_invalidate) for lv_obj_invalidate
    lv_chart.o(i.lv_chart_set_type) refers to lv_obj.o(i.lv_obj_get_ext_attr) for lv_obj_get_ext_attr
    lv_chart.o(i.lv_chart_set_type) refers to lv_obj.o(i.lv_obj_invalidate) for lv_obj_invalidate
    lv_chart.o(i.lv_chart_set_update_mode) refers to lv_obj.o(i.lv_obj_get_ext_attr) for lv_obj_get_ext_attr
    lv_chart.o(i.lv_chart_set_update_mode) refers to lv_obj.o(i.lv_obj_invalidate) for lv_obj_invalidate
    lv_chart.o(i.lv_chart_set_x_tick_length) refers to lv_obj.o(i.lv_obj_get_ext_attr) for lv_obj_get_ext_attr
    lv_chart.o(i.lv_chart_set_x_tick_texts) refers to lv_obj.o(i.lv_obj_get_ext_attr) for lv_obj_get_ext_attr
    lv_chart.o(i.lv_chart_set_y_tick_length) refers to lv_obj.o(i.lv_obj_get_ext_attr) for lv_obj_get_ext_attr
    lv_chart.o(i.lv_chart_set_y_tick_texts) refers to lv_obj.o(i.lv_obj_get_ext_attr) for lv_obj_get_ext_attr
    lv_chart.o(i.lv_chart_signal) refers to lv_obj.o(i.lv_obj_get_ext_attr) for lv_obj_get_ext_attr
    lv_chart.o(i.lv_chart_signal) refers to lv_ll.o(i.lv_ll_get_head) for lv_ll_get_head
    lv_chart.o(i.lv_chart_signal) refers to lv_mem.o(i.lv_mem_free) for lv_mem_free
    lv_chart.o(i.lv_chart_signal) refers to lv_ll.o(i.lv_ll_get_next) for lv_ll_get_next
    lv_chart.o(i.lv_chart_signal) refers to lv_ll.o(i.lv_ll_clear) for lv_ll_clear
    lv_chart.o(i.lv_chart_signal) refers to lv_chart.o(.data) for .data
    lv_cont.o(i.lv_cont_create) refers to lv_obj.o(i.lv_obj_create) for lv_obj_create
    lv_cont.o(i.lv_cont_create) refers to lv_obj.o(i.lv_obj_get_signal_cb) for lv_obj_get_signal_cb
    lv_cont.o(i.lv_cont_create) refers to lv_obj.o(i.lv_obj_allocate_ext_attr) for lv_obj_allocate_ext_attr
    lv_cont.o(i.lv_cont_create) refers to lv_obj.o(i.lv_obj_get_ext_attr) for lv_obj_get_ext_attr
    lv_cont.o(i.lv_cont_create) refers to lv_obj.o(i.lv_obj_set_signal_cb) for lv_obj_set_signal_cb
    lv_cont.o(i.lv_cont_create) refers to lv_obj.o(i.lv_obj_refresh_style) for lv_obj_refresh_style
    lv_cont.o(i.lv_cont_create) refers to lv_theme.o(i.lv_theme_get_current) for lv_theme_get_current
    lv_cont.o(i.lv_cont_create) refers to lv_obj.o(i.lv_obj_set_style) for lv_obj_set_style
    lv_cont.o(i.lv_cont_create) refers to lv_cont.o(.data) for .data
    lv_cont.o(i.lv_cont_create) refers to lv_cont.o(i.lv_cont_signal) for lv_cont_signal
    lv_cont.o(i.lv_cont_create) refers to lv_style.o(.bss) for lv_style_pretty
    lv_cont.o(i.lv_cont_get_fit_bottom) refers to lv_obj.o(i.lv_obj_get_ext_attr) for lv_obj_get_ext_attr
    lv_cont.o(i.lv_cont_get_fit_left) refers to lv_obj.o(i.lv_obj_get_ext_attr) for lv_obj_get_ext_attr
    lv_cont.o(i.lv_cont_get_fit_right) refers to lv_obj.o(i.lv_obj_get_ext_attr) for lv_obj_get_ext_attr
    lv_cont.o(i.lv_cont_get_fit_top) refers to lv_obj.o(i.lv_obj_get_ext_attr) for lv_obj_get_ext_attr
    lv_cont.o(i.lv_cont_get_layout) refers to lv_obj.o(i.lv_obj_get_ext_attr) for lv_obj_get_ext_attr
    lv_cont.o(i.lv_cont_refr_autofit) refers to lv_obj.o(i.lv_obj_get_ext_attr) for lv_obj_get_ext_attr
    lv_cont.o(i.lv_cont_refr_autofit) refers to lv_obj.o(i.lv_obj_get_style) for lv_obj_get_style
    lv_cont.o(i.lv_cont_refr_autofit) refers to lv_obj.o(i.lv_obj_get_parent) for lv_obj_get_parent
    lv_cont.o(i.lv_cont_refr_autofit) refers to lv_obj.o(i.lv_obj_get_coords) for lv_obj_get_coords
    lv_cont.o(i.lv_cont_refr_autofit) refers to lv_ll.o(i.lv_ll_is_empty) for lv_ll_is_empty
    lv_cont.o(i.lv_cont_refr_autofit) refers to lv_ll.o(i.lv_ll_get_head) for lv_ll_get_head
    lv_cont.o(i.lv_cont_refr_autofit) refers to lv_obj.o(i.lv_obj_get_hidden) for lv_obj_get_hidden
    lv_cont.o(i.lv_cont_refr_autofit) refers to lv_ll.o(i.lv_ll_get_next) for lv_ll_get_next
    lv_cont.o(i.lv_cont_refr_autofit) refers to lv_obj.o(i.lv_obj_invalidate) for lv_obj_invalidate
    lv_cont.o(i.lv_cont_refr_autofit) refers to lv_obj.o(i.lv_obj_get_auto_realign) for lv_obj_get_auto_realign
    lv_cont.o(i.lv_cont_refr_autofit) refers to lv_obj.o(i.lv_obj_realign) for lv_obj_realign
    lv_cont.o(i.lv_cont_refr_layout) refers to lv_obj.o(i.lv_obj_get_ext_attr) for lv_obj_get_ext_attr
    lv_cont.o(i.lv_cont_refr_layout) refers to lv_obj.o(i.lv_obj_get_child) for lv_obj_get_child
    lv_cont.o(i.lv_cont_refr_layout) refers to lv_obj.o(i.lv_obj_get_style) for lv_obj_get_style
    lv_cont.o(i.lv_cont_refr_layout) refers to lv_obj.o(i.lv_obj_get_width) for lv_obj_get_width
    lv_cont.o(i.lv_cont_refr_layout) refers to lv_obj.o(i.lv_obj_get_width_fit) for lv_obj_get_width_fit
    lv_cont.o(i.lv_cont_refr_layout) refers to lv_obj.o(i.lv_obj_get_height) for lv_obj_get_height
    lv_cont.o(i.lv_cont_refr_layout) refers to lv_obj.o(i.lv_obj_set_protect) for lv_obj_set_protect
    lv_cont.o(i.lv_cont_refr_layout) refers to lv_ll.o(i.lv_ll_get_tail) for lv_ll_get_tail
    lv_cont.o(i.lv_cont_refr_layout) refers to lv_ll.o(i.lv_ll_get_head) for lv_ll_get_head
    lv_cont.o(i.lv_cont_refr_layout) refers to lv_obj.o(i.lv_obj_get_hidden) for lv_obj_get_hidden
    lv_cont.o(i.lv_cont_refr_layout) refers to lv_obj.o(i.lv_obj_is_protected) for lv_obj_is_protected
    lv_cont.o(i.lv_cont_refr_layout) refers to lv_ll.o(i.lv_ll_get_next) for lv_ll_get_next
    lv_cont.o(i.lv_cont_refr_layout) refers to lv_obj.o(i.lv_obj_align) for lv_obj_align
    lv_cont.o(i.lv_cont_refr_layout) refers to lv_ll.o(i.lv_ll_get_prev) for lv_ll_get_prev
    lv_cont.o(i.lv_cont_refr_layout) refers to lv_obj.o(i.lv_obj_clear_protect) for lv_obj_clear_protect
    lv_cont.o(i.lv_cont_refr_layout) refers to lv_obj.o(i.lv_obj_set_pos) for lv_obj_set_pos
    lv_cont.o(i.lv_cont_set_fit4) refers to lv_obj.o(i.lv_obj_invalidate) for lv_obj_invalidate
    lv_cont.o(i.lv_cont_set_fit4) refers to lv_obj.o(i.lv_obj_get_ext_attr) for lv_obj_get_ext_attr
    lv_cont.o(i.lv_cont_set_layout) refers to lv_obj.o(i.lv_obj_get_ext_attr) for lv_obj_get_ext_attr
    lv_cont.o(i.lv_cont_signal) refers to lv_obj.o(i.lv_obj_get_width) for lv_obj_get_width
    lv_cont.o(i.lv_cont_signal) refers to lv_obj.o(i.lv_obj_get_height) for lv_obj_get_height
    lv_cont.o(i.lv_cont_signal) refers to lv_cont.o(i.lv_cont_refr_layout) for lv_cont_refr_layout
    lv_cont.o(i.lv_cont_signal) refers to lv_cont.o(i.lv_cont_refr_autofit) for lv_cont_refr_autofit
    lv_cont.o(i.lv_cont_signal) refers to lv_cont.o(.data) for .data
    lv_ddlist.o(i.lv_ddlist_adjust_height) refers to lv_obj.o(i.lv_obj_set_height) for lv_obj_set_height
    lv_ddlist.o(i.lv_ddlist_adjust_height) refers to lv_ddlist.o(i.lv_ddlist_pos_current_option) for lv_ddlist_pos_current_option
    lv_ddlist.o(i.lv_ddlist_anim_ready_cb) refers to lv_obj.o(i.lv_obj_get_ext_attr) for lv_obj_get_ext_attr
    lv_ddlist.o(i.lv_ddlist_anim_ready_cb) refers to lv_ddlist.o(i.lv_ddlist_pos_current_option) for lv_ddlist_pos_current_option
    lv_ddlist.o(i.lv_ddlist_anim_ready_cb) refers to lv_page.o(i.lv_page_set_sb_mode) for lv_page_set_sb_mode
    lv_ddlist.o(i.lv_ddlist_close) refers to lv_obj.o(i.lv_obj_get_ext_attr) for lv_obj_get_ext_attr
    lv_ddlist.o(i.lv_ddlist_close) refers to lv_page.o(i.lv_page_get_scrl) for lv_page_get_scrl
    lv_ddlist.o(i.lv_ddlist_close) refers to lv_obj.o(i.lv_obj_set_drag) for lv_obj_set_drag
    lv_ddlist.o(i.lv_ddlist_close) refers to lv_ddlist.o(i.lv_ddlist_refr_size) for lv_ddlist_refr_size
    lv_ddlist.o(i.lv_ddlist_create) refers to lv_page.o(i.lv_page_create) for lv_page_create
    lv_ddlist.o(i.lv_ddlist_create) refers to lv_obj.o(i.lv_obj_get_signal_cb) for lv_obj_get_signal_cb
    lv_ddlist.o(i.lv_ddlist_create) refers to lv_page.o(i.lv_page_get_scrl) for lv_page_get_scrl
    lv_ddlist.o(i.lv_ddlist_create) refers to lv_obj.o(i.lv_obj_get_design_cb) for lv_obj_get_design_cb
    lv_ddlist.o(i.lv_ddlist_create) refers to lv_obj.o(i.lv_obj_allocate_ext_attr) for lv_obj_allocate_ext_attr
    lv_ddlist.o(i.lv_ddlist_create) refers to lv_obj.o(i.lv_obj_set_signal_cb) for lv_obj_set_signal_cb
    lv_ddlist.o(i.lv_ddlist_create) refers to lv_obj.o(i.lv_obj_set_design_cb) for lv_obj_set_design_cb
    lv_ddlist.o(i.lv_ddlist_create) refers to lv_obj.o(i.lv_obj_get_ext_attr) for lv_obj_get_ext_attr
    lv_ddlist.o(i.lv_ddlist_create) refers to lv_label.o(i.lv_label_create) for lv_label_create
    lv_ddlist.o(i.lv_ddlist_create) refers to lv_label.o(i.lv_label_get_text) for lv_label_get_text
    lv_ddlist.o(i.lv_ddlist_create) refers to lv_label.o(i.lv_label_set_text) for lv_label_set_text
    lv_ddlist.o(i.lv_ddlist_create) refers to lv_obj.o(i.lv_obj_refresh_style) for lv_obj_refresh_style
    lv_ddlist.o(i.lv_ddlist_create) refers to lv_page.o(i.lv_page_set_anim_time) for lv_page_set_anim_time
    lv_ddlist.o(i.lv_ddlist_create) refers to lv_obj.o(i.lv_obj_set_drag) for lv_obj_set_drag
    lv_ddlist.o(i.lv_ddlist_create) refers to lv_cont.o(i.lv_cont_set_fit4) for lv_cont_set_fit4
    lv_ddlist.o(i.lv_ddlist_create) refers to lv_page.o(i.lv_page_set_sb_mode) for lv_page_set_sb_mode
    lv_ddlist.o(i.lv_ddlist_create) refers to lv_page.o(i.lv_page_set_style) for lv_page_set_style
    lv_ddlist.o(i.lv_ddlist_create) refers to lv_ddlist.o(i.lv_ddlist_set_options) for lv_ddlist_set_options
    lv_ddlist.o(i.lv_ddlist_create) refers to lv_theme.o(i.lv_theme_get_current) for lv_theme_get_current
    lv_ddlist.o(i.lv_ddlist_create) refers to lv_ddlist.o(i.lv_ddlist_set_style) for lv_ddlist_set_style
    lv_ddlist.o(i.lv_ddlist_create) refers to lv_ddlist.o(.data) for .data
    lv_ddlist.o(i.lv_ddlist_create) refers to lv_style.o(.bss) for lv_style_plain_color
    lv_ddlist.o(i.lv_ddlist_create) refers to lv_ddlist.o(i.lv_ddlist_signal) for lv_ddlist_signal
    lv_ddlist.o(i.lv_ddlist_create) refers to lv_ddlist.o(i.lv_ddlist_scrl_signal) for lv_ddlist_scrl_signal
    lv_ddlist.o(i.lv_ddlist_create) refers to lv_ddlist.o(i.lv_ddlist_design) for lv_ddlist_design
    lv_ddlist.o(i.lv_ddlist_design) refers to lv_obj.o(i.lv_obj_get_ext_attr) for lv_obj_get_ext_attr
    lv_ddlist.o(i.lv_ddlist_design) refers to lv_obj.o(i.lv_obj_get_opa_scale) for lv_obj_get_opa_scale
    lv_ddlist.o(i.lv_ddlist_design) refers to lv_page.o(i.lv_page_get_style) for lv_page_get_style
    lv_ddlist.o(i.lv_ddlist_design) refers to lv_draw_rect.o(i.lv_draw_rect) for lv_draw_rect
    lv_ddlist.o(i.lv_ddlist_design) refers to lv_area.o(i.lv_area_intersect) for lv_area_intersect
    lv_ddlist.o(i.lv_ddlist_design) refers to lv_style.o(i.lv_style_copy) for lv_style_copy
    lv_ddlist.o(i.lv_ddlist_design) refers to lv_label.o(i.lv_label_get_align) for lv_label_get_align
    lv_ddlist.o(i.lv_ddlist_design) refers to lv_label.o(i.lv_label_get_text) for lv_label_get_text
    lv_ddlist.o(i.lv_ddlist_design) refers to lv_txt.o(i.lv_txt_get_width) for lv_txt_get_width
    lv_ddlist.o(i.lv_ddlist_design) refers to lv_draw_label.o(i.lv_draw_label) for lv_draw_label
    lv_ddlist.o(i.lv_ddlist_design) refers to lv_ddlist.o(.data) for .data
    lv_ddlist.o(i.lv_ddlist_get_align) refers to lv_obj.o(i.lv_obj_get_ext_attr) for lv_obj_get_ext_attr
    lv_ddlist.o(i.lv_ddlist_get_align) refers to lv_label.o(i.lv_label_get_align) for lv_label_get_align
    lv_ddlist.o(i.lv_ddlist_get_draw_arrow) refers to lv_obj.o(i.lv_obj_get_ext_attr) for lv_obj_get_ext_attr
    lv_ddlist.o(i.lv_ddlist_get_fix_height) refers to lv_obj.o(i.lv_obj_get_ext_attr) for lv_obj_get_ext_attr
    lv_ddlist.o(i.lv_ddlist_get_options) refers to lv_obj.o(i.lv_obj_get_ext_attr) for lv_obj_get_ext_attr
    lv_ddlist.o(i.lv_ddlist_get_options) refers to lv_label.o(i.lv_label_get_text) for lv_label_get_text
    lv_ddlist.o(i.lv_ddlist_get_selected) refers to lv_obj.o(i.lv_obj_get_ext_attr) for lv_obj_get_ext_attr
    lv_ddlist.o(i.lv_ddlist_get_selected_str) refers to lv_obj.o(i.lv_obj_get_ext_attr) for lv_obj_get_ext_attr
    lv_ddlist.o(i.lv_ddlist_get_selected_str) refers to lv_label.o(i.lv_label_get_text) for lv_label_get_text
    lv_ddlist.o(i.lv_ddlist_get_selected_str) refers to strlen.o(.text) for strlen
    lv_ddlist.o(i.lv_ddlist_get_stay_open) refers to lv_obj.o(i.lv_obj_get_ext_attr) for lv_obj_get_ext_attr
    lv_ddlist.o(i.lv_ddlist_get_style) refers to lv_obj.o(i.lv_obj_get_ext_attr) for lv_obj_get_ext_attr
    lv_ddlist.o(i.lv_ddlist_get_style) refers to lv_page.o(i.lv_page_get_style) for lv_page_get_style
    lv_ddlist.o(i.lv_ddlist_open) refers to lv_obj.o(i.lv_obj_get_ext_attr) for lv_obj_get_ext_attr
    lv_ddlist.o(i.lv_ddlist_open) refers to lv_page.o(i.lv_page_get_scrl) for lv_page_get_scrl
    lv_ddlist.o(i.lv_ddlist_open) refers to lv_obj.o(i.lv_obj_set_drag) for lv_obj_set_drag
    lv_ddlist.o(i.lv_ddlist_open) refers to lv_ddlist.o(i.lv_ddlist_refr_size) for lv_ddlist_refr_size
    lv_ddlist.o(i.lv_ddlist_pos_current_option) refers to lv_obj.o(i.lv_obj_get_ext_attr) for lv_obj_get_ext_attr
    lv_ddlist.o(i.lv_ddlist_pos_current_option) refers to lv_obj.o(i.lv_obj_get_style) for lv_obj_get_style
    lv_ddlist.o(i.lv_ddlist_pos_current_option) refers to lv_page.o(i.lv_page_get_scrl) for lv_page_get_scrl
    lv_ddlist.o(i.lv_ddlist_pos_current_option) refers to lv_obj.o(i.lv_obj_get_height) for lv_obj_get_height
    lv_ddlist.o(i.lv_ddlist_pos_current_option) refers to lv_obj.o(i.lv_obj_set_y) for lv_obj_set_y
    lv_ddlist.o(i.lv_ddlist_pos_current_option) refers to lv_obj.o(i.lv_obj_invalidate) for lv_obj_invalidate
    lv_ddlist.o(i.lv_ddlist_refr_size) refers to lv_obj.o(i.lv_obj_get_ext_attr) for lv_obj_get_ext_attr
    lv_ddlist.o(i.lv_ddlist_refr_size) refers to lv_obj.o(i.lv_obj_get_style) for lv_obj_get_style
    lv_ddlist.o(i.lv_ddlist_refr_size) refers to lv_page.o(i.lv_page_get_scrl) for lv_page_get_scrl
    lv_ddlist.o(i.lv_ddlist_refr_size) refers to lv_obj.o(i.lv_obj_get_height) for lv_obj_get_height
    lv_ddlist.o(i.lv_ddlist_refr_size) refers to lv_page.o(i.lv_page_set_sb_mode) for lv_page_set_sb_mode
    lv_ddlist.o(i.lv_ddlist_refr_size) refers to lv_page.o(i.lv_page_get_anim_time) for lv_page_get_anim_time
    lv_ddlist.o(i.lv_ddlist_refr_size) refers to lv_anim.o(i.lv_anim_create) for lv_anim_create
    lv_ddlist.o(i.lv_ddlist_refr_size) refers to lv_obj.o(i.lv_obj_set_height) for lv_obj_set_height
    lv_ddlist.o(i.lv_ddlist_refr_size) refers to lv_ddlist.o(i.lv_ddlist_pos_current_option) for lv_ddlist_pos_current_option
    lv_ddlist.o(i.lv_ddlist_refr_size) refers to lv_anim.o(i.lv_anim_del) for lv_anim_del
    lv_ddlist.o(i.lv_ddlist_refr_size) refers to lv_ddlist.o(i.lv_ddlist_adjust_height) for lv_ddlist_adjust_height
    lv_ddlist.o(i.lv_ddlist_refr_size) refers to lv_anim.o(i.lv_anim_path_linear) for lv_anim_path_linear
    lv_ddlist.o(i.lv_ddlist_refr_size) refers to lv_ddlist.o(i.lv_ddlist_anim_ready_cb) for lv_ddlist_anim_ready_cb
    lv_ddlist.o(i.lv_ddlist_scrl_signal) refers to lv_obj.o(i.lv_obj_get_parent) for lv_obj_get_parent
    lv_ddlist.o(i.lv_ddlist_scrl_signal) refers to lv_obj.o(i.lv_obj_get_ext_attr) for lv_obj_get_ext_attr
    lv_ddlist.o(i.lv_ddlist_scrl_signal) refers to lv_page.o(i.lv_page_get_style) for lv_page_get_style
    lv_ddlist.o(i.lv_ddlist_scrl_signal) refers to lv_indev.o(i.lv_indev_get_act) for lv_indev_get_act
    lv_ddlist.o(i.lv_ddlist_scrl_signal) refers to lv_indev.o(i.lv_indev_is_dragging) for lv_indev_is_dragging
    lv_ddlist.o(i.lv_ddlist_scrl_signal) refers to lv_ddlist.o(i.release_handler) for release_handler
    lv_ddlist.o(i.lv_ddlist_scrl_signal) refers to lv_ddlist.o(.data) for .data
    lv_ddlist.o(i.lv_ddlist_set_align) refers to lv_obj.o(i.lv_obj_get_ext_attr) for lv_obj_get_ext_attr
    lv_ddlist.o(i.lv_ddlist_set_align) refers to lv_label.o(i.lv_label_set_align) for lv_label_set_align
    lv_ddlist.o(i.lv_ddlist_set_align) refers to lv_obj.o(i.lv_obj_align) for lv_obj_align
    lv_ddlist.o(i.lv_ddlist_set_draw_arrow) refers to lv_obj.o(i.lv_obj_get_ext_attr) for lv_obj_get_ext_attr
    lv_ddlist.o(i.lv_ddlist_set_fix_height) refers to lv_obj.o(i.lv_obj_get_ext_attr) for lv_obj_get_ext_attr
    lv_ddlist.o(i.lv_ddlist_set_fix_height) refers to lv_ddlist.o(i.lv_ddlist_refr_size) for lv_ddlist_refr_size
    lv_ddlist.o(i.lv_ddlist_set_fix_width) refers to lv_cont.o(i.lv_cont_get_fit_bottom) for lv_cont_get_fit_bottom
    lv_ddlist.o(i.lv_ddlist_set_fix_width) refers to lv_cont.o(i.lv_cont_set_fit4) for lv_cont_set_fit4
    lv_ddlist.o(i.lv_ddlist_set_fix_width) refers to lv_obj.o(i.lv_obj_set_width) for lv_obj_set_width
    lv_ddlist.o(i.lv_ddlist_set_fix_width) refers to lv_ddlist.o(i.lv_ddlist_refr_size) for lv_ddlist_refr_size
    lv_ddlist.o(i.lv_ddlist_set_options) refers to lv_obj.o(i.lv_obj_get_ext_attr) for lv_obj_get_ext_attr
    lv_ddlist.o(i.lv_ddlist_set_options) refers to lv_label.o(i.lv_label_set_text) for lv_label_set_text
    lv_ddlist.o(i.lv_ddlist_set_options) refers to lv_page.o(i.lv_page_get_scrl) for lv_page_get_scrl
    lv_ddlist.o(i.lv_ddlist_set_options) refers to lv_cont.o(i.lv_cont_get_fit_bottom) for lv_cont_get_fit_bottom
    lv_ddlist.o(i.lv_ddlist_set_options) refers to lv_cont.o(i.lv_cont_set_fit4) for lv_cont_set_fit4
    lv_ddlist.o(i.lv_ddlist_set_options) refers to lv_label.o(i.lv_label_get_align) for lv_label_get_align
    lv_ddlist.o(i.lv_ddlist_set_options) refers to lv_obj.o(i.lv_obj_align) for lv_obj_align
    lv_ddlist.o(i.lv_ddlist_set_options) refers to lv_ddlist.o(i.lv_ddlist_refr_size) for lv_ddlist_refr_size
    lv_ddlist.o(i.lv_ddlist_set_selected) refers to lv_obj.o(i.lv_obj_get_ext_attr) for lv_obj_get_ext_attr
    lv_ddlist.o(i.lv_ddlist_set_selected) refers to lv_obj.o(i.lv_obj_invalidate) for lv_obj_invalidate
    lv_ddlist.o(i.lv_ddlist_set_selected) refers to lv_ddlist.o(i.lv_ddlist_pos_current_option) for lv_ddlist_pos_current_option
    lv_ddlist.o(i.lv_ddlist_set_stay_open) refers to lv_obj.o(i.lv_obj_get_ext_attr) for lv_obj_get_ext_attr
    lv_ddlist.o(i.lv_ddlist_set_style) refers to lv_obj.o(i.lv_obj_get_ext_attr) for lv_obj_get_ext_attr
    lv_ddlist.o(i.lv_ddlist_set_style) refers to lv_page.o(i.lv_page_set_style) for lv_page_set_style
    lv_ddlist.o(i.lv_ddlist_set_style) refers to lv_page.o(i.lv_page_get_scrl) for lv_page_get_scrl
    lv_ddlist.o(i.lv_ddlist_set_style) refers to lv_cont.o(i.lv_cont_get_fit_bottom) for lv_cont_get_fit_bottom
    lv_ddlist.o(i.lv_ddlist_set_style) refers to lv_cont.o(i.lv_cont_set_fit4) for lv_cont_set_fit4
    lv_ddlist.o(i.lv_ddlist_set_style) refers to lv_obj.o(i.lv_obj_refresh_ext_draw_pad) for lv_obj_refresh_ext_draw_pad
    lv_ddlist.o(i.lv_ddlist_signal) refers to lv_obj.o(i.lv_obj_get_ext_attr) for lv_obj_get_ext_attr
    lv_ddlist.o(i.lv_ddlist_signal) refers to lv_ddlist.o(i.lv_ddlist_refr_size) for lv_ddlist_refr_size
    lv_ddlist.o(i.lv_ddlist_signal) refers to lv_obj.o(i.lv_obj_get_group) for lv_obj_get_group
    lv_ddlist.o(i.lv_ddlist_signal) refers to lv_group.o(i.lv_group_get_editing) for lv_group_get_editing
    lv_ddlist.o(i.lv_ddlist_signal) refers to lv_indev.o(i.lv_indev_get_act) for lv_indev_get_act
    lv_ddlist.o(i.lv_ddlist_signal) refers to lv_indev.o(i.lv_indev_get_type) for lv_indev_get_type
    lv_ddlist.o(i.lv_ddlist_signal) refers to lv_ddlist.o(i.release_handler) for release_handler
    lv_ddlist.o(i.lv_ddlist_signal) refers to lv_ddlist.o(i.lv_ddlist_pos_current_option) for lv_ddlist_pos_current_option
    lv_ddlist.o(i.lv_ddlist_signal) refers to lv_obj.o(i.lv_obj_invalidate) for lv_obj_invalidate
    lv_ddlist.o(i.lv_ddlist_signal) refers to lv_ddlist.o(.data) for .data
    lv_ddlist.o(i.release_handler) refers to lv_obj.o(i.lv_obj_get_ext_attr) for lv_obj_get_ext_attr
    lv_ddlist.o(i.release_handler) refers to lv_indev.o(i.lv_indev_get_act) for lv_indev_get_act
    lv_ddlist.o(i.release_handler) refers to lv_indev.o(i.lv_indev_get_type) for lv_indev_get_type
    lv_ddlist.o(i.release_handler) refers to lv_page.o(i.lv_page_get_scrl) for lv_page_get_scrl
    lv_ddlist.o(i.release_handler) refers to lv_obj.o(i.lv_obj_set_drag) for lv_obj_set_drag
    lv_ddlist.o(i.release_handler) refers to lv_ddlist.o(i.lv_ddlist_refr_size) for lv_ddlist_refr_size
    lv_ddlist.o(i.release_handler) refers to lv_obj.o(i.lv_obj_get_group) for lv_obj_get_group
    lv_ddlist.o(i.release_handler) refers to lv_group.o(i.lv_group_get_editing) for lv_group_get_editing
    lv_ddlist.o(i.release_handler) refers to lv_group.o(i.lv_group_set_editing) for lv_group_set_editing
    lv_ddlist.o(i.release_handler) refers to lv_indev.o(i.lv_indev_get_point) for lv_indev_get_point
    lv_ddlist.o(i.release_handler) refers to lv_label.o(i.lv_label_get_letter_on) for lv_label_get_letter_on
    lv_ddlist.o(i.release_handler) refers to lv_label.o(i.lv_label_get_text) for lv_label_get_text
    lv_ddlist.o(i.release_handler) refers to lv_obj.o(i.lv_event_send) for lv_event_send
    lv_ddlist.o(i.release_handler) refers to lv_obj.o(i.lv_obj_invalidate) for lv_obj_invalidate
    lv_ddlist.o(i.release_handler) refers to lv_txt.o(.data) for lv_txt_encoded_next
    lv_gauge.o(i.lv_gauge_create) refers to lv_lmeter.o(i.lv_lmeter_create) for lv_lmeter_create
    lv_gauge.o(i.lv_gauge_create) refers to lv_obj.o(i.lv_obj_allocate_ext_attr) for lv_obj_allocate_ext_attr
    lv_gauge.o(i.lv_gauge_create) refers to lv_obj.o(i.lv_obj_get_signal_cb) for lv_obj_get_signal_cb
    lv_gauge.o(i.lv_gauge_create) refers to lv_obj.o(i.lv_obj_get_design_cb) for lv_obj_get_design_cb
    lv_gauge.o(i.lv_gauge_create) refers to lv_obj.o(i.lv_obj_set_signal_cb) for lv_obj_set_signal_cb
    lv_gauge.o(i.lv_gauge_create) refers to lv_obj.o(i.lv_obj_set_design_cb) for lv_obj_set_design_cb
    lv_gauge.o(i.lv_gauge_create) refers to lv_obj.o(i.lv_obj_get_ext_attr) for lv_obj_get_ext_attr
    lv_gauge.o(i.lv_gauge_create) refers to lv_mem.o(i.lv_mem_free) for lv_mem_free
    lv_gauge.o(i.lv_gauge_create) refers to lv_mem.o(i.lv_mem_realloc) for lv_mem_realloc
    lv_gauge.o(i.lv_gauge_create) refers to lv_lmeter.o(i.lv_lmeter_get_min_value) for lv_lmeter_get_min_value
    lv_gauge.o(i.lv_gauge_create) refers to lv_obj.o(i.lv_obj_invalidate) for lv_obj_invalidate
    lv_gauge.o(i.lv_gauge_create) refers to lv_obj.o(i.lv_obj_refresh_style) for lv_obj_refresh_style
    lv_gauge.o(i.lv_gauge_create) refers to lv_lmeter.o(i.lv_lmeter_set_scale) for lv_lmeter_set_scale
    lv_gauge.o(i.lv_gauge_create) refers to lv_lmeter.o(i.lv_lmeter_set_value) for lv_lmeter_set_value
    lv_gauge.o(i.lv_gauge_create) refers to lv_obj.o(i.lv_obj_set_size) for lv_obj_set_size
    lv_gauge.o(i.lv_gauge_create) refers to lv_theme.o(i.lv_theme_get_current) for lv_theme_get_current
    lv_gauge.o(i.lv_gauge_create) refers to lv_obj.o(i.lv_obj_set_style) for lv_obj_set_style
    lv_gauge.o(i.lv_gauge_create) refers to lv_gauge.o(.data) for .data
    lv_gauge.o(i.lv_gauge_create) refers to lv_gauge.o(i.lv_gauge_signal) for lv_gauge_signal
    lv_gauge.o(i.lv_gauge_create) refers to lv_gauge.o(i.lv_gauge_design) for lv_gauge_design
    lv_gauge.o(i.lv_gauge_create) refers to lv_style.o(.bss) for lv_style_pretty_color
    lv_gauge.o(i.lv_gauge_design) refers to lv_obj.o(i.lv_obj_get_style) for lv_obj_get_style
    lv_gauge.o(i.lv_gauge_design) refers to lv_obj.o(i.lv_obj_get_ext_attr) for lv_obj_get_ext_attr
    lv_gauge.o(i.lv_gauge_design) refers to lv_obj.o(i.lv_obj_get_opa_scale) for lv_obj_get_opa_scale
    lv_gauge.o(i.lv_gauge_design) refers to lv_obj.o(i.lv_obj_get_width) for lv_obj_get_width
    lv_gauge.o(i.lv_gauge_design) refers to lv_obj.o(i.lv_obj_get_height) for lv_obj_get_height
    lv_gauge.o(i.lv_gauge_design) refers to lv_lmeter.o(i.lv_lmeter_get_scale_angle) for lv_lmeter_get_scale_angle
    lv_gauge.o(i.lv_gauge_design) refers to lv_lmeter.o(i.lv_lmeter_get_min_value) for lv_lmeter_get_min_value
    lv_gauge.o(i.lv_gauge_design) refers to lv_lmeter.o(i.lv_lmeter_get_max_value) for lv_lmeter_get_max_value
    lv_gauge.o(i.lv_gauge_design) refers to lv_math.o(i.lv_trigo_sin) for lv_trigo_sin
    lv_gauge.o(i.lv_gauge_design) refers to lv_utils.o(i.lv_utils_num_to_str) for lv_utils_num_to_str
    lv_gauge.o(i.lv_gauge_design) refers to lv_txt.o(i.lv_txt_get_size) for lv_txt_get_size
    lv_gauge.o(i.lv_gauge_design) refers to lv_draw_label.o(i.lv_draw_label) for lv_draw_label
    lv_gauge.o(i.lv_gauge_design) refers to lv_style.o(i.lv_style_copy) for lv_style_copy
    lv_gauge.o(i.lv_gauge_design) refers to lv_draw_line.o(i.lv_draw_line) for lv_draw_line
    lv_gauge.o(i.lv_gauge_design) refers to lv_draw_rect.o(i.lv_draw_rect) for lv_draw_rect
    lv_gauge.o(i.lv_gauge_design) refers to lv_gauge.o(.data) for .data
    lv_gauge.o(i.lv_gauge_design) refers to lv_style.o(.bss) for lv_style_plain
    lv_gauge.o(i.lv_gauge_get_label_count) refers to lv_obj.o(i.lv_obj_get_ext_attr) for lv_obj_get_ext_attr
    lv_gauge.o(i.lv_gauge_get_needle_count) refers to lv_obj.o(i.lv_obj_get_ext_attr) for lv_obj_get_ext_attr
    lv_gauge.o(i.lv_gauge_get_value) refers to lv_obj.o(i.lv_obj_get_ext_attr) for lv_obj_get_ext_attr
    lv_gauge.o(i.lv_gauge_get_value) refers to lv_lmeter.o(i.lv_lmeter_get_min_value) for lv_lmeter_get_min_value
    lv_gauge.o(i.lv_gauge_set_needle_count) refers to lv_obj.o(i.lv_obj_get_ext_attr) for lv_obj_get_ext_attr
    lv_gauge.o(i.lv_gauge_set_needle_count) refers to lv_mem.o(i.lv_mem_free) for lv_mem_free
    lv_gauge.o(i.lv_gauge_set_needle_count) refers to lv_mem.o(i.lv_mem_realloc) for lv_mem_realloc
    lv_gauge.o(i.lv_gauge_set_needle_count) refers to lv_lmeter.o(i.lv_lmeter_get_min_value) for lv_lmeter_get_min_value
    lv_gauge.o(i.lv_gauge_set_needle_count) refers to lv_obj.o(i.lv_obj_invalidate) for lv_obj_invalidate
    lv_gauge.o(i.lv_gauge_set_scale) refers to lv_lmeter.o(i.lv_lmeter_set_scale) for lv_lmeter_set_scale
    lv_gauge.o(i.lv_gauge_set_scale) refers to lv_obj.o(i.lv_obj_get_ext_attr) for lv_obj_get_ext_attr
    lv_gauge.o(i.lv_gauge_set_scale) refers to lv_obj.o(i.lv_obj_invalidate) for lv_obj_invalidate
    lv_gauge.o(i.lv_gauge_set_value) refers to lv_obj.o(i.lv_obj_get_ext_attr) for lv_obj_get_ext_attr
    lv_gauge.o(i.lv_gauge_set_value) refers to lv_lmeter.o(i.lv_lmeter_get_min_value) for lv_lmeter_get_min_value
    lv_gauge.o(i.lv_gauge_set_value) refers to lv_lmeter.o(i.lv_lmeter_get_max_value) for lv_lmeter_get_max_value
    lv_gauge.o(i.lv_gauge_set_value) refers to lv_obj.o(i.lv_obj_invalidate) for lv_obj_invalidate
    lv_gauge.o(i.lv_gauge_signal) refers to lv_obj.o(i.lv_obj_get_ext_attr) for lv_obj_get_ext_attr
    lv_gauge.o(i.lv_gauge_signal) refers to lv_mem.o(i.lv_mem_free) for lv_mem_free
    lv_gauge.o(i.lv_gauge_signal) refers to lv_gauge.o(.data) for .data
    lv_img.o(i.lv_img_create) refers to lv_obj.o(i.lv_obj_create) for lv_obj_create
    lv_img.o(i.lv_img_create) refers to lv_obj.o(i.lv_obj_get_signal_cb) for lv_obj_get_signal_cb
    lv_img.o(i.lv_img_create) refers to lv_obj.o(i.lv_obj_allocate_ext_attr) for lv_obj_allocate_ext_attr
    lv_img.o(i.lv_img_create) refers to lv_obj.o(i.lv_obj_get_width) for lv_obj_get_width
    lv_img.o(i.lv_img_create) refers to lv_obj.o(i.lv_obj_get_height) for lv_obj_get_height
    lv_img.o(i.lv_img_create) refers to lv_obj.o(i.lv_obj_set_signal_cb) for lv_obj_set_signal_cb
    lv_img.o(i.lv_img_create) refers to lv_obj.o(i.lv_obj_set_design_cb) for lv_obj_set_design_cb
    lv_img.o(i.lv_img_create) refers to lv_obj.o(i.lv_obj_get_ext_attr) for lv_obj_get_ext_attr
    lv_img.o(i.lv_img_create) refers to lv_img.o(i.lv_img_set_src) for lv_img_set_src
    lv_img.o(i.lv_img_create) refers to lv_obj.o(i.lv_obj_refresh_style) for lv_obj_refresh_style
    lv_img.o(i.lv_img_create) refers to lv_obj.o(i.lv_obj_set_click) for lv_obj_set_click
    lv_img.o(i.lv_img_create) refers to lv_obj.o(i.lv_obj_set_style) for lv_obj_set_style
    lv_img.o(i.lv_img_create) refers to lv_img.o(.data) for .data
    lv_img.o(i.lv_img_create) refers to lv_img.o(i.lv_img_signal) for lv_img_signal
    lv_img.o(i.lv_img_create) refers to lv_img.o(i.lv_img_design) for lv_img_design
    lv_img.o(i.lv_img_create) refers to lv_style.o(.bss) for lv_style_plain
    lv_img.o(i.lv_img_design) refers to lv_obj.o(i.lv_obj_get_style) for lv_obj_get_style
    lv_img.o(i.lv_img_design) refers to lv_obj.o(i.lv_obj_get_ext_attr) for lv_obj_get_ext_attr
    lv_img.o(i.lv_img_design) refers to lv_area.o(i.lv_area_is_in) for lv_area_is_in
    lv_img.o(i.lv_img_design) refers to lv_obj.o(i.lv_obj_get_opa_scale) for lv_obj_get_opa_scale
    lv_img.o(i.lv_img_design) refers to lv_obj.o(i.lv_obj_get_coords) for lv_obj_get_coords
    lv_img.o(i.lv_img_design) refers to lv_draw_img.o(i.lv_draw_img) for lv_draw_img
    lv_img.o(i.lv_img_design) refers to lv_style.o(i.lv_style_copy) for lv_style_copy
    lv_img.o(i.lv_img_design) refers to lv_draw_label.o(i.lv_draw_label) for lv_draw_label
    lv_img.o(i.lv_img_get_auto_size) refers to lv_obj.o(i.lv_obj_get_ext_attr) for lv_obj_get_ext_attr
    lv_img.o(i.lv_img_get_file_name) refers to lv_obj.o(i.lv_obj_get_ext_attr) for lv_obj_get_ext_attr
    lv_img.o(i.lv_img_get_offset_x) refers to lv_obj.o(i.lv_obj_get_ext_attr) for lv_obj_get_ext_attr
    lv_img.o(i.lv_img_get_offset_y) refers to lv_obj.o(i.lv_obj_get_ext_attr) for lv_obj_get_ext_attr
    lv_img.o(i.lv_img_get_src) refers to lv_obj.o(i.lv_obj_get_ext_attr) for lv_obj_get_ext_attr
    lv_img.o(i.lv_img_set_auto_size) refers to lv_obj.o(i.lv_obj_get_ext_attr) for lv_obj_get_ext_attr
    lv_img.o(i.lv_img_set_offset_x) refers to lv_obj.o(i.lv_obj_get_ext_attr) for lv_obj_get_ext_attr
    lv_img.o(i.lv_img_set_offset_x) refers to lv_obj.o(i.lv_obj_invalidate) for lv_obj_invalidate
    lv_img.o(i.lv_img_set_offset_y) refers to lv_obj.o(i.lv_obj_get_ext_attr) for lv_obj_get_ext_attr
    lv_img.o(i.lv_img_set_offset_y) refers to lv_obj.o(i.lv_obj_invalidate) for lv_obj_invalidate
    lv_img.o(i.lv_img_set_src) refers to lv_draw_img.o(i.lv_img_src_get_type) for lv_img_src_get_type
    lv_img.o(i.lv_img_set_src) refers to lv_obj.o(i.lv_obj_get_ext_attr) for lv_obj_get_ext_attr
    lv_img.o(i.lv_img_set_src) refers to lv_img_decoder.o(i.lv_img_decoder_get_info) for lv_img_decoder_get_info
    lv_img.o(i.lv_img_set_src) refers to lv_mem.o(i.lv_mem_free) for lv_mem_free
    lv_img.o(i.lv_img_set_src) refers to strlen.o(.text) for strlen
    lv_img.o(i.lv_img_set_src) refers to lv_mem.o(i.lv_mem_alloc) for lv_mem_alloc
    lv_img.o(i.lv_img_set_src) refers to strcpy.o(.text) for strcpy
    lv_img.o(i.lv_img_set_src) refers to lv_obj.o(i.lv_obj_get_style) for lv_obj_get_style
    lv_img.o(i.lv_img_set_src) refers to lv_txt.o(i.lv_txt_get_size) for lv_txt_get_size
    lv_img.o(i.lv_img_set_src) refers to lv_obj.o(i.lv_obj_set_size) for lv_obj_set_size
    lv_img.o(i.lv_img_set_src) refers to lv_obj.o(i.lv_obj_invalidate) for lv_obj_invalidate
    lv_img.o(i.lv_img_signal) refers to lv_obj.o(i.lv_obj_get_ext_attr) for lv_obj_get_ext_attr
    lv_img.o(i.lv_img_signal) refers to lv_mem.o(i.lv_mem_free) for lv_mem_free
    lv_img.o(i.lv_img_signal) refers to lv_img.o(i.lv_img_set_src) for lv_img_set_src
    lv_img.o(i.lv_img_signal) refers to lv_img.o(.data) for .data
    lv_imgbtn.o(i.lv_imgbtn_create) refers to lv_btn.o(i.lv_btn_create) for lv_btn_create
    lv_imgbtn.o(i.lv_imgbtn_create) refers to lv_obj.o(i.lv_obj_allocate_ext_attr) for lv_obj_allocate_ext_attr
    lv_imgbtn.o(i.lv_imgbtn_create) refers to lv_obj.o(i.lv_obj_get_signal_cb) for lv_obj_get_signal_cb
    lv_imgbtn.o(i.lv_imgbtn_create) refers to lv_obj.o(i.lv_obj_get_design_cb) for lv_obj_get_design_cb
    lv_imgbtn.o(i.lv_imgbtn_create) refers to lv_obj.o(i.lv_obj_set_signal_cb) for lv_obj_set_signal_cb
    lv_imgbtn.o(i.lv_imgbtn_create) refers to lv_obj.o(i.lv_obj_set_design_cb) for lv_obj_set_design_cb
    lv_imgbtn.o(i.lv_imgbtn_create) refers to lv_obj.o(i.lv_obj_get_ext_attr) for lv_obj_get_ext_attr
    lv_imgbtn.o(i.lv_imgbtn_create) refers to lv_obj.o(i.lv_obj_refresh_style) for lv_obj_refresh_style
    lv_imgbtn.o(i.lv_imgbtn_create) refers to lv_imgbtn.o(.data) for .data
    lv_imgbtn.o(i.lv_imgbtn_create) refers to lv_imgbtn.o(i.lv_imgbtn_signal) for lv_imgbtn_signal
    lv_imgbtn.o(i.lv_imgbtn_create) refers to lv_imgbtn.o(i.lv_imgbtn_design) for lv_imgbtn_design
    lv_imgbtn.o(i.lv_imgbtn_design) refers to lv_obj.o(i.lv_obj_get_ext_attr) for lv_obj_get_ext_attr
    lv_imgbtn.o(i.lv_imgbtn_design) refers to lv_area.o(i.lv_area_is_in) for lv_area_is_in
    lv_imgbtn.o(i.lv_imgbtn_design) refers to lv_btn.o(i.lv_btn_get_state) for lv_btn_get_state
    lv_imgbtn.o(i.lv_imgbtn_design) refers to lv_btn.o(i.lv_btn_get_style) for lv_btn_get_style
    lv_imgbtn.o(i.lv_imgbtn_design) refers to lv_obj.o(i.lv_obj_get_opa_scale) for lv_obj_get_opa_scale
    lv_imgbtn.o(i.lv_imgbtn_design) refers to lv_draw_img.o(i.lv_draw_img) for lv_draw_img
    lv_imgbtn.o(i.lv_imgbtn_get_src) refers to lv_obj.o(i.lv_obj_get_ext_attr) for lv_obj_get_ext_attr
    lv_imgbtn.o(i.lv_imgbtn_get_style) refers to lv_btn.o(i.lv_btn_get_style) for lv_btn_get_style
    lv_imgbtn.o(i.lv_imgbtn_set_src) refers to lv_obj.o(i.lv_obj_get_ext_attr) for lv_obj_get_ext_attr
    lv_imgbtn.o(i.lv_imgbtn_set_src) refers to lv_btn.o(i.lv_btn_get_state) for lv_btn_get_state
    lv_imgbtn.o(i.lv_imgbtn_set_src) refers to lv_img_decoder.o(i.lv_img_decoder_get_info) for lv_img_decoder_get_info
    lv_imgbtn.o(i.lv_imgbtn_set_src) refers to lv_obj.o(i.lv_obj_invalidate) for lv_obj_invalidate
    lv_imgbtn.o(i.lv_imgbtn_set_src) refers to lv_obj.o(i.lv_obj_set_size) for lv_obj_set_size
    lv_imgbtn.o(i.lv_imgbtn_set_style) refers to lv_btn.o(i.lv_btn_set_style) for lv_btn_set_style
    lv_imgbtn.o(i.lv_imgbtn_signal) refers to lv_obj.o(i.lv_obj_get_ext_attr) for lv_obj_get_ext_attr
    lv_imgbtn.o(i.lv_imgbtn_signal) refers to lv_btn.o(i.lv_btn_get_state) for lv_btn_get_state
    lv_imgbtn.o(i.lv_imgbtn_signal) refers to lv_img_decoder.o(i.lv_img_decoder_get_info) for lv_img_decoder_get_info
    lv_imgbtn.o(i.lv_imgbtn_signal) refers to lv_obj.o(i.lv_obj_invalidate) for lv_obj_invalidate
    lv_imgbtn.o(i.lv_imgbtn_signal) refers to lv_obj.o(i.lv_obj_set_size) for lv_obj_set_size
    lv_imgbtn.o(i.lv_imgbtn_signal) refers to lv_imgbtn.o(.data) for .data
    lv_kb.o(i.lv_kb_create) refers to lv_btnm.o(i.lv_btnm_create) for lv_btnm_create
    lv_kb.o(i.lv_kb_create) refers to lv_obj.o(i.lv_obj_get_signal_cb) for lv_obj_get_signal_cb
    lv_kb.o(i.lv_kb_create) refers to lv_obj.o(i.lv_obj_allocate_ext_attr) for lv_obj_allocate_ext_attr
    lv_kb.o(i.lv_kb_create) refers to lv_obj.o(i.lv_obj_set_signal_cb) for lv_obj_set_signal_cb
    lv_kb.o(i.lv_kb_create) refers to lv_obj.o(i.lv_obj_get_ext_attr) for lv_obj_get_ext_attr
    lv_kb.o(i.lv_kb_create) refers to lv_obj.o(i.lv_obj_refresh_style) for lv_obj_refresh_style
    lv_kb.o(i.lv_kb_create) refers to lv_obj.o(i.lv_obj_get_parent) for lv_obj_get_parent
    lv_kb.o(i.lv_kb_create) refers to lv_obj.o(i.lv_obj_get_height_fit) for lv_obj_get_height_fit
    lv_kb.o(i.lv_kb_create) refers to lv_obj.o(i.lv_obj_get_width_fit) for lv_obj_get_width_fit
    lv_kb.o(i.lv_kb_create) refers to lv_obj.o(i.lv_obj_set_size) for lv_obj_set_size
    lv_kb.o(i.lv_kb_create) refers to lv_obj.o(i.lv_obj_align) for lv_obj_align
    lv_kb.o(i.lv_kb_create) refers to lv_obj.o(i.lv_obj_set_event_cb) for lv_obj_set_event_cb
    lv_kb.o(i.lv_kb_create) refers to lv_btnm.o(i.lv_btnm_set_map) for lv_btnm_set_map
    lv_kb.o(i.lv_kb_create) refers to lv_btnm.o(i.lv_btnm_set_ctrl_map) for lv_btnm_set_ctrl_map
    lv_kb.o(i.lv_kb_create) refers to lv_theme.o(i.lv_theme_get_current) for lv_theme_get_current
    lv_kb.o(i.lv_kb_create) refers to lv_kb.o(i.lv_kb_set_style) for lv_kb_set_style
    lv_kb.o(i.lv_kb_create) refers to lv_kb.o(.data) for .data
    lv_kb.o(i.lv_kb_create) refers to lv_kb.o(i.lv_kb_signal) for lv_kb_signal
    lv_kb.o(i.lv_kb_create) refers to lv_kb.o(i.lv_kb_def_event_cb) for lv_kb_def_event_cb
    lv_kb.o(i.lv_kb_create) refers to lv_kb.o(.constdata) for .constdata
    lv_kb.o(i.lv_kb_def_event_cb) refers to lv_obj.o(i.lv_obj_get_ext_attr) for lv_obj_get_ext_attr
    lv_kb.o(i.lv_kb_def_event_cb) refers to lv_btnm.o(i.lv_btnm_get_active_btn) for lv_btnm_get_active_btn
    lv_kb.o(i.lv_kb_def_event_cb) refers to lv_btnm.o(i.lv_btnm_get_btn_ctrl) for lv_btnm_get_btn_ctrl
    lv_kb.o(i.lv_kb_def_event_cb) refers to lv_btnm.o(i.lv_btnm_get_active_btn_text) for lv_btnm_get_active_btn_text
    lv_kb.o(i.lv_kb_def_event_cb) refers to strcmp.o(.text) for strcmp
    lv_kb.o(i.lv_kb_def_event_cb) refers to lv_ta.o(i.lv_ta_add_text) for lv_ta_add_text
    lv_kb.o(i.lv_kb_def_event_cb) refers to lv_btnm.o(i.lv_btnm_set_map) for lv_btnm_set_map
    lv_kb.o(i.lv_kb_def_event_cb) refers to lv_btnm.o(i.lv_btnm_set_ctrl_map) for lv_btnm_set_ctrl_map
    lv_kb.o(i.lv_kb_def_event_cb) refers to lv_obj.o(i.lv_event_send) for lv_event_send
    lv_kb.o(i.lv_kb_def_event_cb) refers to lv_ta.o(i.lv_ta_get_cursor_type) for lv_ta_get_cursor_type
    lv_kb.o(i.lv_kb_def_event_cb) refers to lv_ta.o(i.lv_ta_set_cursor_type) for lv_ta_set_cursor_type
    lv_kb.o(i.lv_kb_def_event_cb) refers to lv_obj.o(i.lv_obj_del) for lv_obj_del
    lv_kb.o(i.lv_kb_def_event_cb) refers to lv_ta.o(i.lv_ta_add_char) for lv_ta_add_char
    lv_kb.o(i.lv_kb_def_event_cb) refers to lv_ta.o(i.lv_ta_cursor_left) for lv_ta_cursor_left
    lv_kb.o(i.lv_kb_def_event_cb) refers to lv_ta.o(i.lv_ta_cursor_right) for lv_ta_cursor_right
    lv_kb.o(i.lv_kb_def_event_cb) refers to lv_ta.o(i.lv_ta_del_char) for lv_ta_del_char
    lv_kb.o(i.lv_kb_def_event_cb) refers to lv_ta.o(i.lv_ta_get_cursor_pos) for lv_ta_get_cursor_pos
    lv_kb.o(i.lv_kb_def_event_cb) refers to lv_ta.o(i.lv_ta_get_text) for lv_ta_get_text
    lv_kb.o(i.lv_kb_def_event_cb) refers to lv_ta.o(i.lv_ta_set_cursor_pos) for lv_ta_set_cursor_pos
    lv_kb.o(i.lv_kb_def_event_cb) refers to lv_kb.o(.data) for .data
    lv_kb.o(i.lv_kb_def_event_cb) refers to lv_kb.o(.constdata) for .constdata
    lv_kb.o(i.lv_kb_get_cursor_manage) refers to lv_obj.o(i.lv_obj_get_ext_attr) for lv_obj_get_ext_attr
    lv_kb.o(i.lv_kb_get_mode) refers to lv_obj.o(i.lv_obj_get_ext_attr) for lv_obj_get_ext_attr
    lv_kb.o(i.lv_kb_get_style) refers to lv_btnm.o(i.lv_btnm_get_style) for lv_btnm_get_style
    lv_kb.o(i.lv_kb_get_ta) refers to lv_obj.o(i.lv_obj_get_ext_attr) for lv_obj_get_ext_attr
    lv_kb.o(i.lv_kb_set_cursor_manage) refers to lv_obj.o(i.lv_obj_get_ext_attr) for lv_obj_get_ext_attr
    lv_kb.o(i.lv_kb_set_cursor_manage) refers to lv_ta.o(i.lv_ta_get_cursor_type) for lv_ta_get_cursor_type
    lv_kb.o(i.lv_kb_set_cursor_manage) refers to lv_ta.o(i.lv_ta_set_cursor_type) for lv_ta_set_cursor_type
    lv_kb.o(i.lv_kb_set_mode) refers to lv_obj.o(i.lv_obj_get_ext_attr) for lv_obj_get_ext_attr
    lv_kb.o(i.lv_kb_set_mode) refers to lv_btnm.o(i.lv_btnm_set_map) for lv_btnm_set_map
    lv_kb.o(i.lv_kb_set_mode) refers to lv_btnm.o(i.lv_btnm_set_ctrl_map) for lv_btnm_set_ctrl_map
    lv_kb.o(i.lv_kb_set_mode) refers to lv_kb.o(.data) for .data
    lv_kb.o(i.lv_kb_set_mode) refers to lv_kb.o(.constdata) for .constdata
    lv_kb.o(i.lv_kb_set_style) refers to lv_btnm.o(i.lv_btnm_set_style) for lv_btnm_set_style
    lv_kb.o(i.lv_kb_set_ta) refers to lv_obj.o(i.lv_obj_get_ext_attr) for lv_obj_get_ext_attr
    lv_kb.o(i.lv_kb_set_ta) refers to lv_ta.o(i.lv_ta_get_cursor_type) for lv_ta_get_cursor_type
    lv_kb.o(i.lv_kb_set_ta) refers to lv_ta.o(i.lv_ta_set_cursor_type) for lv_ta_set_cursor_type
    lv_kb.o(i.lv_kb_signal) refers to lv_obj.o(i.lv_obj_get_ext_attr) for lv_obj_get_ext_attr
    lv_kb.o(i.lv_kb_signal) refers to lv_ta.o(i.lv_ta_get_cursor_type) for lv_ta_get_cursor_type
    lv_kb.o(i.lv_kb_signal) refers to lv_ta.o(i.lv_ta_set_cursor_type) for lv_ta_set_cursor_type
    lv_kb.o(i.lv_kb_signal) refers to lv_kb.o(.data) for .data
    lv_kb.o(.data) refers to lv_kb.o(.conststring) for .conststring
    lv_label.o(i.lv_label_create) refers to lv_obj.o(i.lv_obj_create) for lv_obj_create
    lv_label.o(i.lv_label_create) refers to lv_obj.o(i.lv_obj_get_signal_cb) for lv_obj_get_signal_cb
    lv_label.o(i.lv_label_create) refers to lv_obj.o(i.lv_obj_allocate_ext_attr) for lv_obj_allocate_ext_attr
    lv_label.o(i.lv_label_create) refers to lv_obj.o(i.lv_obj_get_ext_attr) for lv_obj_get_ext_attr
    lv_label.o(i.lv_label_create) refers to lv_obj.o(i.lv_obj_set_design_cb) for lv_obj_set_design_cb
    lv_label.o(i.lv_label_create) refers to lv_obj.o(i.lv_obj_set_signal_cb) for lv_obj_set_signal_cb
    lv_label.o(i.lv_label_create) refers to lv_anim.o(i.lv_anim_del) for lv_anim_del
    lv_label.o(i.lv_label_create) refers to lv_obj.o(i.lv_obj_set_click) for lv_obj_set_click
    lv_label.o(i.lv_label_create) refers to lv_label.o(i.lv_label_revert_dots) for lv_label_revert_dots
    lv_label.o(i.lv_label_create) refers to lv_label.o(i.lv_label_refr_text) for lv_label_refr_text
    lv_label.o(i.lv_label_create) refers to lv_label.o(i.lv_label_set_text) for lv_label_set_text
    lv_label.o(i.lv_label_create) refers to lv_obj.o(i.lv_obj_set_style) for lv_obj_set_style
    lv_label.o(i.lv_label_create) refers to lv_obj.o(i.lv_obj_refresh_ext_draw_pad) for lv_obj_refresh_ext_draw_pad
    lv_label.o(i.lv_label_create) refers to lv_obj.o(i.lv_obj_invalidate) for lv_obj_invalidate
    lv_label.o(i.lv_label_create) refers to lv_mem.o(i.lv_mem_free) for lv_mem_free
    lv_label.o(i.lv_label_create) refers to lv_mem.o(i.lv_mem_get_size) for lv_mem_get_size
    lv_label.o(i.lv_label_create) refers to lv_mem.o(i.lv_mem_realloc) for lv_mem_realloc
    lv_label.o(i.lv_label_create) refers to memmovea.o(.text) for __aeabi_memcpy
    lv_label.o(i.lv_label_create) refers to strlen.o(.text) for strlen
    lv_label.o(i.lv_label_create) refers to lv_mem.o(i.lv_mem_alloc) for lv_mem_alloc
    lv_label.o(i.lv_label_create) refers to lv_obj.o(i.lv_obj_refresh_style) for lv_obj_refresh_style
    lv_label.o(i.lv_label_create) refers to lv_label.o(.data) for .data
    lv_label.o(i.lv_label_create) refers to lv_label.o(i.lv_label_design) for lv_label_design
    lv_label.o(i.lv_label_create) refers to lv_label.o(i.lv_label_signal) for lv_label_signal
    lv_label.o(i.lv_label_create) refers to lv_obj.o(i.lv_obj_set_x) for lv_obj_set_x
    lv_label.o(i.lv_label_create) refers to lv_obj.o(i.lv_obj_set_y) for lv_obj_set_y
    lv_label.o(i.lv_label_create) refers to lv_label.o(i.lv_label_set_offset_x) for lv_label_set_offset_x
    lv_label.o(i.lv_label_create) refers to lv_label.o(i.lv_label_set_offset_y) for lv_label_set_offset_y
    lv_label.o(i.lv_label_cut_text) refers to lv_obj.o(i.lv_obj_get_ext_attr) for lv_obj_get_ext_attr
    lv_label.o(i.lv_label_cut_text) refers to lv_obj.o(i.lv_obj_invalidate) for lv_obj_invalidate
    lv_label.o(i.lv_label_cut_text) refers to lv_txt.o(i.lv_txt_cut) for lv_txt_cut
    lv_label.o(i.lv_label_cut_text) refers to lv_label.o(i.lv_label_refr_text) for lv_label_refr_text
    lv_label.o(i.lv_label_design) refers to lv_obj.o(i.lv_obj_get_style) for lv_obj_get_style
    lv_label.o(i.lv_label_design) refers to lv_obj.o(i.lv_obj_get_opa_scale) for lv_obj_get_opa_scale
    lv_label.o(i.lv_label_design) refers to lv_obj.o(i.lv_obj_get_coords) for lv_obj_get_coords
    lv_label.o(i.lv_label_design) refers to lv_obj.o(i.lv_obj_get_group) for lv_obj_get_group
    lv_label.o(i.lv_label_design) refers to lv_group.o(i.lv_group_get_focused) for lv_group_get_focused
    lv_label.o(i.lv_label_design) refers to lv_draw_rect.o(i.lv_draw_rect) for lv_draw_rect
    lv_label.o(i.lv_label_design) refers to lv_obj.o(i.lv_obj_get_ext_attr) for lv_obj_get_ext_attr
    lv_label.o(i.lv_label_design) refers to lv_txt.o(i.lv_txt_get_size) for lv_txt_get_size
    lv_label.o(i.lv_label_design) refers to lv_obj.o(i.lv_obj_get_width) for lv_obj_get_width
    lv_label.o(i.lv_label_design) refers to lv_obj.o(i.lv_obj_get_height) for lv_obj_get_height
    lv_label.o(i.lv_label_design) refers to lv_draw_label.o(i.lv_draw_label) for lv_draw_label
    lv_label.o(i.lv_label_design) refers to lv_font.o(i.lv_font_get_glyph_width) for lv_font_get_glyph_width
    lv_label.o(i.lv_label_get_align) refers to lv_obj.o(i.lv_obj_get_ext_attr) for lv_obj_get_ext_attr
    lv_label.o(i.lv_label_get_anim_speed) refers to lv_obj.o(i.lv_obj_get_ext_attr) for lv_obj_get_ext_attr
    lv_label.o(i.lv_label_get_body_draw) refers to lv_obj.o(i.lv_obj_get_ext_attr) for lv_obj_get_ext_attr
    lv_label.o(i.lv_label_get_letter_on) refers to lv_obj.o(i.lv_obj_get_ext_attr) for lv_obj_get_ext_attr
    lv_label.o(i.lv_label_get_letter_on) refers to lv_obj.o(i.lv_obj_get_width) for lv_obj_get_width
    lv_label.o(i.lv_label_get_letter_on) refers to lv_obj.o(i.lv_obj_get_style) for lv_obj_get_style
    lv_label.o(i.lv_label_get_letter_on) refers to lv_txt.o(i.lv_txt_get_next_line) for lv_txt_get_next_line
    lv_label.o(i.lv_label_get_letter_on) refers to lv_txt.o(i.lv_txt_get_width) for lv_txt_get_width
    lv_label.o(i.lv_label_get_letter_on) refers to lv_txt.o(i.lv_txt_is_cmd) for lv_txt_is_cmd
    lv_label.o(i.lv_label_get_letter_on) refers to lv_font.o(i.lv_font_get_glyph_width) for lv_font_get_glyph_width
    lv_label.o(i.lv_label_get_letter_on) refers to lv_txt.o(.data) for lv_txt_encoded_next
    lv_label.o(i.lv_label_get_letter_on) refers to lv_txt.o(.data) for lv_encoded_get_char_id
    lv_label.o(i.lv_label_get_letter_pos) refers to lv_obj.o(i.lv_obj_get_ext_attr) for lv_obj_get_ext_attr
    lv_label.o(i.lv_label_get_letter_pos) refers to lv_obj.o(i.lv_obj_get_width) for lv_obj_get_width
    lv_label.o(i.lv_label_get_letter_pos) refers to lv_obj.o(i.lv_obj_get_style) for lv_obj_get_style
    lv_label.o(i.lv_label_get_letter_pos) refers to lv_txt.o(i.lv_txt_get_next_line) for lv_txt_get_next_line
    lv_label.o(i.lv_label_get_letter_pos) refers to lv_txt.o(i.lv_txt_get_width) for lv_txt_get_width
    lv_label.o(i.lv_label_get_letter_pos) refers to lv_txt.o(.data) for lv_txt_encoded_get_byte_id
    lv_label.o(i.lv_label_get_long_mode) refers to lv_obj.o(i.lv_obj_get_ext_attr) for lv_obj_get_ext_attr
    lv_label.o(i.lv_label_get_recolor) refers to lv_obj.o(i.lv_obj_get_ext_attr) for lv_obj_get_ext_attr
    lv_label.o(i.lv_label_get_text) refers to lv_obj.o(i.lv_obj_get_ext_attr) for lv_obj_get_ext_attr
    lv_label.o(i.lv_label_ins_text) refers to lv_obj.o(i.lv_obj_get_ext_attr) for lv_obj_get_ext_attr
    lv_label.o(i.lv_label_ins_text) refers to lv_obj.o(i.lv_obj_invalidate) for lv_obj_invalidate
    lv_label.o(i.lv_label_ins_text) refers to strlen.o(.text) for strlen
    lv_label.o(i.lv_label_ins_text) refers to lv_mem.o(i.lv_mem_realloc) for lv_mem_realloc
    lv_label.o(i.lv_label_ins_text) refers to lv_txt.o(i.lv_txt_ins) for lv_txt_ins
    lv_label.o(i.lv_label_ins_text) refers to lv_label.o(i.lv_label_refr_text) for lv_label_refr_text
    lv_label.o(i.lv_label_ins_text) refers to lv_txt.o(.data) for lv_txt_get_encoded_length
    lv_label.o(i.lv_label_is_char_under_pos) refers to lv_obj.o(i.lv_obj_get_ext_attr) for lv_obj_get_ext_attr
    lv_label.o(i.lv_label_is_char_under_pos) refers to lv_obj.o(i.lv_obj_get_width) for lv_obj_get_width
    lv_label.o(i.lv_label_is_char_under_pos) refers to lv_obj.o(i.lv_obj_get_style) for lv_obj_get_style
    lv_label.o(i.lv_label_is_char_under_pos) refers to lv_txt.o(i.lv_txt_get_next_line) for lv_txt_get_next_line
    lv_label.o(i.lv_label_is_char_under_pos) refers to lv_txt.o(i.lv_txt_get_width) for lv_txt_get_width
    lv_label.o(i.lv_label_is_char_under_pos) refers to lv_txt.o(i.lv_txt_is_cmd) for lv_txt_is_cmd
    lv_label.o(i.lv_label_is_char_under_pos) refers to lv_font.o(i.lv_font_get_glyph_width) for lv_font_get_glyph_width
    lv_label.o(i.lv_label_is_char_under_pos) refers to lv_txt.o(.data) for lv_txt_encoded_next
    lv_label.o(i.lv_label_refr_text) refers to lv_obj.o(i.lv_obj_get_ext_attr) for lv_obj_get_ext_attr
    lv_label.o(i.lv_label_refr_text) refers to lv_obj.o(i.lv_obj_get_width) for lv_obj_get_width
    lv_label.o(i.lv_label_refr_text) refers to lv_obj.o(i.lv_obj_get_style) for lv_obj_get_style
    lv_label.o(i.lv_label_refr_text) refers to lv_txt.o(i.lv_txt_get_size) for lv_txt_get_size
    lv_label.o(i.lv_label_refr_text) refers to lv_obj.o(i.lv_obj_set_size) for lv_obj_set_size
    lv_label.o(i.lv_label_refr_text) refers to lv_font.o(i.lv_font_get_glyph_width) for lv_font_get_glyph_width
    lv_label.o(i.lv_label_refr_text) refers to lv_anim.o(i.lv_anim_speed_to_time) for lv_anim_speed_to_time
    lv_label.o(i.lv_label_refr_text) refers to lv_anim.o(i.lv_anim_create) for lv_anim_create
    lv_label.o(i.lv_label_refr_text) refers to lv_anim.o(i.lv_anim_del) for lv_anim_del
    lv_label.o(i.lv_label_refr_text) refers to lv_obj.o(i.lv_obj_get_height) for lv_obj_get_height
    lv_label.o(i.lv_label_refr_text) refers to lv_label.o(i.lv_label_get_letter_on) for lv_label_get_letter_on
    lv_label.o(i.lv_label_refr_text) refers to lv_mem.o(i.lv_mem_free) for lv_mem_free
    lv_label.o(i.lv_label_refr_text) refers to lv_mem.o(i.lv_mem_alloc) for lv_mem_alloc
    lv_label.o(i.lv_label_refr_text) refers to memmovea.o(.text) for __aeabi_memcpy
    lv_label.o(i.lv_label_refr_text) refers to lv_obj.o(i.lv_obj_set_height) for lv_obj_set_height
    lv_label.o(i.lv_label_refr_text) refers to lv_obj.o(i.lv_obj_invalidate) for lv_obj_invalidate
    lv_label.o(i.lv_label_refr_text) refers to lv_anim.o(i.lv_anim_path_linear) for lv_anim_path_linear
    lv_label.o(i.lv_label_refr_text) refers to lv_label.o(i.lv_label_set_offset_x) for lv_label_set_offset_x
    lv_label.o(i.lv_label_refr_text) refers to lv_label.o(i.lv_label_set_offset_y) for lv_label_set_offset_y
    lv_label.o(i.lv_label_refr_text) refers to lv_txt.o(.data) for lv_txt_get_encoded_length
    lv_label.o(i.lv_label_refr_text) refers to lv_txt.o(.data) for lv_txt_encoded_get_byte_id
    lv_label.o(i.lv_label_revert_dots) refers to lv_obj.o(i.lv_obj_get_ext_attr) for lv_obj_get_ext_attr
    lv_label.o(i.lv_label_revert_dots) refers to lv_mem.o(i.lv_mem_free) for lv_mem_free
    lv_label.o(i.lv_label_revert_dots) refers to lv_txt.o(.data) for lv_txt_encoded_get_byte_id
    lv_label.o(i.lv_label_set_align) refers to lv_obj.o(i.lv_obj_get_ext_attr) for lv_obj_get_ext_attr
    lv_label.o(i.lv_label_set_align) refers to lv_obj.o(i.lv_obj_invalidate) for lv_obj_invalidate
    lv_label.o(i.lv_label_set_anim_speed) refers to lv_obj.o(i.lv_obj_get_ext_attr) for lv_obj_get_ext_attr
    lv_label.o(i.lv_label_set_anim_speed) refers to lv_label.o(i.lv_label_refr_text) for lv_label_refr_text
    lv_label.o(i.lv_label_set_array_text) refers to lv_obj.o(i.lv_obj_invalidate) for lv_obj_invalidate
    lv_label.o(i.lv_label_set_array_text) refers to lv_obj.o(i.lv_obj_get_ext_attr) for lv_obj_get_ext_attr
    lv_label.o(i.lv_label_set_array_text) refers to lv_label.o(i.lv_label_refr_text) for lv_label_refr_text
    lv_label.o(i.lv_label_set_array_text) refers to lv_mem.o(i.lv_mem_free) for lv_mem_free
    lv_label.o(i.lv_label_set_array_text) refers to lv_mem.o(i.lv_mem_alloc) for lv_mem_alloc
    lv_label.o(i.lv_label_set_array_text) refers to memmovea.o(.text) for __aeabi_memcpy
    lv_label.o(i.lv_label_set_body_draw) refers to lv_obj.o(i.lv_obj_get_ext_attr) for lv_obj_get_ext_attr
    lv_label.o(i.lv_label_set_body_draw) refers to lv_obj.o(i.lv_obj_refresh_ext_draw_pad) for lv_obj_refresh_ext_draw_pad
    lv_label.o(i.lv_label_set_body_draw) refers to lv_obj.o(i.lv_obj_invalidate) for lv_obj_invalidate
    lv_label.o(i.lv_label_set_long_mode) refers to lv_obj.o(i.lv_obj_get_ext_attr) for lv_obj_get_ext_attr
    lv_label.o(i.lv_label_set_long_mode) refers to lv_anim.o(i.lv_anim_del) for lv_anim_del
    lv_label.o(i.lv_label_set_long_mode) refers to lv_label.o(i.lv_label_revert_dots) for lv_label_revert_dots
    lv_label.o(i.lv_label_set_long_mode) refers to lv_label.o(i.lv_label_refr_text) for lv_label_refr_text
    lv_label.o(i.lv_label_set_long_mode) refers to lv_obj.o(i.lv_obj_set_x) for lv_obj_set_x
    lv_label.o(i.lv_label_set_long_mode) refers to lv_obj.o(i.lv_obj_set_y) for lv_obj_set_y
    lv_label.o(i.lv_label_set_long_mode) refers to lv_label.o(i.lv_label_set_offset_x) for lv_label_set_offset_x
    lv_label.o(i.lv_label_set_long_mode) refers to lv_label.o(i.lv_label_set_offset_y) for lv_label_set_offset_y
    lv_label.o(i.lv_label_set_offset_x) refers to lv_obj.o(i.lv_obj_get_ext_attr) for lv_obj_get_ext_attr
    lv_label.o(i.lv_label_set_offset_x) refers to lv_obj.o(i.lv_obj_invalidate) for lv_obj_invalidate
    lv_label.o(i.lv_label_set_offset_y) refers to lv_obj.o(i.lv_obj_get_ext_attr) for lv_obj_get_ext_attr
    lv_label.o(i.lv_label_set_offset_y) refers to lv_obj.o(i.lv_obj_invalidate) for lv_obj_invalidate
    lv_label.o(i.lv_label_set_recolor) refers to lv_obj.o(i.lv_obj_get_ext_attr) for lv_obj_get_ext_attr
    lv_label.o(i.lv_label_set_recolor) refers to lv_label.o(i.lv_label_refr_text) for lv_label_refr_text
    lv_label.o(i.lv_label_set_static_text) refers to lv_obj.o(i.lv_obj_get_ext_attr) for lv_obj_get_ext_attr
    lv_label.o(i.lv_label_set_static_text) refers to lv_mem.o(i.lv_mem_free) for lv_mem_free
    lv_label.o(i.lv_label_set_static_text) refers to lv_label.o(i.lv_label_refr_text) for lv_label_refr_text
    lv_label.o(i.lv_label_set_text) refers to lv_obj.o(i.lv_obj_invalidate) for lv_obj_invalidate
    lv_label.o(i.lv_label_set_text) refers to lv_obj.o(i.lv_obj_get_ext_attr) for lv_obj_get_ext_attr
    lv_label.o(i.lv_label_set_text) refers to strlen.o(.text) for strlen
    lv_label.o(i.lv_label_set_text) refers to lv_mem.o(i.lv_mem_realloc) for lv_mem_realloc
    lv_label.o(i.lv_label_set_text) refers to lv_mem.o(i.lv_mem_free) for lv_mem_free
    lv_label.o(i.lv_label_set_text) refers to lv_mem.o(i.lv_mem_alloc) for lv_mem_alloc
    lv_label.o(i.lv_label_set_text) refers to strcpy.o(.text) for strcpy
    lv_label.o(i.lv_label_set_text) refers to lv_label.o(i.lv_label_refr_text) for lv_label_refr_text
    lv_label.o(i.lv_label_signal) refers to lv_obj.o(i.lv_obj_get_ext_attr) for lv_obj_get_ext_attr
    lv_label.o(i.lv_label_signal) refers to lv_mem.o(i.lv_mem_free) for lv_mem_free
    lv_label.o(i.lv_label_signal) refers to lv_label.o(i.lv_label_revert_dots) for lv_label_revert_dots
    lv_label.o(i.lv_label_signal) refers to lv_label.o(i.lv_label_refr_text) for lv_label_refr_text
    lv_label.o(i.lv_label_signal) refers to lv_obj.o(i.lv_obj_get_style) for lv_obj_get_style
    lv_label.o(i.lv_label_signal) refers to lv_label.o(.data) for .data
    lv_led.o(i.lv_led_create) refers to lv_obj.o(i.lv_obj_create) for lv_obj_create
    lv_led.o(i.lv_led_create) refers to lv_obj.o(i.lv_obj_get_signal_cb) for lv_obj_get_signal_cb
    lv_led.o(i.lv_led_create) refers to lv_obj.o(i.lv_obj_get_design_cb) for lv_obj_get_design_cb
    lv_led.o(i.lv_led_create) refers to lv_obj.o(i.lv_obj_allocate_ext_attr) for lv_obj_allocate_ext_attr
    lv_led.o(i.lv_led_create) refers to lv_obj.o(i.lv_obj_set_signal_cb) for lv_obj_set_signal_cb
    lv_led.o(i.lv_led_create) refers to lv_obj.o(i.lv_obj_set_design_cb) for lv_obj_set_design_cb
    lv_led.o(i.lv_led_create) refers to lv_obj.o(i.lv_obj_get_ext_attr) for lv_obj_get_ext_attr
    lv_led.o(i.lv_led_create) refers to lv_obj.o(i.lv_obj_refresh_style) for lv_obj_refresh_style
    lv_led.o(i.lv_led_create) refers to lv_obj.o(i.lv_obj_set_size) for lv_obj_set_size
    lv_led.o(i.lv_led_create) refers to lv_theme.o(i.lv_theme_get_current) for lv_theme_get_current
    lv_led.o(i.lv_led_create) refers to lv_obj.o(i.lv_obj_set_style) for lv_obj_set_style
    lv_led.o(i.lv_led_create) refers to lv_led.o(.data) for .data
    lv_led.o(i.lv_led_create) refers to lv_led.o(i.lv_led_signal) for lv_led_signal
    lv_led.o(i.lv_led_create) refers to lv_led.o(i.lv_led_design) for lv_led_design
    lv_led.o(i.lv_led_create) refers to lv_style.o(.bss) for lv_style_pretty_color
    lv_led.o(i.lv_led_design) refers to lv_obj.o(i.lv_obj_get_ext_attr) for lv_obj_get_ext_attr
    lv_led.o(i.lv_led_design) refers to lv_obj.o(i.lv_obj_get_style) for lv_obj_get_style
    lv_led.o(i.lv_led_design) refers to lv_led.o(.data) for .data
    lv_led.o(i.lv_led_get_bright) refers to lv_obj.o(i.lv_obj_get_ext_attr) for lv_obj_get_ext_attr
    lv_led.o(i.lv_led_off) refers to lv_obj.o(i.lv_obj_get_ext_attr) for lv_obj_get_ext_attr
    lv_led.o(i.lv_led_off) refers to lv_obj.o(i.lv_obj_invalidate) for lv_obj_invalidate
    lv_led.o(i.lv_led_on) refers to lv_obj.o(i.lv_obj_get_ext_attr) for lv_obj_get_ext_attr
    lv_led.o(i.lv_led_on) refers to lv_obj.o(i.lv_obj_invalidate) for lv_obj_invalidate
    lv_led.o(i.lv_led_set_bright) refers to lv_obj.o(i.lv_obj_get_ext_attr) for lv_obj_get_ext_attr
    lv_led.o(i.lv_led_set_bright) refers to lv_obj.o(i.lv_obj_invalidate) for lv_obj_invalidate
    lv_led.o(i.lv_led_signal) refers to lv_led.o(.data) for .data
    lv_led.o(i.lv_led_toggle) refers to lv_obj.o(i.lv_obj_get_ext_attr) for lv_obj_get_ext_attr
    lv_led.o(i.lv_led_toggle) refers to lv_obj.o(i.lv_obj_invalidate) for lv_obj_invalidate
    lv_line.o(i.lv_line_create) refers to lv_obj.o(i.lv_obj_create) for lv_obj_create
    lv_line.o(i.lv_line_create) refers to lv_obj.o(i.lv_obj_get_signal_cb) for lv_obj_get_signal_cb
    lv_line.o(i.lv_line_create) refers to lv_obj.o(i.lv_obj_allocate_ext_attr) for lv_obj_allocate_ext_attr
    lv_line.o(i.lv_line_create) refers to lv_obj.o(i.lv_obj_set_design_cb) for lv_obj_set_design_cb
    lv_line.o(i.lv_line_create) refers to lv_obj.o(i.lv_obj_set_signal_cb) for lv_obj_set_signal_cb
    lv_line.o(i.lv_line_create) refers to lv_obj.o(i.lv_obj_get_ext_attr) for lv_obj_get_ext_attr
    lv_line.o(i.lv_line_create) refers to lv_line.o(i.lv_line_set_points) for lv_line_set_points
    lv_line.o(i.lv_line_create) refers to lv_obj.o(i.lv_obj_invalidate) for lv_obj_invalidate
    lv_line.o(i.lv_line_create) refers to lv_obj.o(i.lv_obj_refresh_style) for lv_obj_refresh_style
    lv_line.o(i.lv_line_create) refers to lv_obj.o(i.lv_obj_set_size) for lv_obj_set_size
    lv_line.o(i.lv_line_create) refers to lv_obj.o(i.lv_obj_set_style) for lv_obj_set_style
    lv_line.o(i.lv_line_create) refers to lv_obj.o(i.lv_obj_set_click) for lv_obj_set_click
    lv_line.o(i.lv_line_create) refers to lv_line.o(.data) for .data
    lv_line.o(i.lv_line_create) refers to lv_line.o(i.lv_line_design) for lv_line_design
    lv_line.o(i.lv_line_create) refers to lv_line.o(i.lv_line_signal) for lv_line_signal
    lv_line.o(i.lv_line_design) refers to lv_obj.o(i.lv_obj_get_ext_attr) for lv_obj_get_ext_attr
    lv_line.o(i.lv_line_design) refers to lv_obj.o(i.lv_obj_get_style) for lv_obj_get_style
    lv_line.o(i.lv_line_design) refers to lv_obj.o(i.lv_obj_get_opa_scale) for lv_obj_get_opa_scale
    lv_line.o(i.lv_line_design) refers to lv_obj.o(i.lv_obj_get_coords) for lv_obj_get_coords
    lv_line.o(i.lv_line_design) refers to lv_obj.o(i.lv_obj_get_height) for lv_obj_get_height
    lv_line.o(i.lv_line_design) refers to lv_style.o(i.lv_style_copy) for lv_style_copy
    lv_line.o(i.lv_line_design) refers to lv_draw_line.o(i.lv_draw_line) for lv_draw_line
    lv_line.o(i.lv_line_design) refers to lv_draw_rect.o(i.lv_draw_rect) for lv_draw_rect
    lv_line.o(i.lv_line_get_auto_size) refers to lv_obj.o(i.lv_obj_get_ext_attr) for lv_obj_get_ext_attr
    lv_line.o(i.lv_line_get_y_invert) refers to lv_obj.o(i.lv_obj_get_ext_attr) for lv_obj_get_ext_attr
    lv_line.o(i.lv_line_set_auto_size) refers to lv_obj.o(i.lv_obj_get_ext_attr) for lv_obj_get_ext_attr
    lv_line.o(i.lv_line_set_auto_size) refers to lv_line.o(i.lv_line_set_points) for lv_line_set_points
    lv_line.o(i.lv_line_set_points) refers to lv_obj.o(i.lv_obj_get_ext_attr) for lv_obj_get_ext_attr
    lv_line.o(i.lv_line_set_points) refers to lv_obj.o(i.lv_obj_get_style) for lv_obj_get_style
    lv_line.o(i.lv_line_set_points) refers to lv_obj.o(i.lv_obj_set_size) for lv_obj_set_size
    lv_line.o(i.lv_line_set_points) refers to lv_obj.o(i.lv_obj_invalidate) for lv_obj_invalidate
    lv_line.o(i.lv_line_set_y_invert) refers to lv_obj.o(i.lv_obj_get_ext_attr) for lv_obj_get_ext_attr
    lv_line.o(i.lv_line_set_y_invert) refers to lv_obj.o(i.lv_obj_invalidate) for lv_obj_invalidate
    lv_line.o(i.lv_line_signal) refers to lv_obj.o(i.lv_obj_get_style) for lv_obj_get_style
    lv_line.o(i.lv_line_signal) refers to lv_line.o(.data) for .data
    lv_list.o(i.lv_list_add_btn) refers to lv_obj.o(i.lv_obj_get_ext_attr) for lv_obj_get_ext_attr
    lv_list.o(i.lv_list_add_btn) refers to lv_btn.o(i.lv_btn_create) for lv_btn_create
    lv_list.o(i.lv_list_add_btn) refers to lv_obj.o(i.lv_obj_get_signal_cb) for lv_obj_get_signal_cb
    lv_list.o(i.lv_list_add_btn) refers to lv_btn.o(i.lv_btn_set_style) for lv_btn_set_style
    lv_list.o(i.lv_list_add_btn) refers to lv_page.o(i.lv_page_glue_obj) for lv_page_glue_obj
    lv_list.o(i.lv_list_add_btn) refers to lv_cont.o(i.lv_cont_set_layout) for lv_cont_set_layout
    lv_list.o(i.lv_list_add_btn) refers to lv_cont.o(i.lv_cont_set_fit4) for lv_cont_set_fit4
    lv_list.o(i.lv_list_add_btn) refers to lv_obj.o(i.lv_obj_set_protect) for lv_obj_set_protect
    lv_list.o(i.lv_list_add_btn) refers to lv_obj.o(i.lv_obj_set_signal_cb) for lv_obj_set_signal_cb
    lv_list.o(i.lv_list_add_btn) refers to lv_img.o(i.lv_img_create) for lv_img_create
    lv_list.o(i.lv_list_add_btn) refers to lv_img.o(i.lv_img_set_src) for lv_img_set_src
    lv_list.o(i.lv_list_add_btn) refers to lv_obj.o(i.lv_obj_set_style) for lv_obj_set_style
    lv_list.o(i.lv_list_add_btn) refers to lv_obj.o(i.lv_obj_set_click) for lv_obj_set_click
    lv_list.o(i.lv_list_add_btn) refers to lv_label.o(i.lv_label_create) for lv_label_create
    lv_list.o(i.lv_list_add_btn) refers to lv_label.o(i.lv_label_set_text) for lv_label_set_text
    lv_list.o(i.lv_list_add_btn) refers to lv_label.o(i.lv_label_set_long_mode) for lv_label_set_long_mode
    lv_list.o(i.lv_list_add_btn) refers to lv_obj.o(i.lv_obj_set_width) for lv_obj_set_width
    lv_list.o(i.lv_list_add_btn) refers to lv_obj.o(i.lv_obj_get_group) for lv_obj_get_group
    lv_list.o(i.lv_list_add_btn) refers to lv_group.o(i.lv_group_get_focused) for lv_group_get_focused
    lv_list.o(i.lv_list_add_btn) refers to lv_list.o(i.lv_list_set_btn_selected) for lv_list_set_btn_selected
    lv_list.o(i.lv_list_add_btn) refers to lv_list.o(.data) for .data
    lv_list.o(i.lv_list_add_btn) refers to lv_list.o(i.lv_list_btn_signal) for lv_list_btn_signal
    lv_list.o(i.lv_list_btn_signal) refers to lv_obj.o(i.lv_obj_get_parent) for lv_obj_get_parent
    lv_list.o(i.lv_list_btn_signal) refers to lv_obj.o(i.lv_obj_get_ext_attr) for lv_obj_get_ext_attr
    lv_list.o(i.lv_list_btn_signal) refers to lv_obj.o(i.lv_obj_get_group) for lv_obj_get_group
    lv_list.o(i.lv_list_btn_signal) refers to lv_group.o(i.lv_group_get_focused) for lv_group_get_focused
    lv_list.o(i.lv_list_btn_signal) refers to lv_indev.o(i.lv_indev_get_act) for lv_indev_get_act
    lv_list.o(i.lv_list_btn_signal) refers to lv_indev.o(i.lv_indev_is_dragging) for lv_indev_is_dragging
    lv_list.o(i.lv_list_btn_signal) refers to lv_list.o(i.lv_list_get_prev_btn) for lv_list_get_prev_btn
    lv_list.o(i.lv_list_btn_signal) refers to lv_btn.o(i.lv_btn_get_state) for lv_btn_get_state
    lv_list.o(i.lv_list_btn_signal) refers to lv_btn.o(i.lv_btn_set_state) for lv_btn_set_state
    lv_list.o(i.lv_list_btn_signal) refers to lv_list.o(i.lv_list_set_btn_selected) for lv_list_set_btn_selected
    lv_list.o(i.lv_list_btn_signal) refers to lv_list.o(i.lv_list_get_next_btn) for lv_list_get_next_btn
    lv_list.o(i.lv_list_btn_signal) refers to lv_list.o(.data) for .data
    lv_list.o(i.lv_list_clean) refers to lv_page.o(i.lv_page_get_scrl) for lv_page_get_scrl
    lv_list.o(i.lv_list_clean) refers to lv_obj.o(i.lv_obj_clean) for lv_obj_clean
    lv_list.o(i.lv_list_clean) refers to lv_obj.o(i.lv_obj_get_ext_attr) for lv_obj_get_ext_attr
    lv_list.o(i.lv_list_create) refers to lv_page.o(i.lv_page_create) for lv_page_create
    lv_list.o(i.lv_list_create) refers to lv_obj.o(i.lv_obj_get_signal_cb) for lv_obj_get_signal_cb
    lv_list.o(i.lv_list_create) refers to lv_obj.o(i.lv_obj_allocate_ext_attr) for lv_obj_allocate_ext_attr
    lv_list.o(i.lv_list_create) refers to lv_obj.o(i.lv_obj_set_signal_cb) for lv_obj_set_signal_cb
    lv_list.o(i.lv_list_create) refers to lv_obj.o(i.lv_obj_get_ext_attr) for lv_obj_get_ext_attr
    lv_list.o(i.lv_list_create) refers to lv_list.o(i.lv_list_get_next_btn) for lv_list_get_next_btn
    lv_list.o(i.lv_list_create) refers to lv_obj.o(i.lv_obj_get_child) for lv_obj_get_child
    lv_list.o(i.lv_list_create) refers to lv_obj.o(i.lv_obj_get_type) for lv_obj_get_type
    lv_list.o(i.lv_list_create) refers to strcmp.o(.text) for strcmp
    lv_list.o(i.lv_list_create) refers to lv_page.o(i.lv_page_set_anim_time) for lv_page_set_anim_time
    lv_list.o(i.lv_list_create) refers to lv_page.o(i.lv_page_get_scrl) for lv_page_get_scrl
    lv_list.o(i.lv_list_create) refers to lv_cont.o(i.lv_cont_set_fit4) for lv_cont_set_fit4
    lv_list.o(i.lv_list_create) refers to lv_obj.o(i.lv_obj_set_size) for lv_obj_set_size
    lv_list.o(i.lv_list_create) refers to lv_cont.o(i.lv_cont_set_layout) for lv_cont_set_layout
    lv_list.o(i.lv_list_create) refers to lv_page.o(i.lv_page_set_sb_mode) for lv_page_set_sb_mode
    lv_list.o(i.lv_list_create) refers to lv_theme.o(i.lv_theme_get_current) for lv_theme_get_current
    lv_list.o(i.lv_list_create) refers to lv_list.o(i.lv_list_set_style) for lv_list_set_style
    lv_list.o(i.lv_list_create) refers to lv_img.o(i.lv_img_get_src) for lv_img_get_src
    lv_list.o(i.lv_list_create) refers to lv_label.o(i.lv_label_get_text) for lv_label_get_text
    lv_list.o(i.lv_list_create) refers to lv_btn.o(i.lv_btn_create) for lv_btn_create
    lv_list.o(i.lv_list_create) refers to lv_btn.o(i.lv_btn_set_style) for lv_btn_set_style
    lv_list.o(i.lv_list_create) refers to lv_page.o(i.lv_page_glue_obj) for lv_page_glue_obj
    lv_list.o(i.lv_list_create) refers to lv_obj.o(i.lv_obj_set_protect) for lv_obj_set_protect
    lv_list.o(i.lv_list_create) refers to lv_img.o(i.lv_img_create) for lv_img_create
    lv_list.o(i.lv_list_create) refers to lv_img.o(i.lv_img_set_src) for lv_img_set_src
    lv_list.o(i.lv_list_create) refers to lv_obj.o(i.lv_obj_set_style) for lv_obj_set_style
    lv_list.o(i.lv_list_create) refers to lv_obj.o(i.lv_obj_set_click) for lv_obj_set_click
    lv_list.o(i.lv_list_create) refers to lv_label.o(i.lv_label_create) for lv_label_create
    lv_list.o(i.lv_list_create) refers to lv_label.o(i.lv_label_set_text) for lv_label_set_text
    lv_list.o(i.lv_list_create) refers to lv_label.o(i.lv_label_set_long_mode) for lv_label_set_long_mode
    lv_list.o(i.lv_list_create) refers to lv_obj.o(i.lv_obj_set_width) for lv_obj_set_width
    lv_list.o(i.lv_list_create) refers to lv_obj.o(i.lv_obj_get_group) for lv_obj_get_group
    lv_list.o(i.lv_list_create) refers to lv_group.o(i.lv_group_get_focused) for lv_group_get_focused
    lv_list.o(i.lv_list_create) refers to lv_list.o(i.lv_list_set_btn_selected) for lv_list_set_btn_selected
    lv_list.o(i.lv_list_create) refers to lv_obj.o(i.lv_obj_refresh_style) for lv_obj_refresh_style
    lv_list.o(i.lv_list_create) refers to lv_list.o(.data) for .data
    lv_list.o(i.lv_list_create) refers to lv_style.o(.bss) for lv_style_btn_rel
    lv_list.o(i.lv_list_create) refers to lv_list.o(i.lv_list_signal) for lv_list_signal
    lv_list.o(i.lv_list_create) refers to lv_list.o(i.lv_list_get_btn_img) for i.lv_list_get_btn_img
    lv_list.o(i.lv_list_create) refers to lv_list.o(i.lv_list_get_btn_label) for i.lv_list_get_btn_label
    lv_list.o(i.lv_list_create) refers to lv_list.o(i.lv_list_btn_signal) for lv_list_btn_signal
    lv_list.o(i.lv_list_down) refers to lv_page.o(i.lv_page_get_scrl) for lv_page_get_scrl
    lv_list.o(i.lv_list_down) refers to lv_list.o(i.lv_list_get_prev_btn) for lv_list_get_prev_btn
    lv_list.o(i.lv_list_down) refers to lv_obj.o(i.lv_obj_get_y) for lv_obj_get_y
    lv_list.o(i.lv_list_down) refers to lv_page.o(i.lv_page_get_anim_time) for lv_page_get_anim_time
    lv_list.o(i.lv_list_down) refers to lv_anim.o(i.lv_anim_create) for lv_anim_create
    lv_list.o(i.lv_list_down) refers to lv_obj.o(i.lv_obj_set_y) for lv_obj_set_y
    lv_list.o(i.lv_list_down) refers to lv_anim.o(i.lv_anim_path_linear) for lv_anim_path_linear
    lv_list.o(i.lv_list_focus) refers to lv_obj.o(i.lv_obj_get_parent) for lv_obj_get_parent
    lv_list.o(i.lv_list_focus) refers to lv_page.o(i.lv_page_get_anim_time) for lv_page_get_anim_time
    lv_list.o(i.lv_list_focus) refers to lv_page.o(i.lv_page_focus) for lv_page_focus
    lv_list.o(i.lv_list_get_btn_img) refers to lv_obj.o(i.lv_obj_get_child) for lv_obj_get_child
    lv_list.o(i.lv_list_get_btn_img) refers to lv_obj.o(i.lv_obj_get_type) for lv_obj_get_type
    lv_list.o(i.lv_list_get_btn_img) refers to strcmp.o(.text) for strcmp
    lv_list.o(i.lv_list_get_btn_index) refers to lv_obj.o(i.lv_obj_get_parent) for lv_obj_get_parent
    lv_list.o(i.lv_list_get_btn_index) refers to lv_list.o(i.lv_list_get_next_btn) for lv_list_get_next_btn
    lv_list.o(i.lv_list_get_btn_label) refers to lv_obj.o(i.lv_obj_get_child) for lv_obj_get_child
    lv_list.o(i.lv_list_get_btn_label) refers to lv_obj.o(i.lv_obj_get_type) for lv_obj_get_type
    lv_list.o(i.lv_list_get_btn_label) refers to strcmp.o(.text) for strcmp
    lv_list.o(i.lv_list_get_btn_selected) refers to lv_obj.o(i.lv_obj_get_ext_attr) for lv_obj_get_ext_attr
    lv_list.o(i.lv_list_get_btn_text) refers to lv_obj.o(i.lv_obj_get_child) for lv_obj_get_child
    lv_list.o(i.lv_list_get_btn_text) refers to lv_obj.o(i.lv_obj_get_type) for lv_obj_get_type
    lv_list.o(i.lv_list_get_btn_text) refers to strcmp.o(.text) for strcmp
    lv_list.o(i.lv_list_get_btn_text) refers to lv_label.o(i.lv_label_get_text) for lv_label_get_text
    lv_list.o(i.lv_list_get_btn_text) refers to lv_list.o(i.lv_list_get_btn_label) for i.lv_list_get_btn_label
    lv_list.o(i.lv_list_get_next_btn) refers to lv_page.o(i.lv_page_get_scrl) for lv_page_get_scrl
    lv_list.o(i.lv_list_get_next_btn) refers to lv_obj.o(i.lv_obj_get_child_back) for lv_obj_get_child_back
    lv_list.o(i.lv_list_get_next_btn) refers to lv_obj.o(i.lv_obj_get_type) for lv_obj_get_type
    lv_list.o(i.lv_list_get_next_btn) refers to strcmp.o(.text) for strcmp
    lv_list.o(i.lv_list_get_next_btn) refers to lv_list.o(i.lv_list_get_prev_btn) for i.lv_list_get_prev_btn
    lv_list.o(i.lv_list_get_prev_btn) refers to lv_page.o(i.lv_page_get_scrl) for lv_page_get_scrl
    lv_list.o(i.lv_list_get_prev_btn) refers to lv_obj.o(i.lv_obj_get_child) for lv_obj_get_child
    lv_list.o(i.lv_list_get_prev_btn) refers to lv_obj.o(i.lv_obj_get_type) for lv_obj_get_type
    lv_list.o(i.lv_list_get_prev_btn) refers to strcmp.o(.text) for strcmp
    lv_list.o(i.lv_list_get_single_mode) refers to lv_obj.o(i.lv_obj_get_ext_attr) for lv_obj_get_ext_attr
    lv_list.o(i.lv_list_get_size) refers to lv_obj.o(i.lv_obj_get_ext_attr) for lv_obj_get_ext_attr
    lv_list.o(i.lv_list_get_style) refers to lv_obj.o(i.lv_obj_get_ext_attr) for lv_obj_get_ext_attr
    lv_list.o(i.lv_list_get_style) refers to lv_page.o(i.lv_page_get_style) for lv_page_get_style
    lv_list.o(i.lv_list_remove) refers to lv_obj.o(i.lv_obj_get_ext_attr) for lv_obj_get_ext_attr
    lv_list.o(i.lv_list_remove) refers to lv_list.o(i.lv_list_get_next_btn) for lv_list_get_next_btn
    lv_list.o(i.lv_list_remove) refers to lv_obj.o(i.lv_obj_del) for lv_obj_del
    lv_list.o(i.lv_list_set_btn_selected) refers to lv_obj.o(i.lv_obj_get_ext_attr) for lv_obj_get_ext_attr
    lv_list.o(i.lv_list_set_btn_selected) refers to lv_btn.o(i.lv_btn_get_state) for lv_btn_get_state
    lv_list.o(i.lv_list_set_btn_selected) refers to lv_btn.o(i.lv_btn_set_state) for lv_btn_set_state
    lv_list.o(i.lv_list_set_btn_selected) refers to lv_page.o(i.lv_page_get_anim_time) for lv_page_get_anim_time
    lv_list.o(i.lv_list_set_btn_selected) refers to lv_page.o(i.lv_page_focus) for lv_page_focus
    lv_list.o(i.lv_list_set_single_mode) refers to lv_obj.o(i.lv_obj_get_ext_attr) for lv_obj_get_ext_attr
    lv_list.o(i.lv_list_set_style) refers to lv_obj.o(i.lv_obj_get_ext_attr) for lv_obj_get_ext_attr
    lv_list.o(i.lv_list_set_style) refers to lv_page.o(i.lv_page_set_style) for lv_page_set_style
    lv_list.o(i.lv_list_set_style) refers to lv_list.o(i.lv_list_get_prev_btn) for lv_list_get_prev_btn
    lv_list.o(i.lv_list_set_style) refers to lv_btn.o(i.lv_btn_set_style) for lv_btn_set_style
    lv_list.o(i.lv_list_signal) refers to lv_indev.o(i.lv_indev_get_act) for lv_indev_get_act
    lv_list.o(i.lv_list_signal) refers to lv_indev.o(i.lv_indev_get_type) for lv_indev_get_type
    lv_list.o(i.lv_list_signal) refers to lv_obj.o(i.lv_obj_get_group) for lv_obj_get_group
    lv_list.o(i.lv_list_signal) refers to lv_group.o(i.lv_group_get_editing) for lv_group_get_editing
    lv_list.o(i.lv_list_signal) refers to lv_list.o(i.lv_list_get_prev_btn) for lv_list_get_prev_btn
    lv_list.o(i.lv_list_signal) refers to lv_btn.o(i.lv_btn_get_state) for lv_btn_get_state
    lv_list.o(i.lv_list_signal) refers to lv_obj.o(i.lv_obj_get_ext_attr) for lv_obj_get_ext_attr
    lv_list.o(i.lv_list_signal) refers to lv_obj.o(i.lv_event_send) for lv_event_send
    lv_list.o(i.lv_list_signal) refers to lv_indev.o(i.lv_indev_is_dragging) for lv_indev_is_dragging
    lv_list.o(i.lv_list_signal) refers to lv_list.o(i.lv_list_set_btn_selected) for lv_list_set_btn_selected
    lv_list.o(i.lv_list_signal) refers to lv_list.o(i.lv_list_get_next_btn) for lv_list_get_next_btn
    lv_list.o(i.lv_list_signal) refers to lv_list.o(.data) for .data
    lv_list.o(i.lv_list_up) refers to lv_page.o(i.lv_page_get_scrl) for lv_page_get_scrl
    lv_list.o(i.lv_list_up) refers to lv_list.o(i.lv_list_get_prev_btn) for lv_list_get_prev_btn
    lv_list.o(i.lv_list_up) refers to lv_obj.o(i.lv_obj_get_height) for lv_obj_get_height
    lv_list.o(i.lv_list_up) refers to lv_obj.o(i.lv_obj_get_y) for lv_obj_get_y
    lv_list.o(i.lv_list_up) refers to lv_page.o(i.lv_page_get_anim_time) for lv_page_get_anim_time
    lv_list.o(i.lv_list_up) refers to lv_anim.o(i.lv_anim_create) for lv_anim_create
    lv_list.o(i.lv_list_up) refers to lv_obj.o(i.lv_obj_set_y) for lv_obj_set_y
    lv_list.o(i.lv_list_up) refers to lv_anim.o(i.lv_anim_path_linear) for lv_anim_path_linear
    lv_lmeter.o(i.lv_lmeter_create) refers to lv_obj.o(i.lv_obj_create) for lv_obj_create
    lv_lmeter.o(i.lv_lmeter_create) refers to lv_obj.o(i.lv_obj_get_signal_cb) for lv_obj_get_signal_cb
    lv_lmeter.o(i.lv_lmeter_create) refers to lv_obj.o(i.lv_obj_allocate_ext_attr) for lv_obj_allocate_ext_attr
    lv_lmeter.o(i.lv_lmeter_create) refers to lv_obj.o(i.lv_obj_set_signal_cb) for lv_obj_set_signal_cb
    lv_lmeter.o(i.lv_lmeter_create) refers to lv_obj.o(i.lv_obj_set_design_cb) for lv_obj_set_design_cb
    lv_lmeter.o(i.lv_lmeter_create) refers to lv_obj.o(i.lv_obj_get_ext_attr) for lv_obj_get_ext_attr
    lv_lmeter.o(i.lv_lmeter_create) refers to lv_obj.o(i.lv_obj_refresh_style) for lv_obj_refresh_style
    lv_lmeter.o(i.lv_lmeter_create) refers to lv_obj.o(i.lv_obj_set_size) for lv_obj_set_size
    lv_lmeter.o(i.lv_lmeter_create) refers to lv_theme.o(i.lv_theme_get_current) for lv_theme_get_current
    lv_lmeter.o(i.lv_lmeter_create) refers to lv_obj.o(i.lv_obj_set_style) for lv_obj_set_style
    lv_lmeter.o(i.lv_lmeter_create) refers to lv_lmeter.o(.data) for .data
    lv_lmeter.o(i.lv_lmeter_create) refers to lv_lmeter.o(i.lv_lmeter_signal) for lv_lmeter_signal
    lv_lmeter.o(i.lv_lmeter_create) refers to lv_lmeter.o(i.lv_lmeter_design) for lv_lmeter_design
    lv_lmeter.o(i.lv_lmeter_create) refers to lv_style.o(.bss) for lv_style_pretty_color
    lv_lmeter.o(i.lv_lmeter_design) refers to lv_obj.o(i.lv_obj_get_ext_attr) for lv_obj_get_ext_attr
    lv_lmeter.o(i.lv_lmeter_design) refers to lv_obj.o(i.lv_obj_get_style) for lv_obj_get_style
    lv_lmeter.o(i.lv_lmeter_design) refers to lv_obj.o(i.lv_obj_get_opa_scale) for lv_obj_get_opa_scale
    lv_lmeter.o(i.lv_lmeter_design) refers to lv_style.o(i.lv_style_copy) for lv_style_copy
    lv_lmeter.o(i.lv_lmeter_design) refers to lv_obj.o(i.lv_obj_get_group) for lv_obj_get_group
    lv_lmeter.o(i.lv_lmeter_design) refers to lv_group.o(i.lv_group_get_focused) for lv_group_get_focused
    lv_lmeter.o(i.lv_lmeter_design) refers to lv_obj.o(i.lv_obj_get_width) for lv_obj_get_width
    lv_lmeter.o(i.lv_lmeter_design) refers to lv_obj.o(i.lv_obj_get_height) for lv_obj_get_height
    lv_lmeter.o(i.lv_lmeter_design) refers to lv_math.o(i.lv_trigo_sin) for lv_trigo_sin
    lv_lmeter.o(i.lv_lmeter_design) refers to lv_draw_line.o(i.lv_draw_line) for lv_draw_line
    lv_lmeter.o(i.lv_lmeter_get_line_count) refers to lv_obj.o(i.lv_obj_get_ext_attr) for lv_obj_get_ext_attr
    lv_lmeter.o(i.lv_lmeter_get_max_value) refers to lv_obj.o(i.lv_obj_get_ext_attr) for lv_obj_get_ext_attr
    lv_lmeter.o(i.lv_lmeter_get_min_value) refers to lv_obj.o(i.lv_obj_get_ext_attr) for lv_obj_get_ext_attr
    lv_lmeter.o(i.lv_lmeter_get_scale_angle) refers to lv_obj.o(i.lv_obj_get_ext_attr) for lv_obj_get_ext_attr
    lv_lmeter.o(i.lv_lmeter_get_value) refers to lv_obj.o(i.lv_obj_get_ext_attr) for lv_obj_get_ext_attr
    lv_lmeter.o(i.lv_lmeter_set_range) refers to lv_obj.o(i.lv_obj_get_ext_attr) for lv_obj_get_ext_attr
    lv_lmeter.o(i.lv_lmeter_set_range) refers to lv_obj.o(i.lv_obj_invalidate) for lv_obj_invalidate
    lv_lmeter.o(i.lv_lmeter_set_scale) refers to lv_obj.o(i.lv_obj_get_ext_attr) for lv_obj_get_ext_attr
    lv_lmeter.o(i.lv_lmeter_set_scale) refers to lv_obj.o(i.lv_obj_invalidate) for lv_obj_invalidate
    lv_lmeter.o(i.lv_lmeter_set_value) refers to lv_obj.o(i.lv_obj_get_ext_attr) for lv_obj_get_ext_attr
    lv_lmeter.o(i.lv_lmeter_set_value) refers to lv_obj.o(i.lv_obj_invalidate) for lv_obj_invalidate
    lv_lmeter.o(i.lv_lmeter_signal) refers to lv_obj.o(i.lv_obj_refresh_ext_draw_pad) for lv_obj_refresh_ext_draw_pad
    lv_lmeter.o(i.lv_lmeter_signal) refers to lv_obj.o(i.lv_obj_get_style) for lv_obj_get_style
    lv_lmeter.o(i.lv_lmeter_signal) refers to lv_lmeter.o(.data) for .data
    lv_mbox.o(i.lv_mbox_add_btns) refers to lv_obj.o(i.lv_obj_get_ext_attr) for lv_obj_get_ext_attr
    lv_mbox.o(i.lv_mbox_add_btns) refers to lv_btnm.o(i.lv_btnm_create) for lv_btnm_create
    lv_mbox.o(i.lv_mbox_add_btns) refers to lv_theme.o(i.lv_theme_get_current) for lv_theme_get_current
    lv_mbox.o(i.lv_mbox_add_btns) refers to lv_mbox.o(i.lv_mbox_set_style) for lv_mbox_set_style
    lv_mbox.o(i.lv_mbox_add_btns) refers to lv_btnm.o(i.lv_btnm_set_style) for lv_btnm_set_style
    lv_mbox.o(i.lv_mbox_add_btns) refers to lv_btnm.o(i.lv_btnm_set_map) for lv_btnm_set_map
    lv_mbox.o(i.lv_mbox_add_btns) refers to lv_btnm.o(i.lv_btnm_set_btn_ctrl_all) for lv_btnm_set_btn_ctrl_all
    lv_mbox.o(i.lv_mbox_add_btns) refers to lv_obj.o(i.lv_obj_set_event_cb) for lv_obj_set_event_cb
    lv_mbox.o(i.lv_mbox_add_btns) refers to lv_mbox.o(i.mbox_realign) for mbox_realign
    lv_mbox.o(i.lv_mbox_add_btns) refers to lv_style.o(.bss) for lv_style_transp_fit
    lv_mbox.o(i.lv_mbox_add_btns) refers to lv_mbox.o(i.lv_mbox_btnm_event_cb) for lv_mbox_btnm_event_cb
    lv_mbox.o(i.lv_mbox_btnm_event_cb) refers to lv_obj.o(i.lv_obj_get_parent) for lv_obj_get_parent
    lv_mbox.o(i.lv_mbox_btnm_event_cb) refers to lv_obj.o(i.lv_event_get_data) for lv_event_get_data
    lv_mbox.o(i.lv_mbox_btnm_event_cb) refers to lv_obj.o(i.lv_event_send) for lv_event_send
    lv_mbox.o(i.lv_mbox_close_ready_cb) refers to lv_obj.o(i.lv_obj_del) for lv_obj_del
    lv_mbox.o(i.lv_mbox_create) refers to lv_cont.o(i.lv_cont_create) for lv_cont_create
    lv_mbox.o(i.lv_mbox_create) refers to lv_obj.o(i.lv_obj_get_signal_cb) for lv_obj_get_signal_cb
    lv_mbox.o(i.lv_mbox_create) refers to lv_obj.o(i.lv_obj_allocate_ext_attr) for lv_obj_allocate_ext_attr
    lv_mbox.o(i.lv_mbox_create) refers to lv_obj.o(i.lv_obj_set_signal_cb) for lv_obj_set_signal_cb
    lv_mbox.o(i.lv_mbox_create) refers to lv_obj.o(i.lv_obj_get_ext_attr) for lv_obj_get_ext_attr
    lv_mbox.o(i.lv_mbox_create) refers to lv_label.o(i.lv_label_create) for lv_label_create
    lv_mbox.o(i.lv_mbox_create) refers to lv_btnm.o(i.lv_btnm_create) for lv_btnm_create
    lv_mbox.o(i.lv_mbox_create) refers to lv_obj.o(i.lv_obj_refresh_style) for lv_obj_refresh_style
    lv_mbox.o(i.lv_mbox_create) refers to lv_label.o(i.lv_label_set_align) for lv_label_set_align
    lv_mbox.o(i.lv_mbox_create) refers to lv_label.o(i.lv_label_set_long_mode) for lv_label_set_long_mode
    lv_mbox.o(i.lv_mbox_create) refers to lv_label.o(i.lv_label_set_text) for lv_label_set_text
    lv_mbox.o(i.lv_mbox_create) refers to lv_cont.o(i.lv_cont_set_layout) for lv_cont_set_layout
    lv_mbox.o(i.lv_mbox_create) refers to lv_cont.o(i.lv_cont_set_fit4) for lv_cont_set_fit4
    lv_mbox.o(i.lv_mbox_create) refers to lv_obj.o(i.lv_obj_set_width) for lv_obj_set_width
    lv_mbox.o(i.lv_mbox_create) refers to lv_obj.o(i.lv_obj_align) for lv_obj_align
    lv_mbox.o(i.lv_mbox_create) refers to lv_obj.o(i.lv_obj_set_event_cb) for lv_obj_set_event_cb
    lv_mbox.o(i.lv_mbox_create) refers to lv_theme.o(i.lv_theme_get_current) for lv_theme_get_current
    lv_mbox.o(i.lv_mbox_create) refers to lv_mbox.o(i.lv_mbox_set_style) for lv_mbox_set_style
    lv_mbox.o(i.lv_mbox_create) refers to lv_mbox.o(.data) for .data
    lv_mbox.o(i.lv_mbox_create) refers to lv_mbox.o(i.lv_mbox_signal) for lv_mbox_signal
    lv_mbox.o(i.lv_mbox_create) refers to lv_mbox.o(i.lv_mbox_default_event_cb) for lv_mbox_default_event_cb
    lv_mbox.o(i.lv_mbox_create) refers to lv_style.o(.bss) for lv_style_pretty
    lv_mbox.o(i.lv_mbox_default_event_cb) refers to lv_obj.o(i.lv_obj_get_ext_attr) for lv_obj_get_ext_attr
    lv_mbox.o(i.lv_mbox_default_event_cb) refers to lv_btnm.o(i.lv_btnm_get_active_btn) for lv_btnm_get_active_btn
    lv_mbox.o(i.lv_mbox_default_event_cb) refers to lv_mbox.o(i.lv_mbox_start_auto_close) for lv_mbox_start_auto_close
    lv_mbox.o(i.lv_mbox_get_active_btn) refers to lv_obj.o(i.lv_obj_get_ext_attr) for lv_obj_get_ext_attr
    lv_mbox.o(i.lv_mbox_get_active_btn) refers to lv_btnm.o(i.lv_btnm_get_active_btn) for lv_btnm_get_active_btn
    lv_mbox.o(i.lv_mbox_get_active_btn_text) refers to lv_obj.o(i.lv_obj_get_ext_attr) for lv_obj_get_ext_attr
    lv_mbox.o(i.lv_mbox_get_active_btn_text) refers to lv_btnm.o(i.lv_btnm_get_active_btn_text) for lv_btnm_get_active_btn_text
    lv_mbox.o(i.lv_mbox_get_anim_time) refers to lv_obj.o(i.lv_obj_get_ext_attr) for lv_obj_get_ext_attr
    lv_mbox.o(i.lv_mbox_get_btnm) refers to lv_obj.o(i.lv_obj_get_ext_attr) for lv_obj_get_ext_attr
    lv_mbox.o(i.lv_mbox_get_recolor) refers to lv_obj.o(i.lv_obj_get_ext_attr) for lv_obj_get_ext_attr
    lv_mbox.o(i.lv_mbox_get_recolor) refers to lv_btnm.o(i.lv_btnm_get_recolor) for lv_btnm_get_recolor
    lv_mbox.o(i.lv_mbox_get_style) refers to lv_obj.o(i.lv_obj_get_ext_attr) for lv_obj_get_ext_attr
    lv_mbox.o(i.lv_mbox_get_style) refers to lv_obj.o(i.lv_obj_get_style) for lv_obj_get_style
    lv_mbox.o(i.lv_mbox_get_style) refers to lv_btnm.o(i.lv_btnm_get_style) for lv_btnm_get_style
    lv_mbox.o(i.lv_mbox_get_text) refers to lv_obj.o(i.lv_obj_get_ext_attr) for lv_obj_get_ext_attr
    lv_mbox.o(i.lv_mbox_get_text) refers to lv_label.o(i.lv_label_get_text) for lv_label_get_text
    lv_mbox.o(i.lv_mbox_set_anim_time) refers to lv_obj.o(i.lv_obj_get_ext_attr) for lv_obj_get_ext_attr
    lv_mbox.o(i.lv_mbox_set_recolor) refers to lv_obj.o(i.lv_obj_get_ext_attr) for lv_obj_get_ext_attr
    lv_mbox.o(i.lv_mbox_set_recolor) refers to lv_btnm.o(i.lv_btnm_set_recolor) for lv_btnm_set_recolor
    lv_mbox.o(i.lv_mbox_set_style) refers to lv_obj.o(i.lv_obj_get_ext_attr) for lv_obj_get_ext_attr
    lv_mbox.o(i.lv_mbox_set_style) refers to lv_obj.o(i.lv_obj_set_style) for lv_obj_set_style
    lv_mbox.o(i.lv_mbox_set_style) refers to lv_btnm.o(i.lv_btnm_set_style) for lv_btnm_set_style
    lv_mbox.o(i.lv_mbox_set_style) refers to lv_mbox.o(i.mbox_realign) for mbox_realign
    lv_mbox.o(i.lv_mbox_set_text) refers to lv_obj.o(i.lv_obj_get_ext_attr) for lv_obj_get_ext_attr
    lv_mbox.o(i.lv_mbox_set_text) refers to lv_label.o(i.lv_label_set_text) for lv_label_set_text
    lv_mbox.o(i.lv_mbox_set_text) refers to lv_mbox.o(i.mbox_realign) for mbox_realign
    lv_mbox.o(i.lv_mbox_signal) refers to lv_obj.o(i.lv_obj_get_ext_attr) for lv_obj_get_ext_attr
    lv_mbox.o(i.lv_mbox_signal) refers to lv_obj.o(i.lv_obj_get_width) for lv_obj_get_width
    lv_mbox.o(i.lv_mbox_signal) refers to lv_mbox.o(i.mbox_realign) for mbox_realign
    lv_mbox.o(i.lv_mbox_signal) refers to lv_btnm.o(i.lv_btnm_get_active_btn) for lv_btnm_get_active_btn
    lv_mbox.o(i.lv_mbox_signal) refers to lv_obj.o(i.lv_event_send) for lv_event_send
    lv_mbox.o(i.lv_mbox_signal) refers to lv_indev.o(i.lv_indev_get_act) for lv_indev_get_act
    lv_mbox.o(i.lv_mbox_signal) refers to lv_indev.o(i.lv_indev_get_type) for lv_indev_get_type
    lv_mbox.o(i.lv_mbox_signal) refers to lv_obj.o(i.lv_obj_get_group) for lv_obj_get_group
    lv_mbox.o(i.lv_mbox_signal) refers to lv_group.o(i.lv_group_get_editing) for lv_group_get_editing
    lv_mbox.o(i.lv_mbox_signal) refers to lv_mbox.o(.data) for .data
    lv_mbox.o(i.lv_mbox_start_auto_close) refers to lv_obj.o(i.lv_obj_get_ext_attr) for lv_obj_get_ext_attr
    lv_mbox.o(i.lv_mbox_start_auto_close) refers to lv_obj.o(i.lv_obj_get_height) for lv_obj_get_height
    lv_mbox.o(i.lv_mbox_start_auto_close) refers to lv_anim.o(i.lv_anim_create) for lv_anim_create
    lv_mbox.o(i.lv_mbox_start_auto_close) refers to lv_obj.o(i.lv_obj_get_width) for lv_obj_get_width
    lv_mbox.o(i.lv_mbox_start_auto_close) refers to lv_cont.o(i.lv_cont_set_fit4) for lv_cont_set_fit4
    lv_mbox.o(i.lv_mbox_start_auto_close) refers to lv_anim.o(i.lv_anim_path_linear) for lv_anim_path_linear
    lv_mbox.o(i.lv_mbox_start_auto_close) refers to lv_mbox.o(i.lv_mbox_close_ready_cb) for lv_mbox_close_ready_cb
    lv_mbox.o(i.lv_mbox_start_auto_close) refers to lv_obj.o(i.lv_obj_set_height) for lv_obj_set_height
    lv_mbox.o(i.lv_mbox_start_auto_close) refers to lv_obj.o(i.lv_obj_set_width) for lv_obj_set_width
    lv_mbox.o(i.lv_mbox_stop_auto_close) refers to lv_anim.o(i.lv_anim_del) for lv_anim_del
    lv_mbox.o(i.mbox_realign) refers to lv_obj.o(i.lv_obj_get_ext_attr) for lv_obj_get_ext_attr
    lv_mbox.o(i.mbox_realign) refers to lv_mbox.o(i.lv_mbox_get_style) for lv_mbox_get_style
    lv_mbox.o(i.mbox_realign) refers to lv_obj.o(i.lv_obj_get_width) for lv_obj_get_width
    lv_mbox.o(i.mbox_realign) refers to lv_obj.o(i.lv_obj_set_width) for lv_obj_set_width
    lv_mbox.o(i.mbox_realign) refers to lv_obj.o(i.lv_obj_set_size) for lv_obj_set_size
    lv_page.o(i.edge_flash_anim) refers to lv_obj.o(i.lv_obj_get_ext_attr) for lv_obj_get_ext_attr
    lv_page.o(i.edge_flash_anim) refers to lv_obj.o(i.lv_obj_invalidate) for lv_obj_invalidate
    lv_page.o(i.edge_flash_anim_end) refers to lv_obj.o(i.lv_obj_get_ext_attr) for lv_obj_get_ext_attr
    lv_page.o(i.edge_flash_anim_end) refers to lv_obj.o(i.lv_obj_invalidate) for lv_obj_invalidate
    lv_page.o(i.lv_page_clean) refers to lv_obj.o(i.lv_obj_get_ext_attr) for lv_obj_get_ext_attr
    lv_page.o(i.lv_page_clean) refers to lv_obj.o(i.lv_obj_clean) for lv_obj_clean
    lv_page.o(i.lv_page_create) refers to lv_cont.o(i.lv_cont_create) for lv_cont_create
    lv_page.o(i.lv_page_create) refers to lv_obj.o(i.lv_obj_get_signal_cb) for lv_obj_get_signal_cb
    lv_page.o(i.lv_page_create) refers to lv_obj.o(i.lv_obj_get_design_cb) for lv_obj_get_design_cb
    lv_page.o(i.lv_page_create) refers to lv_obj.o(i.lv_obj_allocate_ext_attr) for lv_obj_allocate_ext_attr
    lv_page.o(i.lv_page_create) refers to lv_obj.o(i.lv_obj_get_ext_attr) for lv_obj_get_ext_attr
    lv_page.o(i.lv_page_create) refers to lv_obj.o(i.lv_obj_set_signal_cb) for lv_obj_set_signal_cb
    lv_page.o(i.lv_page_create) refers to lv_page.o(i.lv_page_sb_refresh) for lv_page_sb_refresh
    lv_page.o(i.lv_page_create) refers to lv_obj.o(i.lv_obj_invalidate) for lv_obj_invalidate
    lv_page.o(i.lv_page_create) refers to lv_page.o(i.lv_page_get_style) for lv_page_get_style
    lv_page.o(i.lv_page_create) refers to lv_page.o(i.lv_page_set_style) for lv_page_set_style
    lv_page.o(i.lv_page_create) refers to lv_obj.o(i.lv_obj_set_design_cb) for lv_obj_set_design_cb
    lv_page.o(i.lv_page_create) refers to lv_obj.o(i.lv_obj_refresh_style) for lv_obj_refresh_style
    lv_page.o(i.lv_page_create) refers to lv_obj.o(i.lv_obj_set_drag) for lv_obj_set_drag
    lv_page.o(i.lv_page_create) refers to lv_obj.o(i.lv_obj_set_drag_throw) for lv_obj_set_drag_throw
    lv_page.o(i.lv_page_create) refers to lv_obj.o(i.lv_obj_set_protect) for lv_obj_set_protect
    lv_page.o(i.lv_page_create) refers to lv_cont.o(i.lv_cont_set_fit4) for lv_cont_set_fit4
    lv_page.o(i.lv_page_create) refers to lv_obj.o(i.lv_obj_set_event_cb) for lv_obj_set_event_cb
    lv_page.o(i.lv_page_create) refers to lv_theme.o(i.lv_theme_get_current) for lv_theme_get_current
    lv_page.o(i.lv_page_create) refers to lv_page.o(.data) for .data
    lv_page.o(i.lv_page_create) refers to lv_style.o(.bss) for lv_style_pretty
    lv_page.o(i.lv_page_create) refers to lv_page.o(i.lv_page_scrollable_signal) for lv_page_scrollable_signal
    lv_page.o(i.lv_page_create) refers to lv_page.o(i.lv_page_signal) for lv_page_signal
    lv_page.o(i.lv_page_create) refers to lv_page.o(i.lv_page_design) for lv_page_design
    lv_page.o(i.lv_page_create) refers to lv_page.o(i.lv_scrl_design) for lv_scrl_design
    lv_page.o(i.lv_page_create) refers to lv_page.o(i.scrl_def_event_cb) for scrl_def_event_cb
    lv_page.o(i.lv_page_design) refers to lv_page.o(i.lv_page_get_style) for lv_page_get_style
    lv_page.o(i.lv_page_design) refers to lv_style.o(i.lv_style_copy) for lv_style_copy
    lv_page.o(i.lv_page_design) refers to lv_obj.o(i.lv_obj_get_opa_scale) for lv_obj_get_opa_scale
    lv_page.o(i.lv_page_design) refers to lv_draw_rect.o(i.lv_draw_rect) for lv_draw_rect
    lv_page.o(i.lv_page_design) refers to lv_obj.o(i.lv_obj_get_ext_attr) for lv_obj_get_ext_attr
    lv_page.o(i.lv_page_design) refers to lv_obj.o(i.lv_obj_get_width) for lv_obj_get_width
    lv_page.o(i.lv_page_design) refers to lv_obj.o(i.lv_obj_get_height) for lv_obj_get_height
    lv_page.o(i.lv_page_design) refers to lv_page.o(.data) for .data
    lv_page.o(i.lv_page_focus) refers to lv_obj.o(i.lv_obj_get_ext_attr) for lv_obj_get_ext_attr
    lv_page.o(i.lv_page_focus) refers to lv_anim.o(i.lv_anim_del) for lv_anim_del
    lv_page.o(i.lv_page_focus) refers to lv_page.o(i.lv_page_get_style) for lv_page_get_style
    lv_page.o(i.lv_page_focus) refers to lv_obj.o(i.lv_obj_get_height) for lv_obj_get_height
    lv_page.o(i.lv_page_focus) refers to lv_obj.o(i.lv_obj_get_y) for lv_obj_get_y
    lv_page.o(i.lv_page_focus) refers to lv_obj.o(i.lv_obj_get_width) for lv_obj_get_width
    lv_page.o(i.lv_page_focus) refers to lv_obj.o(i.lv_obj_get_x) for lv_obj_get_x
    lv_page.o(i.lv_page_focus) refers to lv_anim.o(i.lv_anim_create) for lv_anim_create
    lv_page.o(i.lv_page_focus) refers to lv_obj.o(i.lv_obj_set_y) for lv_obj_set_y
    lv_page.o(i.lv_page_focus) refers to lv_obj.o(i.lv_obj_set_x) for lv_obj_set_x
    lv_page.o(i.lv_page_focus) refers to lv_anim.o(i.lv_anim_path_linear) for lv_anim_path_linear
    lv_page.o(i.lv_page_get_anim_time) refers to lv_obj.o(i.lv_obj_get_ext_attr) for lv_obj_get_ext_attr
    lv_page.o(i.lv_page_get_edge_flash) refers to lv_obj.o(i.lv_obj_get_ext_attr) for lv_obj_get_ext_attr
    lv_page.o(i.lv_page_get_fit_height) refers to lv_page.o(i.lv_page_get_style) for lv_page_get_style
    lv_page.o(i.lv_page_get_fit_height) refers to lv_obj.o(i.lv_obj_get_height) for lv_obj_get_height
    lv_page.o(i.lv_page_get_fit_width) refers to lv_page.o(i.lv_page_get_style) for lv_page_get_style
    lv_page.o(i.lv_page_get_fit_width) refers to lv_obj.o(i.lv_obj_get_width) for lv_obj_get_width
    lv_page.o(i.lv_page_get_sb_mode) refers to lv_obj.o(i.lv_obj_get_ext_attr) for lv_obj_get_ext_attr
    lv_page.o(i.lv_page_get_scrl) refers to lv_obj.o(i.lv_obj_get_ext_attr) for lv_obj_get_ext_attr
    lv_page.o(i.lv_page_get_scroll_propagation) refers to lv_obj.o(i.lv_obj_get_ext_attr) for lv_obj_get_ext_attr
    lv_page.o(i.lv_page_get_style) refers to lv_obj.o(i.lv_obj_get_ext_attr) for lv_obj_get_ext_attr
    lv_page.o(i.lv_page_get_style) refers to lv_obj.o(i.lv_obj_get_style) for lv_obj_get_style
    lv_page.o(i.lv_page_glue_obj) refers to lv_obj.o(i.lv_obj_set_drag_parent) for lv_obj_set_drag_parent
    lv_page.o(i.lv_page_glue_obj) refers to lv_obj.o(i.lv_obj_set_drag) for lv_obj_set_drag
    lv_page.o(i.lv_page_on_edge) refers to lv_obj.o(i.lv_obj_get_style) for lv_obj_get_style
    lv_page.o(i.lv_page_on_edge) refers to lv_obj.o(i.lv_obj_get_ext_attr) for lv_obj_get_ext_attr
    lv_page.o(i.lv_page_on_edge) refers to lv_obj.o(i.lv_obj_get_coords) for lv_obj_get_coords
    lv_page.o(i.lv_page_sb_refresh) refers to lv_obj.o(i.lv_obj_get_ext_attr) for lv_obj_get_ext_attr
    lv_page.o(i.lv_page_sb_refresh) refers to lv_obj.o(i.lv_obj_get_style) for lv_obj_get_style
    lv_page.o(i.lv_page_sb_refresh) refers to lv_obj.o(i.lv_obj_get_width) for lv_obj_get_width
    lv_page.o(i.lv_page_sb_refresh) refers to lv_obj.o(i.lv_obj_get_height) for lv_obj_get_height
    lv_page.o(i.lv_page_sb_refresh) refers to lv_obj.o(i.lv_obj_get_disp) for lv_obj_get_disp
    lv_page.o(i.lv_page_sb_refresh) refers to lv_refr.o(i.lv_inv_area) for lv_inv_area
    lv_page.o(i.lv_page_sb_refresh) refers to lv_indev.o(i.lv_indev_get_act) for lv_indev_get_act
    lv_page.o(i.lv_page_sb_refresh) refers to lv_indev.o(i.lv_indev_is_dragging) for lv_indev_is_dragging
    lv_page.o(i.lv_page_sb_refresh) refers to lv_area.o(i.lv_area_set_width) for lv_area_set_width
    lv_page.o(i.lv_page_sb_refresh) refers to lv_area.o(i.lv_area_set_pos) for lv_area_set_pos
    lv_page.o(i.lv_page_sb_refresh) refers to lv_obj.o(i.lv_obj_get_x) for lv_obj_get_x
    lv_page.o(i.lv_page_sb_refresh) refers to lv_area.o(i.lv_area_set_height) for lv_area_set_height
    lv_page.o(i.lv_page_sb_refresh) refers to lv_obj.o(i.lv_obj_get_y) for lv_obj_get_y
    lv_page.o(i.lv_page_scroll_hor) refers to lv_obj.o(i.lv_obj_get_ext_attr) for lv_obj_get_ext_attr
    lv_page.o(i.lv_page_scroll_hor) refers to lv_obj.o(i.lv_obj_get_x) for lv_obj_get_x
    lv_page.o(i.lv_page_scroll_hor) refers to lv_anim.o(i.lv_anim_create) for lv_anim_create
    lv_page.o(i.lv_page_scroll_hor) refers to lv_obj.o(i.lv_obj_set_x) for lv_obj_set_x
    lv_page.o(i.lv_page_scroll_hor) refers to lv_anim.o(i.lv_anim_path_linear) for lv_anim_path_linear
    lv_page.o(i.lv_page_scroll_ver) refers to lv_obj.o(i.lv_obj_get_ext_attr) for lv_obj_get_ext_attr
    lv_page.o(i.lv_page_scroll_ver) refers to lv_obj.o(i.lv_obj_get_y) for lv_obj_get_y
    lv_page.o(i.lv_page_scroll_ver) refers to lv_anim.o(i.lv_anim_create) for lv_anim_create
    lv_page.o(i.lv_page_scroll_ver) refers to lv_obj.o(i.lv_obj_set_y) for lv_obj_set_y
    lv_page.o(i.lv_page_scroll_ver) refers to lv_anim.o(i.lv_anim_path_linear) for lv_anim_path_linear
    lv_page.o(i.lv_page_scrollable_signal) refers to lv_obj.o(i.lv_obj_get_parent) for lv_obj_get_parent
    lv_page.o(i.lv_page_scrollable_signal) refers to lv_obj.o(i.lv_obj_get_style) for lv_obj_get_style
    lv_page.o(i.lv_page_scrollable_signal) refers to lv_obj.o(i.lv_obj_get_ext_attr) for lv_obj_get_ext_attr
    lv_page.o(i.lv_page_scrollable_signal) refers to lv_obj.o(i.lv_obj_get_x) for lv_obj_get_x
    lv_page.o(i.lv_page_scrollable_signal) refers to lv_obj.o(i.lv_obj_get_y) for lv_obj_get_y
    lv_page.o(i.lv_page_scrollable_signal) refers to lv_obj.o(i.lv_obj_get_coords) for lv_obj_get_coords
    lv_page.o(i.lv_page_scrollable_signal) refers to lv_indev.o(i.lv_indev_get_act) for lv_indev_get_act
    lv_page.o(i.lv_page_scrollable_signal) refers to lv_indev.o(i.lv_indev_get_vect) for lv_indev_get_vect
    lv_page.o(i.lv_page_scrollable_signal) refers to lv_indev.o(i.lv_indev_is_dragging) for lv_indev_is_dragging
    lv_page.o(i.lv_page_scrollable_signal) refers to lv_page.o(i.lv_page_start_edge_flash) for lv_page_start_edge_flash
    lv_page.o(i.lv_page_scrollable_signal) refers to lv_obj.o(i.lv_obj_set_pos) for lv_obj_set_pos
    lv_page.o(i.lv_page_scrollable_signal) refers to lv_obj.o(i.lv_obj_set_y) for lv_obj_set_y
    lv_page.o(i.lv_page_scrollable_signal) refers to lv_obj.o(i.lv_obj_set_x) for lv_obj_set_x
    lv_page.o(i.lv_page_scrollable_signal) refers to lv_page.o(i.lv_page_sb_refresh) for lv_page_sb_refresh
    lv_page.o(i.lv_page_scrollable_signal) refers to lv_obj.o(i.lv_obj_get_disp) for lv_obj_get_disp
    lv_page.o(i.lv_page_scrollable_signal) refers to lv_refr.o(i.lv_inv_area) for lv_inv_area
    lv_page.o(i.lv_page_scrollable_signal) refers to lv_page.o(.data) for .data
    lv_page.o(i.lv_page_set_anim_time) refers to lv_obj.o(i.lv_obj_get_ext_attr) for lv_obj_get_ext_attr
    lv_page.o(i.lv_page_set_edge_flash) refers to lv_obj.o(i.lv_obj_get_ext_attr) for lv_obj_get_ext_attr
    lv_page.o(i.lv_page_set_sb_mode) refers to lv_obj.o(i.lv_obj_get_ext_attr) for lv_obj_get_ext_attr
    lv_page.o(i.lv_page_set_sb_mode) refers to lv_page.o(i.lv_page_sb_refresh) for lv_page_sb_refresh
    lv_page.o(i.lv_page_set_sb_mode) refers to lv_obj.o(i.lv_obj_invalidate) for lv_obj_invalidate
    lv_page.o(i.lv_page_set_scroll_propagation) refers to lv_obj.o(i.lv_obj_get_ext_attr) for lv_obj_get_ext_attr
    lv_page.o(i.lv_page_set_style) refers to lv_obj.o(i.lv_obj_get_ext_attr) for lv_obj_get_ext_attr
    lv_page.o(i.lv_page_set_style) refers to lv_obj.o(i.lv_obj_set_style) for lv_obj_set_style
    lv_page.o(i.lv_page_set_style) refers to lv_area.o(i.lv_area_set_height) for lv_area_set_height
    lv_page.o(i.lv_page_set_style) refers to lv_area.o(i.lv_area_set_width) for lv_area_set_width
    lv_page.o(i.lv_page_set_style) refers to lv_page.o(i.lv_page_sb_refresh) for lv_page_sb_refresh
    lv_page.o(i.lv_page_set_style) refers to lv_obj.o(i.lv_obj_refresh_ext_draw_pad) for lv_obj_refresh_ext_draw_pad
    lv_page.o(i.lv_page_set_style) refers to lv_obj.o(i.lv_obj_invalidate) for lv_obj_invalidate
    lv_page.o(i.lv_page_signal) refers to lv_obj.o(i.lv_obj_get_ext_attr) for lv_obj_get_ext_attr
    lv_page.o(i.lv_page_signal) refers to lv_page.o(i.lv_page_get_style) for lv_page_get_style
    lv_page.o(i.lv_page_signal) refers to lv_cont.o(i.lv_cont_get_fit_left) for lv_cont_get_fit_left
    lv_page.o(i.lv_page_signal) refers to lv_cont.o(i.lv_cont_get_fit_top) for lv_cont_get_fit_top
    lv_page.o(i.lv_page_signal) refers to lv_obj.o(i.lv_obj_get_child) for lv_obj_get_child
    lv_page.o(i.lv_page_signal) refers to lv_obj.o(i.lv_obj_is_protected) for lv_obj_is_protected
    lv_page.o(i.lv_page_signal) refers to lv_obj.o(i.lv_obj_set_parent) for lv_obj_set_parent
    lv_page.o(i.lv_page_signal) refers to lv_page.o(i.lv_page_sb_refresh) for lv_page_sb_refresh
    lv_page.o(i.lv_page_signal) refers to lv_obj.o(i.lv_obj_refresh_ext_draw_pad) for lv_obj_refresh_ext_draw_pad
    lv_page.o(i.lv_page_signal) refers to lv_obj.o(i.lv_obj_get_width) for lv_obj_get_width
    lv_page.o(i.lv_page_signal) refers to lv_obj.o(i.lv_obj_get_height) for lv_obj_get_height
    lv_page.o(i.lv_page_signal) refers to lv_page.o(i.lv_page_scroll_ver) for lv_page_scroll_ver
    lv_page.o(i.lv_page_signal) refers to lv_obj.o(i.lv_obj_get_x) for lv_obj_get_x
    lv_page.o(i.lv_page_signal) refers to lv_anim.o(i.lv_anim_create) for lv_anim_create
    lv_page.o(i.lv_page_signal) refers to lv_page.o(.data) for .data
    lv_page.o(i.lv_page_signal) refers to lv_obj.o(i.lv_obj_set_x) for lv_obj_set_x
    lv_page.o(i.lv_page_signal) refers to lv_anim.o(i.lv_anim_path_linear) for lv_anim_path_linear
    lv_page.o(i.lv_page_start_edge_flash) refers to lv_obj.o(i.lv_obj_get_ext_attr) for lv_obj_get_ext_attr
    lv_page.o(i.lv_page_start_edge_flash) refers to lv_anim.o(i.lv_anim_create) for lv_anim_create
    lv_page.o(i.lv_page_start_edge_flash) refers to lv_page.o(i.edge_flash_anim) for edge_flash_anim
    lv_page.o(i.lv_page_start_edge_flash) refers to lv_anim.o(i.lv_anim_path_linear) for lv_anim_path_linear
    lv_page.o(i.lv_page_start_edge_flash) refers to lv_page.o(i.edge_flash_anim_end) for edge_flash_anim_end
    lv_page.o(i.lv_scrl_design) refers to lv_obj.o(i.lv_obj_get_style) for lv_obj_get_style
    lv_page.o(i.lv_scrl_design) refers to lv_obj.o(i.lv_obj_get_parent) for lv_obj_get_parent
    lv_page.o(i.lv_scrl_design) refers to lv_obj.o(i.lv_obj_get_group) for lv_obj_get_group
    lv_page.o(i.lv_scrl_design) refers to lv_group.o(i.lv_group_get_focused) for lv_group_get_focused
    lv_page.o(i.lv_scrl_design) refers to lv_group.o(i.lv_group_mod_style) for lv_group_mod_style
    lv_page.o(i.lv_scrl_design) refers to lv_page.o(.data) for .data
    lv_page.o(i.scrl_def_event_cb) refers to lv_obj.o(i.lv_obj_get_parent) for lv_obj_get_parent
    lv_page.o(i.scrl_def_event_cb) refers to lv_obj.o(i.lv_event_get_data) for lv_event_get_data
    lv_page.o(i.scrl_def_event_cb) refers to lv_obj.o(i.lv_event_send) for lv_event_send
    lv_preload.o(i.lv_preload_create) refers to lv_arc.o(i.lv_arc_create) for lv_arc_create
    lv_preload.o(i.lv_preload_create) refers to lv_obj.o(i.lv_obj_allocate_ext_attr) for lv_obj_allocate_ext_attr
    lv_preload.o(i.lv_preload_create) refers to lv_obj.o(i.lv_obj_get_signal_cb) for lv_obj_get_signal_cb
    lv_preload.o(i.lv_preload_create) refers to lv_obj.o(i.lv_obj_get_design_cb) for lv_obj_get_design_cb
    lv_preload.o(i.lv_preload_create) refers to lv_obj.o(i.lv_obj_set_signal_cb) for lv_obj_set_signal_cb
    lv_preload.o(i.lv_preload_create) refers to lv_obj.o(i.lv_obj_set_design_cb) for lv_obj_set_design_cb
    lv_preload.o(i.lv_preload_create) refers to lv_obj.o(i.lv_obj_get_ext_attr) for lv_obj_get_ext_attr
    lv_preload.o(i.lv_preload_create) refers to lv_obj.o(i.lv_obj_refresh_style) for lv_obj_refresh_style
    lv_preload.o(i.lv_preload_create) refers to lv_preload.o(i.lv_preload_set_type) for lv_preload_set_type
    lv_preload.o(i.lv_preload_create) refers to lv_obj.o(i.lv_obj_set_size) for lv_obj_set_size
    lv_preload.o(i.lv_preload_create) refers to lv_theme.o(i.lv_theme_get_current) for lv_theme_get_current
    lv_preload.o(i.lv_preload_create) refers to lv_arc.o(i.lv_arc_set_style) for lv_arc_set_style
    lv_preload.o(i.lv_preload_create) refers to lv_obj.o(i.lv_obj_set_style) for lv_obj_set_style
    lv_preload.o(i.lv_preload_create) refers to lv_preload.o(.data) for .data
    lv_preload.o(i.lv_preload_create) refers to lv_preload.o(i.lv_preload_signal) for lv_preload_signal
    lv_preload.o(i.lv_preload_create) refers to lv_preload.o(i.lv_preload_design) for lv_preload_design
    lv_preload.o(i.lv_preload_create) refers to lv_style.o(.bss) for lv_style_pretty_color
    lv_preload.o(i.lv_preload_design) refers to lv_arc.o(i.lv_arc_get_style) for lv_arc_get_style
    lv_preload.o(i.lv_preload_design) refers to lv_obj.o(i.lv_obj_get_width) for lv_obj_get_width
    lv_preload.o(i.lv_preload_design) refers to lv_obj.o(i.lv_obj_get_height) for lv_obj_get_height
    lv_preload.o(i.lv_preload_design) refers to lv_style.o(i.lv_style_copy) for lv_style_copy
    lv_preload.o(i.lv_preload_design) refers to lv_obj.o(i.lv_obj_get_opa_scale) for lv_obj_get_opa_scale
    lv_preload.o(i.lv_preload_design) refers to lv_draw_rect.o(i.lv_draw_rect) for lv_draw_rect
    lv_preload.o(i.lv_preload_design) refers to lv_style.o(.bss) for lv_style_plain
    lv_preload.o(i.lv_preload_design) refers to lv_preload.o(.data) for .data
    lv_preload.o(i.lv_preload_get_arc_length) refers to lv_obj.o(i.lv_obj_get_ext_attr) for lv_obj_get_ext_attr
    lv_preload.o(i.lv_preload_get_dir) refers to lv_obj.o(i.lv_obj_get_ext_attr) for lv_obj_get_ext_attr
    lv_preload.o(i.lv_preload_get_spin_time) refers to lv_obj.o(i.lv_obj_get_ext_attr) for lv_obj_get_ext_attr
    lv_preload.o(i.lv_preload_get_style) refers to lv_arc.o(i.lv_arc_get_style) for lv_arc_get_style
    lv_preload.o(i.lv_preload_get_type) refers to lv_obj.o(i.lv_obj_get_ext_attr) for lv_obj_get_ext_attr
    lv_preload.o(i.lv_preload_set_arc_length) refers to lv_obj.o(i.lv_obj_get_ext_attr) for lv_obj_get_ext_attr
    lv_preload.o(i.lv_preload_set_dir) refers to lv_obj.o(i.lv_obj_get_ext_attr) for lv_obj_get_ext_attr
    lv_preload.o(i.lv_preload_set_dir) refers to lv_preload.o(i.lv_preload_set_type) for lv_preload_set_type
    lv_preload.o(i.lv_preload_set_spin_time) refers to lv_obj.o(i.lv_obj_get_ext_attr) for lv_obj_get_ext_attr
    lv_preload.o(i.lv_preload_set_spin_time) refers to lv_preload.o(i.lv_preload_set_type) for lv_preload_set_type
    lv_preload.o(i.lv_preload_set_style) refers to lv_arc.o(i.lv_arc_set_style) for lv_arc_set_style
    lv_preload.o(i.lv_preload_set_type) refers to lv_obj.o(i.lv_obj_get_ext_attr) for lv_obj_get_ext_attr
    lv_preload.o(i.lv_preload_set_type) refers to lv_anim.o(i.lv_anim_del) for lv_anim_del
    lv_preload.o(i.lv_preload_set_type) refers to lv_anim.o(i.lv_anim_create) for lv_anim_create
    lv_preload.o(i.lv_preload_set_type) refers to lv_preload.o(i.lv_preload_spinner_anim) for lv_preload_spinner_anim
    lv_preload.o(i.lv_preload_set_type) refers to lv_anim.o(i.lv_anim_path_ease_in_out) for lv_anim_path_ease_in_out
    lv_preload.o(i.lv_preload_set_type) refers to lv_preload.o(i.lv_preload_set_arc_length) for lv_preload_set_arc_length
    lv_preload.o(i.lv_preload_signal) refers to lv_preload.o(.data) for .data
    lv_preload.o(i.lv_preload_spinner_anim) refers to lv_obj.o(i.lv_obj_get_ext_attr) for lv_obj_get_ext_attr
    lv_preload.o(i.lv_preload_spinner_anim) refers to lv_arc.o(i.lv_arc_set_angles) for lv_arc_set_angles
    lv_roller.o(i.lv_roller_create) refers to lv_ddlist.o(i.lv_ddlist_create) for lv_ddlist_create
    lv_roller.o(i.lv_roller_create) refers to lv_page.o(i.lv_page_get_scrl) for lv_page_get_scrl
    lv_roller.o(i.lv_roller_create) refers to lv_obj.o(i.lv_obj_get_signal_cb) for lv_obj_get_signal_cb
    lv_roller.o(i.lv_roller_create) refers to lv_obj.o(i.lv_obj_allocate_ext_attr) for lv_obj_allocate_ext_attr
    lv_roller.o(i.lv_roller_create) refers to lv_obj.o(i.lv_obj_set_signal_cb) for lv_obj_set_signal_cb
    lv_roller.o(i.lv_roller_create) refers to lv_obj.o(i.lv_obj_set_design_cb) for lv_obj_set_design_cb
    lv_roller.o(i.lv_roller_create) refers to lv_obj.o(i.lv_obj_get_ext_attr) for lv_obj_get_ext_attr
    lv_roller.o(i.lv_roller_create) refers to lv_ddlist.o(i.lv_ddlist_open) for lv_ddlist_open
    lv_roller.o(i.lv_roller_create) refers to lv_obj.o(i.lv_obj_refresh_style) for lv_obj_refresh_style
    lv_roller.o(i.lv_roller_create) refers to lv_obj.o(i.lv_obj_set_drag) for lv_obj_set_drag
    lv_roller.o(i.lv_roller_create) refers to lv_cont.o(i.lv_cont_set_fit4) for lv_cont_set_fit4
    lv_roller.o(i.lv_roller_create) refers to lv_page.o(i.lv_page_set_anim_time) for lv_page_set_anim_time
    lv_roller.o(i.lv_roller_create) refers to lv_ddlist.o(i.lv_ddlist_set_stay_open) for lv_ddlist_set_stay_open
    lv_roller.o(i.lv_roller_create) refers to lv_obj.o(i.lv_obj_get_style) for lv_obj_get_style
    lv_roller.o(i.lv_roller_create) refers to lv_ddlist.o(i.lv_ddlist_set_fix_height) for lv_ddlist_set_fix_height
    lv_roller.o(i.lv_roller_create) refers to lv_label.o(i.lv_label_set_align) for lv_label_set_align
    lv_roller.o(i.lv_roller_create) refers to lv_theme.o(i.lv_theme_get_current) for lv_theme_get_current
    lv_roller.o(i.lv_roller_create) refers to lv_obj.o(i.lv_obj_set_style) for lv_obj_set_style
    lv_roller.o(i.lv_roller_create) refers to lv_ddlist.o(i.lv_ddlist_set_style) for lv_ddlist_set_style
    lv_roller.o(i.lv_roller_create) refers to lv_roller.o(.data) for .data
    lv_roller.o(i.lv_roller_create) refers to lv_roller.o(i.lv_roller_signal) for lv_roller_signal
    lv_roller.o(i.lv_roller_create) refers to lv_roller.o(i.lv_roller_design) for lv_roller_design
    lv_roller.o(i.lv_roller_create) refers to lv_roller.o(i.lv_roller_scrl_signal) for lv_roller_scrl_signal
    lv_roller.o(i.lv_roller_design) refers to lv_obj.o(i.lv_obj_get_style) for lv_obj_get_style
    lv_roller.o(i.lv_roller_design) refers to lv_obj.o(i.lv_obj_get_height) for lv_obj_get_height
    lv_roller.o(i.lv_roller_design) refers to lv_area.o(i.lv_area_intersect) for lv_area_intersect
    lv_roller.o(i.lv_roller_design) refers to lv_obj.o(i.lv_obj_get_opa_scale) for lv_obj_get_opa_scale
    lv_roller.o(i.lv_roller_design) refers to lv_draw_rect.o(i.lv_draw_rect) for lv_draw_rect
    lv_roller.o(i.lv_roller_design) refers to lv_obj.o(i.lv_obj_get_ext_attr) for lv_obj_get_ext_attr
    lv_roller.o(i.lv_roller_design) refers to lv_obj.o(i.lv_obj_get_coords) for lv_obj_get_coords
    lv_roller.o(i.lv_roller_design) refers to lv_obj.o(i.lv_obj_get_inner_coords) for lv_obj_get_inner_coords
    lv_roller.o(i.lv_roller_design) refers to lv_ddlist.o(i.lv_ddlist_get_style) for lv_ddlist_get_style
    lv_roller.o(i.lv_roller_design) refers to lv_label.o(i.lv_label_get_align) for lv_label_get_align
    lv_roller.o(i.lv_roller_design) refers to lv_style.o(i.lv_style_copy) for lv_style_copy
    lv_roller.o(i.lv_roller_design) refers to lv_label.o(i.lv_label_get_text) for lv_label_get_text
    lv_roller.o(i.lv_roller_design) refers to lv_draw_label.o(i.lv_draw_label) for lv_draw_label
    lv_roller.o(i.lv_roller_get_align) refers to lv_obj.o(i.lv_obj_get_ext_attr) for lv_obj_get_ext_attr
    lv_roller.o(i.lv_roller_get_align) refers to lv_label.o(i.lv_label_get_align) for lv_label_get_align
    lv_roller.o(i.lv_roller_get_hor_fit) refers to lv_page.o(i.lv_page_get_scrl) for lv_page_get_scrl
    lv_roller.o(i.lv_roller_get_hor_fit) refers to lv_cont.o(i.lv_cont_get_fit_left) for lv_cont_get_fit_left
    lv_roller.o(i.lv_roller_get_selected) refers to lv_obj.o(i.lv_obj_get_ext_attr) for lv_obj_get_ext_attr
    lv_roller.o(i.lv_roller_get_selected) refers to lv_ddlist.o(i.lv_ddlist_get_selected) for lv_ddlist_get_selected
    lv_roller.o(i.lv_roller_get_style) refers to lv_ddlist.o(i.lv_ddlist_get_style) for lv_ddlist_get_style
    lv_roller.o(i.lv_roller_get_style) refers to lv_obj.o(i.lv_obj_get_style) for lv_obj_get_style
    lv_roller.o(i.lv_roller_scrl_signal) refers to lv_indev.o(i.lv_indev_get_act) for lv_indev_get_act
    lv_roller.o(i.lv_roller_scrl_signal) refers to lv_obj.o(i.lv_obj_get_parent) for lv_obj_get_parent
    lv_roller.o(i.lv_roller_scrl_signal) refers to lv_obj.o(i.lv_obj_get_ext_attr) for lv_obj_get_ext_attr
    lv_roller.o(i.lv_roller_scrl_signal) refers to lv_obj.o(i.lv_obj_get_style) for lv_obj_get_style
    lv_roller.o(i.lv_roller_scrl_signal) refers to lv_obj.o(i.lv_event_send) for lv_event_send
    lv_roller.o(i.lv_roller_scrl_signal) refers to lv_indev.o(i.lv_indev_is_dragging) for lv_indev_is_dragging
    lv_roller.o(i.lv_roller_scrl_signal) refers to lv_obj.o(i.lv_obj_get_group) for lv_obj_get_group
    lv_roller.o(i.lv_roller_scrl_signal) refers to lv_group.o(i.lv_group_get_editing) for lv_group_get_editing
    lv_roller.o(i.lv_roller_scrl_signal) refers to lv_group.o(i.lv_group_set_editing) for lv_group_set_editing
    lv_roller.o(i.lv_roller_scrl_signal) refers to lv_anim.o(i.lv_anim_del) for lv_anim_del
    lv_roller.o(i.lv_roller_scrl_signal) refers to lv_roller.o(i.refr_position) for refr_position
    lv_roller.o(i.lv_roller_scrl_signal) refers to lv_roller.o(.data) for .data
    lv_roller.o(i.lv_roller_scrl_signal) refers to lv_obj.o(i.lv_obj_set_y) for lv_obj_set_y
    lv_roller.o(i.lv_roller_set_align) refers to lv_obj.o(i.lv_obj_get_ext_attr) for lv_obj_get_ext_attr
    lv_roller.o(i.lv_roller_set_align) refers to lv_label.o(i.lv_label_set_align) for lv_label_set_align
    lv_roller.o(i.lv_roller_set_options) refers to lv_obj.o(i.lv_obj_get_ext_attr) for lv_obj_get_ext_attr
    lv_roller.o(i.lv_roller_set_options) refers to strlen.o(.text) for strlen
    lv_roller.o(i.lv_roller_set_options) refers to lv_mem.o(i.lv_mem_alloc) for lv_mem_alloc
    lv_roller.o(i.lv_roller_set_options) refers to strcpy.o(.text) for strcpy
    lv_roller.o(i.lv_roller_set_options) refers to lv_ddlist.o(i.lv_ddlist_set_options) for lv_ddlist_set_options
    lv_roller.o(i.lv_roller_set_options) refers to lv_mem.o(i.lv_mem_free) for lv_mem_free
    lv_roller.o(i.lv_roller_set_options) refers to lv_roller.o(i.refr_height) for refr_height
    lv_roller.o(i.lv_roller_set_options) refers to lv_ddlist.o(i.lv_ddlist_get_selected) for lv_ddlist_get_selected
    lv_roller.o(i.lv_roller_set_options) refers to lv_ddlist.o(i.lv_ddlist_set_selected) for lv_ddlist_set_selected
    lv_roller.o(i.lv_roller_set_options) refers to lv_roller.o(i.refr_position) for refr_position
    lv_roller.o(i.lv_roller_set_selected) refers to lv_obj.o(i.lv_obj_get_ext_attr) for lv_obj_get_ext_attr
    lv_roller.o(i.lv_roller_set_selected) refers to lv_ddlist.o(i.lv_ddlist_get_selected) for lv_ddlist_get_selected
    lv_roller.o(i.lv_roller_set_selected) refers to lv_ddlist.o(i.lv_ddlist_set_selected) for lv_ddlist_set_selected
    lv_roller.o(i.lv_roller_set_selected) refers to lv_roller.o(i.refr_position) for refr_position
    lv_roller.o(i.lv_roller_set_style) refers to lv_ddlist.o(i.lv_ddlist_set_style) for lv_ddlist_set_style
    lv_roller.o(i.lv_roller_set_style) refers to lv_obj.o(i.lv_obj_set_style) for lv_obj_set_style
    lv_roller.o(i.lv_roller_set_visible_row_count) refers to lv_obj.o(i.lv_obj_get_ext_attr) for lv_obj_get_ext_attr
    lv_roller.o(i.lv_roller_set_visible_row_count) refers to lv_obj.o(i.lv_obj_get_style) for lv_obj_get_style
    lv_roller.o(i.lv_roller_set_visible_row_count) refers to lv_ddlist.o(i.lv_ddlist_set_fix_height) for lv_ddlist_set_fix_height
    lv_roller.o(i.lv_roller_signal) refers to lv_obj.o(i.lv_obj_get_ext_attr) for lv_obj_get_ext_attr
    lv_roller.o(i.lv_roller_signal) refers to lv_obj.o(i.lv_obj_get_group) for lv_obj_get_group
    lv_roller.o(i.lv_roller_signal) refers to lv_group.o(i.lv_group_get_editing) for lv_group_get_editing
    lv_roller.o(i.lv_roller_signal) refers to lv_indev.o(i.lv_indev_get_act) for lv_indev_get_act
    lv_roller.o(i.lv_roller_signal) refers to lv_indev.o(i.lv_indev_get_type) for lv_indev_get_type
    lv_roller.o(i.lv_roller_signal) refers to lv_roller.o(i.refr_height) for refr_height
    lv_roller.o(i.lv_roller_signal) refers to lv_roller.o(i.refr_position) for refr_position
    lv_roller.o(i.lv_roller_signal) refers to lv_obj.o(i.lv_obj_get_width) for lv_obj_get_width
    lv_roller.o(i.lv_roller_signal) refers to lv_obj.o(i.lv_obj_get_height) for lv_obj_get_height
    lv_roller.o(i.lv_roller_signal) refers to lv_page.o(i.lv_page_get_scrl) for lv_page_get_scrl
    lv_roller.o(i.lv_roller_signal) refers to lv_anim.o(i.lv_anim_del) for lv_anim_del
    lv_roller.o(i.lv_roller_signal) refers to lv_ddlist.o(i.lv_ddlist_set_selected) for lv_ddlist_set_selected
    lv_roller.o(i.lv_roller_signal) refers to lv_ddlist.o(i.lv_ddlist_get_selected) for lv_ddlist_get_selected
    lv_roller.o(i.lv_roller_signal) refers to lv_roller.o(.data) for .data
    lv_roller.o(i.lv_roller_signal) refers to lv_obj.o(i.lv_obj_set_y) for lv_obj_set_y
    lv_roller.o(i.refr_height) refers to lv_obj.o(i.lv_obj_get_ext_attr) for lv_obj_get_ext_attr
    lv_roller.o(i.refr_height) refers to lv_label.o(i.lv_label_get_align) for lv_label_get_align
    lv_roller.o(i.refr_height) refers to lv_obj.o(i.lv_obj_get_height) for lv_obj_get_height
    lv_roller.o(i.refr_height) refers to lv_page.o(i.lv_page_get_scrl) for lv_page_get_scrl
    lv_roller.o(i.refr_height) refers to lv_obj.o(i.lv_obj_set_height) for lv_obj_set_height
    lv_roller.o(i.refr_height) refers to lv_obj.o(i.lv_obj_align) for lv_obj_align
    lv_roller.o(i.refr_height) refers to lv_anim.o(i.lv_anim_del) for lv_anim_del
    lv_roller.o(i.refr_height) refers to lv_ddlist.o(i.lv_ddlist_set_selected) for lv_ddlist_set_selected
    lv_roller.o(i.refr_height) refers to lv_obj.o(i.lv_obj_set_y) for lv_obj_set_y
    lv_roller.o(i.refr_position) refers to lv_page.o(i.lv_page_get_scrl) for lv_page_get_scrl
    lv_roller.o(i.refr_position) refers to lv_obj.o(i.lv_obj_get_ext_attr) for lv_obj_get_ext_attr
    lv_roller.o(i.refr_position) refers to lv_obj.o(i.lv_obj_get_style) for lv_obj_get_style
    lv_roller.o(i.refr_position) refers to lv_obj.o(i.lv_obj_get_height) for lv_obj_get_height
    lv_roller.o(i.refr_position) refers to lv_page.o(i.lv_page_get_anim_time) for lv_page_get_anim_time
    lv_roller.o(i.refr_position) refers to lv_obj.o(i.lv_obj_get_parent) for lv_obj_get_parent
    lv_roller.o(i.refr_position) refers to lv_obj.o(i.lv_obj_set_y) for lv_obj_set_y
    lv_roller.o(i.refr_position) refers to lv_obj.o(i.lv_obj_get_y) for lv_obj_get_y
    lv_roller.o(i.refr_position) refers to lv_anim.o(i.lv_anim_create) for lv_anim_create
    lv_roller.o(i.refr_position) refers to lv_anim.o(i.lv_anim_path_linear) for lv_anim_path_linear
    lv_roller.o(i.refr_position) refers to lv_roller.o(i.scroll_anim_ready_cb) for scroll_anim_ready_cb
    lv_roller.o(i.scroll_anim_ready_cb) refers to lv_obj.o(i.lv_obj_get_parent) for lv_obj_get_parent
    lv_roller.o(i.scroll_anim_ready_cb) refers to lv_obj.o(i.lv_obj_get_ext_attr) for lv_obj_get_ext_attr
    lv_roller.o(i.scroll_anim_ready_cb) refers to lv_obj.o(i.lv_obj_get_style) for lv_obj_get_style
    lv_roller.o(i.scroll_anim_ready_cb) refers to lv_obj.o(i.lv_obj_get_height) for lv_obj_get_height
    lv_roller.o(i.scroll_anim_ready_cb) refers to lv_obj.o(i.lv_obj_set_y) for lv_obj_set_y
    lv_slider.o(i.lv_slider_create) refers to lv_bar.o(i.lv_bar_create) for lv_bar_create
    lv_slider.o(i.lv_slider_create) refers to lv_obj.o(i.lv_obj_get_design_cb) for lv_obj_get_design_cb
    lv_slider.o(i.lv_slider_create) refers to lv_obj.o(i.lv_obj_get_signal_cb) for lv_obj_get_signal_cb
    lv_slider.o(i.lv_slider_create) refers to lv_obj.o(i.lv_obj_allocate_ext_attr) for lv_obj_allocate_ext_attr
    lv_slider.o(i.lv_slider_create) refers to lv_obj.o(i.lv_obj_set_signal_cb) for lv_obj_set_signal_cb
    lv_slider.o(i.lv_slider_create) refers to lv_obj.o(i.lv_obj_set_design_cb) for lv_obj_set_design_cb
    lv_slider.o(i.lv_slider_create) refers to lv_obj.o(i.lv_obj_get_ext_attr) for lv_obj_get_ext_attr
    lv_slider.o(i.lv_slider_create) refers to lv_obj.o(i.lv_obj_refresh_style) for lv_obj_refresh_style
    lv_slider.o(i.lv_slider_create) refers to lv_obj.o(i.lv_obj_set_click) for lv_obj_set_click
    lv_slider.o(i.lv_slider_create) refers to lv_obj.o(i.lv_obj_set_protect) for lv_obj_set_protect
    lv_slider.o(i.lv_slider_create) refers to lv_theme.o(i.lv_theme_get_current) for lv_theme_get_current
    lv_slider.o(i.lv_slider_create) refers to lv_bar.o(i.lv_bar_set_style) for lv_bar_set_style
    lv_slider.o(i.lv_slider_create) refers to lv_obj.o(i.lv_obj_refresh_ext_draw_pad) for lv_obj_refresh_ext_draw_pad
    lv_slider.o(i.lv_slider_create) refers to lv_slider.o(.data) for .data
    lv_slider.o(i.lv_slider_create) refers to lv_style.o(.bss) for lv_style_pretty
    lv_slider.o(i.lv_slider_create) refers to lv_slider.o(i.lv_slider_signal) for lv_slider_signal
    lv_slider.o(i.lv_slider_create) refers to lv_slider.o(i.lv_slider_design) for lv_slider_design
    lv_slider.o(i.lv_slider_design) refers to lv_obj.o(i.lv_obj_get_ext_attr) for lv_obj_get_ext_attr
    lv_slider.o(i.lv_slider_design) refers to lv_bar.o(i.lv_bar_get_style) for lv_bar_get_style
    lv_slider.o(i.lv_slider_design) refers to lv_obj.o(i.lv_obj_get_opa_scale) for lv_obj_get_opa_scale
    lv_slider.o(i.lv_slider_design) refers to lv_obj.o(i.lv_obj_is_focused) for lv_obj_is_focused
    lv_slider.o(i.lv_slider_design) refers to lv_style.o(i.lv_style_copy) for lv_style_copy
    lv_slider.o(i.lv_slider_design) refers to lv_draw_rect.o(i.lv_draw_rect) for lv_draw_rect
    lv_slider.o(i.lv_slider_design) refers to lv_bar.o(i.lv_bar_get_value) for lv_bar_get_value
    lv_slider.o(i.lv_slider_design) refers to lv_bar.o(i.lv_bar_get_min_value) for lv_bar_get_min_value
    lv_slider.o(i.lv_slider_design) refers to lv_bar.o(i.lv_bar_get_max_value) for lv_bar_get_max_value
    lv_slider.o(i.lv_slider_get_knob_in) refers to lv_obj.o(i.lv_obj_get_ext_attr) for lv_obj_get_ext_attr
    lv_slider.o(i.lv_slider_get_style) refers to lv_obj.o(i.lv_obj_get_ext_attr) for lv_obj_get_ext_attr
    lv_slider.o(i.lv_slider_get_style) refers to lv_bar.o(i.lv_bar_get_style) for lv_bar_get_style
    lv_slider.o(i.lv_slider_get_value) refers to lv_obj.o(i.lv_obj_get_ext_attr) for lv_obj_get_ext_attr
    lv_slider.o(i.lv_slider_get_value) refers to lv_bar.o(i.lv_bar_get_value) for lv_bar_get_value
    lv_slider.o(i.lv_slider_is_dragged) refers to lv_obj.o(i.lv_obj_get_ext_attr) for lv_obj_get_ext_attr
    lv_slider.o(i.lv_slider_set_knob_in) refers to lv_obj.o(i.lv_obj_get_ext_attr) for lv_obj_get_ext_attr
    lv_slider.o(i.lv_slider_set_knob_in) refers to lv_obj.o(i.lv_obj_invalidate) for lv_obj_invalidate
    lv_slider.o(i.lv_slider_set_style) refers to lv_obj.o(i.lv_obj_get_ext_attr) for lv_obj_get_ext_attr
    lv_slider.o(i.lv_slider_set_style) refers to lv_obj.o(i.lv_obj_refresh_ext_draw_pad) for lv_obj_refresh_ext_draw_pad
    lv_slider.o(i.lv_slider_set_style) refers to lv_bar.o(i.lv_bar_set_style) for lv_bar_set_style
    lv_slider.o(i.lv_slider_signal) refers to lv_obj.o(i.lv_obj_get_ext_attr) for lv_obj_get_ext_attr
    lv_slider.o(i.lv_slider_signal) refers to lv_obj.o(i.lv_obj_get_width) for lv_obj_get_width
    lv_slider.o(i.lv_slider_signal) refers to lv_obj.o(i.lv_obj_get_height) for lv_obj_get_height
    lv_slider.o(i.lv_slider_signal) refers to lv_bar.o(i.lv_bar_get_value) for lv_bar_get_value
    lv_slider.o(i.lv_slider_signal) refers to lv_indev.o(i.lv_indev_get_point) for lv_indev_get_point
    lv_slider.o(i.lv_slider_signal) refers to lv_obj.o(i.lv_obj_invalidate) for lv_obj_invalidate
    lv_slider.o(i.lv_slider_signal) refers to lv_obj.o(i.lv_event_send) for lv_event_send
    lv_slider.o(i.lv_slider_signal) refers to lv_bar.o(i.lv_bar_set_value) for lv_bar_set_value
    lv_slider.o(i.lv_slider_signal) refers to lv_obj.o(i.lv_obj_get_group) for lv_obj_get_group
    lv_slider.o(i.lv_slider_signal) refers to lv_group.o(i.lv_group_get_editing) for lv_group_get_editing
    lv_slider.o(i.lv_slider_signal) refers to lv_indev.o(i.lv_indev_get_act) for lv_indev_get_act
    lv_slider.o(i.lv_slider_signal) refers to lv_indev.o(i.lv_indev_get_type) for lv_indev_get_type
    lv_slider.o(i.lv_slider_signal) refers to lv_group.o(i.lv_group_set_editing) for lv_group_set_editing
    lv_slider.o(i.lv_slider_signal) refers to lv_bar.o(i.lv_bar_get_style) for lv_bar_get_style
    lv_slider.o(i.lv_slider_signal) refers to lv_slider.o(.data) for .data
    lv_spinbox.o(i.lv_spinbox_create) refers to lv_ta.o(i.lv_ta_create) for lv_ta_create
    lv_spinbox.o(i.lv_spinbox_create) refers to lv_obj.o(i.lv_obj_allocate_ext_attr) for lv_obj_allocate_ext_attr
    lv_spinbox.o(i.lv_spinbox_create) refers to lv_obj.o(i.lv_obj_get_signal_cb) for lv_obj_get_signal_cb
    lv_spinbox.o(i.lv_spinbox_create) refers to lv_obj.o(i.lv_obj_get_design_cb) for lv_obj_get_design_cb
    lv_spinbox.o(i.lv_spinbox_create) refers to lv_ta.o(i.lv_ta_set_cursor_type) for lv_ta_set_cursor_type
    lv_spinbox.o(i.lv_spinbox_create) refers to lv_ta.o(i.lv_ta_set_one_line) for lv_ta_set_one_line
    lv_spinbox.o(i.lv_spinbox_create) refers to lv_ta.o(i.lv_ta_set_cursor_click_pos) for lv_ta_set_cursor_click_pos
    lv_spinbox.o(i.lv_spinbox_create) refers to lv_obj.o(i.lv_obj_set_signal_cb) for lv_obj_set_signal_cb
    lv_spinbox.o(i.lv_spinbox_create) refers to lv_obj.o(i.lv_obj_set_design_cb) for lv_obj_set_design_cb
    lv_spinbox.o(i.lv_spinbox_create) refers to lv_obj.o(i.lv_obj_get_ext_attr) for lv_obj_get_ext_attr
    lv_spinbox.o(i.lv_spinbox_create) refers to lv_spinbox.o(i.lv_spinbox_updatevalue) for lv_spinbox_updatevalue
    lv_spinbox.o(i.lv_spinbox_create) refers to lv_obj.o(i.lv_obj_invalidate) for lv_obj_invalidate
    lv_spinbox.o(i.lv_spinbox_create) refers to lv_obj.o(i.lv_obj_refresh_style) for lv_obj_refresh_style
    lv_spinbox.o(i.lv_spinbox_create) refers to lv_theme.o(i.lv_theme_get_current) for lv_theme_get_current
    lv_spinbox.o(i.lv_spinbox_create) refers to lv_ta.o(i.lv_ta_set_style) for lv_ta_set_style
    lv_spinbox.o(i.lv_spinbox_create) refers to lv_spinbox.o(.data) for .data
    lv_spinbox.o(i.lv_spinbox_create) refers to lv_spinbox.o(i.lv_spinbox_signal) for lv_spinbox_signal
    lv_spinbox.o(i.lv_spinbox_decrement) refers to lv_obj.o(i.lv_obj_get_ext_attr) for lv_obj_get_ext_attr
    lv_spinbox.o(i.lv_spinbox_decrement) refers to lv_spinbox.o(i.lv_spinbox_updatevalue) for lv_spinbox_updatevalue
    lv_spinbox.o(i.lv_spinbox_get_value) refers to lv_obj.o(i.lv_obj_get_ext_attr) for lv_obj_get_ext_attr
    lv_spinbox.o(i.lv_spinbox_increment) refers to lv_obj.o(i.lv_obj_get_ext_attr) for lv_obj_get_ext_attr
    lv_spinbox.o(i.lv_spinbox_increment) refers to lv_spinbox.o(i.lv_spinbox_updatevalue) for lv_spinbox_updatevalue
    lv_spinbox.o(i.lv_spinbox_set_digit_format) refers to lv_obj.o(i.lv_obj_get_ext_attr) for lv_obj_get_ext_attr
    lv_spinbox.o(i.lv_spinbox_set_digit_format) refers to lv_spinbox.o(i.lv_spinbox_updatevalue) for lv_spinbox_updatevalue
    lv_spinbox.o(i.lv_spinbox_set_padding_left) refers to lv_obj.o(i.lv_obj_get_ext_attr) for lv_obj_get_ext_attr
    lv_spinbox.o(i.lv_spinbox_set_padding_left) refers to lv_spinbox.o(i.lv_spinbox_updatevalue) for lv_spinbox_updatevalue
    lv_spinbox.o(i.lv_spinbox_set_range) refers to lv_obj.o(i.lv_obj_get_ext_attr) for lv_obj_get_ext_attr
    lv_spinbox.o(i.lv_spinbox_set_range) refers to lv_obj.o(i.lv_obj_invalidate) for lv_obj_invalidate
    lv_spinbox.o(i.lv_spinbox_set_step) refers to lv_obj.o(i.lv_obj_get_ext_attr) for lv_obj_get_ext_attr
    lv_spinbox.o(i.lv_spinbox_set_value) refers to lv_obj.o(i.lv_obj_get_ext_attr) for lv_obj_get_ext_attr
    lv_spinbox.o(i.lv_spinbox_set_value) refers to lv_spinbox.o(i.lv_spinbox_updatevalue) for lv_spinbox_updatevalue
    lv_spinbox.o(i.lv_spinbox_signal) refers to lv_obj.o(i.lv_obj_get_ext_attr) for lv_obj_get_ext_attr
    lv_spinbox.o(i.lv_spinbox_signal) refers to lv_indev.o(i.lv_indev_get_act) for lv_indev_get_act
    lv_spinbox.o(i.lv_spinbox_signal) refers to lv_indev.o(i.lv_indev_get_type) for lv_indev_get_type
    lv_spinbox.o(i.lv_spinbox_signal) refers to lv_ta.o(i.lv_ta_add_char) for lv_ta_add_char
    lv_spinbox.o(i.lv_spinbox_signal) refers to lv_obj.o(i.lv_obj_get_group) for lv_obj_get_group
    lv_spinbox.o(i.lv_spinbox_signal) refers to lv_group.o(i.lv_group_get_editing) for lv_group_get_editing
    lv_spinbox.o(i.lv_spinbox_signal) refers to lv_spinbox.o(i.lv_spinbox_updatevalue) for lv_spinbox_updatevalue
    lv_spinbox.o(i.lv_spinbox_signal) refers to lv_spinbox.o(.data) for .data
    lv_spinbox.o(i.lv_spinbox_step_next) refers to lv_obj.o(i.lv_obj_get_ext_attr) for lv_obj_get_ext_attr
    lv_spinbox.o(i.lv_spinbox_step_next) refers to lv_spinbox.o(i.lv_spinbox_updatevalue) for lv_spinbox_updatevalue
    lv_spinbox.o(i.lv_spinbox_step_prev) refers to lv_obj.o(i.lv_obj_get_ext_attr) for lv_obj_get_ext_attr
    lv_spinbox.o(i.lv_spinbox_step_prev) refers to lv_spinbox.o(i.lv_spinbox_updatevalue) for lv_spinbox_updatevalue
    lv_spinbox.o(i.lv_spinbox_updatevalue) refers to lv_obj.o(i.lv_obj_get_ext_attr) for lv_obj_get_ext_attr
    lv_spinbox.o(i.lv_spinbox_updatevalue) refers to lv_utils.o(i.lv_utils_num_to_str) for lv_utils_num_to_str
    lv_spinbox.o(i.lv_spinbox_updatevalue) refers to strlen.o(.text) for strlen
    lv_spinbox.o(i.lv_spinbox_updatevalue) refers to lv_ta.o(i.lv_ta_set_text) for lv_ta_set_text
    lv_spinbox.o(i.lv_spinbox_updatevalue) refers to lv_ta.o(i.lv_ta_set_cursor_pos) for lv_ta_set_cursor_pos
    lv_sw.o(i.lv_sw_create) refers to lv_slider.o(i.lv_slider_create) for lv_slider_create
    lv_sw.o(i.lv_sw_create) refers to lv_obj.o(i.lv_obj_get_signal_cb) for lv_obj_get_signal_cb
    lv_sw.o(i.lv_sw_create) refers to lv_obj.o(i.lv_obj_allocate_ext_attr) for lv_obj_allocate_ext_attr
    lv_sw.o(i.lv_sw_create) refers to lv_obj.o(i.lv_obj_set_signal_cb) for lv_obj_set_signal_cb
    lv_sw.o(i.lv_sw_create) refers to lv_obj.o(i.lv_obj_get_ext_attr) for lv_obj_get_ext_attr
    lv_sw.o(i.lv_sw_create) refers to lv_bar.o(i.lv_bar_get_value) for lv_bar_get_value
    lv_sw.o(i.lv_sw_create) refers to lv_slider.o(i.lv_slider_set_style) for lv_slider_set_style
    lv_sw.o(i.lv_sw_create) refers to lv_obj.o(i.lv_obj_set_size) for lv_obj_set_size
    lv_sw.o(i.lv_sw_create) refers to lv_slider.o(i.lv_slider_set_knob_in) for lv_slider_set_knob_in
    lv_sw.o(i.lv_sw_create) refers to lv_bar.o(i.lv_bar_set_range) for lv_bar_set_range
    lv_sw.o(i.lv_sw_create) refers to lv_theme.o(i.lv_theme_get_current) for lv_theme_get_current
    lv_sw.o(i.lv_sw_create) refers to lv_sw.o(i.lv_sw_set_style) for lv_sw_set_style
    lv_sw.o(i.lv_sw_create) refers to lv_obj.o(i.lv_obj_refresh_style) for lv_obj_refresh_style
    lv_sw.o(i.lv_sw_create) refers to lv_sw.o(.data) for .data
    lv_sw.o(i.lv_sw_create) refers to lv_sw.o(i.lv_sw_signal) for lv_sw_signal
    lv_sw.o(i.lv_sw_get_anim_time) refers to lv_obj.o(i.lv_obj_get_ext_attr) for lv_obj_get_ext_attr
    lv_sw.o(i.lv_sw_get_style) refers to lv_obj.o(i.lv_obj_get_ext_attr) for lv_obj_get_ext_attr
    lv_sw.o(i.lv_sw_get_style) refers to lv_slider.o(i.lv_slider_get_style) for lv_slider_get_style
    lv_sw.o(i.lv_sw_off) refers to lv_obj.o(i.lv_obj_get_ext_attr) for lv_obj_get_ext_attr
    lv_sw.o(i.lv_sw_off) refers to lv_bar.o(i.lv_bar_set_value) for lv_bar_set_value
    lv_sw.o(i.lv_sw_off) refers to lv_slider.o(i.lv_slider_set_style) for lv_slider_set_style
    lv_sw.o(i.lv_sw_on) refers to lv_obj.o(i.lv_obj_get_ext_attr) for lv_obj_get_ext_attr
    lv_sw.o(i.lv_sw_on) refers to lv_bar.o(i.lv_bar_set_value) for lv_bar_set_value
    lv_sw.o(i.lv_sw_on) refers to lv_slider.o(i.lv_slider_set_style) for lv_slider_set_style
    lv_sw.o(i.lv_sw_set_anim_time) refers to lv_obj.o(i.lv_obj_get_ext_attr) for lv_obj_get_ext_attr
    lv_sw.o(i.lv_sw_set_style) refers to lv_obj.o(i.lv_obj_get_ext_attr) for lv_obj_get_ext_attr
    lv_sw.o(i.lv_sw_set_style) refers to lv_bar.o(i.lv_bar_get_value) for lv_bar_get_value
    lv_sw.o(i.lv_sw_set_style) refers to lv_slider.o(i.lv_slider_set_style) for lv_slider_set_style
    lv_sw.o(i.lv_sw_set_style) refers to lv_bar.o(i.lv_bar_set_style) for lv_bar_set_style
    lv_sw.o(i.lv_sw_signal) refers to lv_obj.o(i.lv_obj_get_ext_attr) for lv_obj_get_ext_attr
    lv_sw.o(i.lv_sw_signal) refers to lv_slider.o(i.lv_slider_get_value) for lv_slider_get_value
    lv_sw.o(i.lv_sw_signal) refers to lv_indev.o(i.lv_indev_get_act) for lv_indev_get_act
    lv_sw.o(i.lv_sw_signal) refers to lv_indev.o(i.lv_indev_get_point) for lv_indev_get_point
    lv_sw.o(i.lv_sw_signal) refers to lv_bar.o(i.lv_bar_get_value) for lv_bar_get_value
    lv_sw.o(i.lv_sw_signal) refers to lv_slider.o(i.lv_slider_set_style) for lv_slider_set_style
    lv_sw.o(i.lv_sw_signal) refers to lv_bar.o(i.lv_bar_set_value) for lv_bar_set_value
    lv_sw.o(i.lv_sw_signal) refers to lv_obj.o(i.lv_event_send) for lv_event_send
    lv_sw.o(i.lv_sw_signal) refers to lv_sw.o(.data) for .data
    lv_sw.o(i.lv_sw_toggle) refers to lv_bar.o(i.lv_bar_get_value) for lv_bar_get_value
    lv_sw.o(i.lv_sw_toggle) refers to lv_obj.o(i.lv_obj_get_ext_attr) for lv_obj_get_ext_attr
    lv_sw.o(i.lv_sw_toggle) refers to lv_bar.o(i.lv_bar_set_value) for lv_bar_set_value
    lv_sw.o(i.lv_sw_toggle) refers to lv_slider.o(i.lv_slider_set_style) for lv_slider_set_style
    lv_ta.o(i.cursor_blink_anim) refers to lv_obj.o(i.lv_obj_get_ext_attr) for lv_obj_get_ext_attr
    lv_ta.o(i.cursor_blink_anim) refers to lv_obj.o(i.lv_obj_get_disp) for lv_obj_get_disp
    lv_ta.o(i.cursor_blink_anim) refers to lv_refr.o(i.lv_inv_area) for lv_inv_area
    lv_ta.o(i.lv_ta_add_char) refers to lv_obj.o(i.lv_obj_get_ext_attr) for lv_obj_get_ext_attr
    lv_ta.o(i.lv_ta_add_char) refers to lv_obj.o(i.lv_event_send) for lv_event_send
    lv_ta.o(i.lv_ta_add_char) refers to strcmp.o(.text) for strcmp
    lv_ta.o(i.lv_ta_add_char) refers to lv_ta.o(i.lv_ta_add_text) for lv_ta_add_text
    lv_ta.o(i.lv_ta_add_char) refers to lv_label.o(i.lv_label_get_text) for lv_label_get_text
    lv_ta.o(i.lv_ta_add_char) refers to lv_page.o(i.lv_page_get_edge_flash) for lv_page_get_edge_flash
    lv_ta.o(i.lv_ta_add_char) refers to lv_page.o(i.lv_page_set_edge_flash) for lv_page_set_edge_flash
    lv_ta.o(i.lv_ta_add_char) refers to lv_label.o(i.lv_label_set_text) for lv_label_set_text
    lv_ta.o(i.lv_ta_add_char) refers to lv_label.o(i.lv_label_ins_text) for lv_label_ins_text
    lv_ta.o(i.lv_ta_add_char) refers to strlen.o(.text) for strlen
    lv_ta.o(i.lv_ta_add_char) refers to lv_mem.o(i.lv_mem_realloc) for lv_mem_realloc
    lv_ta.o(i.lv_ta_add_char) refers to lv_txt.o(i.lv_txt_ins) for lv_txt_ins
    lv_ta.o(i.lv_ta_add_char) refers to lv_anim.o(i.lv_anim_create) for lv_anim_create
    lv_ta.o(i.lv_ta_add_char) refers to lv_ta.o(i.lv_ta_set_cursor_pos) for lv_ta_set_cursor_pos
    lv_ta.o(i.lv_ta_add_char) refers to lv_ta.o(i.placeholder_update) for placeholder_update
    lv_ta.o(i.lv_ta_add_char) refers to lv_ta.o(.data) for .data
    lv_ta.o(i.lv_ta_add_char) refers to lv_txt.o(.data) for lv_txt_encoded_next
    lv_ta.o(i.lv_ta_add_char) refers to lv_txt.o(.data) for lv_txt_get_encoded_length
    lv_ta.o(i.lv_ta_add_char) refers to lv_ta.o(i.pwd_char_hider_anim) for pwd_char_hider_anim
    lv_ta.o(i.lv_ta_add_char) refers to lv_ta.o(i.pwd_char_hider_anim_ready) for pwd_char_hider_anim_ready
    lv_ta.o(i.lv_ta_add_char) refers to lv_anim.o(i.lv_anim_path_step) for lv_anim_path_step
    lv_ta.o(i.lv_ta_add_text) refers to lv_obj.o(i.lv_obj_get_ext_attr) for lv_obj_get_ext_attr
    lv_ta.o(i.lv_ta_add_text) refers to lv_obj.o(i.lv_event_send) for lv_event_send
    lv_ta.o(i.lv_ta_add_text) refers to strcmp.o(.text) for strcmp
    lv_ta.o(i.lv_ta_add_text) refers to lv_label.o(i.lv_label_get_text) for lv_label_get_text
    lv_ta.o(i.lv_ta_add_text) refers to lv_label.o(i.lv_label_set_text) for lv_label_set_text
    lv_ta.o(i.lv_ta_add_text) refers to lv_ta.o(i.lv_ta_add_char) for lv_ta_add_char
    lv_ta.o(i.lv_ta_add_text) refers to lv_page.o(i.lv_page_get_edge_flash) for lv_page_get_edge_flash
    lv_ta.o(i.lv_ta_add_text) refers to lv_page.o(i.lv_page_set_edge_flash) for lv_page_set_edge_flash
    lv_ta.o(i.lv_ta_add_text) refers to lv_label.o(i.lv_label_ins_text) for lv_label_ins_text
    lv_ta.o(i.lv_ta_add_text) refers to strlen.o(.text) for strlen
    lv_ta.o(i.lv_ta_add_text) refers to lv_mem.o(i.lv_mem_realloc) for lv_mem_realloc
    lv_ta.o(i.lv_ta_add_text) refers to lv_txt.o(i.lv_txt_ins) for lv_txt_ins
    lv_ta.o(i.lv_ta_add_text) refers to lv_anim.o(i.lv_anim_create) for lv_anim_create
    lv_ta.o(i.lv_ta_add_text) refers to lv_ta.o(i.lv_ta_set_cursor_pos) for lv_ta_set_cursor_pos
    lv_ta.o(i.lv_ta_add_text) refers to lv_ta.o(i.placeholder_update) for placeholder_update
    lv_ta.o(i.lv_ta_add_text) refers to lv_ta.o(.data) for .data
    lv_ta.o(i.lv_ta_add_text) refers to lv_txt.o(.data) for lv_txt_get_encoded_length
    lv_ta.o(i.lv_ta_add_text) refers to lv_txt.o(.data) for lv_txt_encoded_next
    lv_ta.o(i.lv_ta_add_text) refers to lv_txt.o(.data) for lv_txt_unicode_to_encoded
    lv_ta.o(i.lv_ta_add_text) refers to lv_ta.o(i.pwd_char_hider_anim) for pwd_char_hider_anim
    lv_ta.o(i.lv_ta_add_text) refers to lv_ta.o(i.pwd_char_hider_anim_ready) for pwd_char_hider_anim_ready
    lv_ta.o(i.lv_ta_add_text) refers to lv_anim.o(i.lv_anim_path_step) for lv_anim_path_step
    lv_ta.o(i.lv_ta_create) refers to lv_page.o(i.lv_page_create) for lv_page_create
    lv_ta.o(i.lv_ta_create) refers to lv_obj.o(i.lv_obj_get_signal_cb) for lv_obj_get_signal_cb
    lv_ta.o(i.lv_ta_create) refers to lv_obj.o(i.lv_obj_get_design_cb) for lv_obj_get_design_cb
    lv_ta.o(i.lv_ta_create) refers to lv_page.o(i.lv_page_get_scrl) for lv_page_get_scrl
    lv_ta.o(i.lv_ta_create) refers to lv_obj.o(i.lv_obj_allocate_ext_attr) for lv_obj_allocate_ext_attr
    lv_ta.o(i.lv_ta_create) refers to lv_obj.o(i.lv_obj_set_signal_cb) for lv_obj_set_signal_cb
    lv_ta.o(i.lv_ta_create) refers to lv_obj.o(i.lv_obj_set_design_cb) for lv_obj_set_design_cb
    lv_ta.o(i.lv_ta_create) refers to lv_obj.o(i.lv_obj_get_ext_attr) for lv_obj_get_ext_attr
    lv_ta.o(i.lv_ta_create) refers to lv_label.o(i.lv_label_create) for lv_label_create
    lv_ta.o(i.lv_ta_create) refers to lv_ta.o(i.lv_ta_set_one_line) for lv_ta_set_one_line
    lv_ta.o(i.lv_ta_create) refers to lv_ta.o(i.lv_ta_set_style) for lv_ta_set_style
    lv_ta.o(i.lv_ta_create) refers to lv_obj.o(i.lv_obj_refresh_style) for lv_obj_refresh_style
    lv_ta.o(i.lv_ta_create) refers to lv_anim.o(i.lv_anim_create) for lv_anim_create
    lv_ta.o(i.lv_ta_create) refers to lv_cont.o(i.lv_cont_set_fit4) for lv_cont_set_fit4
    lv_ta.o(i.lv_ta_create) refers to lv_label.o(i.lv_label_set_long_mode) for lv_label_set_long_mode
    lv_ta.o(i.lv_ta_create) refers to lv_label.o(i.lv_label_set_text) for lv_label_set_text
    lv_ta.o(i.lv_ta_create) refers to lv_obj.o(i.lv_obj_set_click) for lv_obj_set_click
    lv_ta.o(i.lv_ta_create) refers to lv_obj.o(i.lv_obj_set_size) for lv_obj_set_size
    lv_ta.o(i.lv_ta_create) refers to lv_page.o(i.lv_page_set_sb_mode) for lv_page_set_sb_mode
    lv_ta.o(i.lv_ta_create) refers to lv_page.o(i.lv_page_set_style) for lv_page_set_style
    lv_ta.o(i.lv_ta_create) refers to lv_theme.o(i.lv_theme_get_current) for lv_theme_get_current
    lv_ta.o(i.lv_ta_create) refers to lv_ta.o(.data) for .data
    lv_ta.o(i.lv_ta_create) refers to lv_ta.o(i.lv_ta_signal) for lv_ta_signal
    lv_ta.o(i.lv_ta_create) refers to lv_ta.o(i.lv_ta_scrollable_signal) for lv_ta_scrollable_signal
    lv_ta.o(i.lv_ta_create) refers to lv_ta.o(i.lv_ta_design) for lv_ta_design
    lv_ta.o(i.lv_ta_create) refers to lv_ta.o(i.lv_ta_scrollable_design) for lv_ta_scrollable_design
    lv_ta.o(i.lv_ta_create) refers to lv_ta.o(i.cursor_blink_anim) for cursor_blink_anim
    lv_ta.o(i.lv_ta_create) refers to lv_anim.o(i.lv_anim_path_step) for lv_anim_path_step
    lv_ta.o(i.lv_ta_create) refers to lv_style.o(.bss) for lv_style_transp_tight
    lv_ta.o(i.lv_ta_cursor_down) refers to lv_obj.o(i.lv_obj_get_ext_attr) for lv_obj_get_ext_attr
    lv_ta.o(i.lv_ta_cursor_down) refers to lv_label.o(i.lv_label_get_letter_pos) for lv_label_get_letter_pos
    lv_ta.o(i.lv_ta_cursor_down) refers to lv_obj.o(i.lv_obj_get_style) for lv_obj_get_style
    lv_ta.o(i.lv_ta_cursor_down) refers to lv_obj.o(i.lv_obj_get_height) for lv_obj_get_height
    lv_ta.o(i.lv_ta_cursor_down) refers to lv_label.o(i.lv_label_get_letter_on) for lv_label_get_letter_on
    lv_ta.o(i.lv_ta_cursor_down) refers to lv_ta.o(i.lv_ta_set_cursor_pos) for lv_ta_set_cursor_pos
    lv_ta.o(i.lv_ta_cursor_left) refers to lv_obj.o(i.lv_obj_get_ext_attr) for lv_obj_get_ext_attr
    lv_ta.o(i.lv_ta_cursor_left) refers to lv_ta.o(i.lv_ta_set_cursor_pos) for lv_ta_set_cursor_pos
    lv_ta.o(i.lv_ta_cursor_right) refers to lv_obj.o(i.lv_obj_get_ext_attr) for lv_obj_get_ext_attr
    lv_ta.o(i.lv_ta_cursor_right) refers to lv_ta.o(i.lv_ta_set_cursor_pos) for lv_ta_set_cursor_pos
    lv_ta.o(i.lv_ta_cursor_up) refers to lv_obj.o(i.lv_obj_get_ext_attr) for lv_obj_get_ext_attr
    lv_ta.o(i.lv_ta_cursor_up) refers to lv_label.o(i.lv_label_get_letter_pos) for lv_label_get_letter_pos
    lv_ta.o(i.lv_ta_cursor_up) refers to lv_obj.o(i.lv_obj_get_style) for lv_obj_get_style
    lv_ta.o(i.lv_ta_cursor_up) refers to lv_label.o(i.lv_label_get_letter_on) for lv_label_get_letter_on
    lv_ta.o(i.lv_ta_cursor_up) refers to lv_ta.o(i.lv_ta_set_cursor_pos) for lv_ta_set_cursor_pos
    lv_ta.o(i.lv_ta_del_char) refers to lv_obj.o(i.lv_obj_get_ext_attr) for lv_obj_get_ext_attr
    lv_ta.o(i.lv_ta_del_char) refers to lv_obj.o(i.lv_event_send) for lv_event_send
    lv_ta.o(i.lv_ta_del_char) refers to strcmp.o(.text) for strcmp
    lv_ta.o(i.lv_ta_del_char) refers to lv_ta.o(i.lv_ta_add_text) for lv_ta_add_text
    lv_ta.o(i.lv_ta_del_char) refers to lv_label.o(i.lv_label_get_text) for lv_label_get_text
    lv_ta.o(i.lv_ta_del_char) refers to lv_txt.o(i.lv_txt_cut) for lv_txt_cut
    lv_ta.o(i.lv_ta_del_char) refers to lv_label.o(i.lv_label_set_text) for lv_label_set_text
    lv_ta.o(i.lv_ta_del_char) refers to lv_obj.o(i.lv_obj_get_width) for lv_obj_get_width
    lv_ta.o(i.lv_ta_del_char) refers to lv_obj.o(i.lv_obj_get_style) for lv_obj_get_style
    lv_ta.o(i.lv_ta_del_char) refers to lv_obj.o(i.lv_obj_set_width) for lv_obj_set_width
    lv_ta.o(i.lv_ta_del_char) refers to strlen.o(.text) for strlen
    lv_ta.o(i.lv_ta_del_char) refers to lv_mem.o(i.lv_mem_realloc) for lv_mem_realloc
    lv_ta.o(i.lv_ta_del_char) refers to lv_ta.o(i.lv_ta_set_cursor_pos) for lv_ta_set_cursor_pos
    lv_ta.o(i.lv_ta_del_char) refers to lv_ta.o(i.placeholder_update) for placeholder_update
    lv_ta.o(i.lv_ta_del_char) refers to lv_ta.o(.data) for .data
    lv_ta.o(i.lv_ta_del_char) refers to lv_txt.o(.data) for lv_txt_encoded_get_byte_id
    lv_ta.o(i.lv_ta_del_char_forward) refers to lv_obj.o(i.lv_obj_get_ext_attr) for lv_obj_get_ext_attr
    lv_ta.o(i.lv_ta_del_char_forward) refers to lv_ta.o(i.lv_ta_set_cursor_pos) for lv_ta_set_cursor_pos
    lv_ta.o(i.lv_ta_del_char_forward) refers to lv_ta.o(i.lv_ta_del_char) for lv_ta_del_char
    lv_ta.o(i.lv_ta_design) refers to lv_ta.o(.data) for .data
    lv_ta.o(i.lv_ta_get_accepted_chars) refers to lv_obj.o(i.lv_obj_get_ext_attr) for lv_obj_get_ext_attr
    lv_ta.o(i.lv_ta_get_cursor_blink_time) refers to lv_obj.o(i.lv_obj_get_ext_attr) for lv_obj_get_ext_attr
    lv_ta.o(i.lv_ta_get_cursor_click_pos) refers to lv_obj.o(i.lv_obj_get_ext_attr) for lv_obj_get_ext_attr
    lv_ta.o(i.lv_ta_get_cursor_pos) refers to lv_obj.o(i.lv_obj_get_ext_attr) for lv_obj_get_ext_attr
    lv_ta.o(i.lv_ta_get_cursor_type) refers to lv_obj.o(i.lv_obj_get_ext_attr) for lv_obj_get_ext_attr
    lv_ta.o(i.lv_ta_get_label) refers to lv_obj.o(i.lv_obj_get_ext_attr) for lv_obj_get_ext_attr
    lv_ta.o(i.lv_ta_get_max_length) refers to lv_obj.o(i.lv_obj_get_ext_attr) for lv_obj_get_ext_attr
    lv_ta.o(i.lv_ta_get_one_line) refers to lv_obj.o(i.lv_obj_get_ext_attr) for lv_obj_get_ext_attr
    lv_ta.o(i.lv_ta_get_placeholder_text) refers to lv_obj.o(i.lv_obj_get_ext_attr) for lv_obj_get_ext_attr
    lv_ta.o(i.lv_ta_get_placeholder_text) refers to lv_label.o(i.lv_label_get_text) for lv_label_get_text
    lv_ta.o(i.lv_ta_get_pwd_mode) refers to lv_obj.o(i.lv_obj_get_ext_attr) for lv_obj_get_ext_attr
    lv_ta.o(i.lv_ta_get_pwd_show_time) refers to lv_obj.o(i.lv_obj_get_ext_attr) for lv_obj_get_ext_attr
    lv_ta.o(i.lv_ta_get_style) refers to lv_obj.o(i.lv_obj_get_ext_attr) for lv_obj_get_ext_attr
    lv_ta.o(i.lv_ta_get_style) refers to lv_page.o(i.lv_page_get_style) for lv_page_get_style
    lv_ta.o(i.lv_ta_get_style) refers to lv_obj.o(i.lv_obj_get_style) for lv_obj_get_style
    lv_ta.o(i.lv_ta_get_text) refers to lv_obj.o(i.lv_obj_get_ext_attr) for lv_obj_get_ext_attr
    lv_ta.o(i.lv_ta_get_text) refers to lv_label.o(i.lv_label_get_text) for lv_label_get_text
    lv_ta.o(i.lv_ta_scrollable_design) refers to lv_obj.o(i.lv_obj_get_parent) for lv_obj_get_parent
    lv_ta.o(i.lv_ta_scrollable_design) refers to lv_obj.o(i.lv_obj_get_ext_attr) for lv_obj_get_ext_attr
    lv_ta.o(i.lv_ta_scrollable_design) refers to lv_obj.o(i.lv_obj_get_style) for lv_obj_get_style
    lv_ta.o(i.lv_ta_scrollable_design) refers to lv_style.o(i.lv_style_copy) for lv_style_copy
    lv_ta.o(i.lv_ta_scrollable_design) refers to lv_label.o(i.lv_label_get_text) for lv_label_get_text
    lv_ta.o(i.lv_ta_scrollable_design) refers to lv_obj.o(i.lv_obj_get_opa_scale) for lv_obj_get_opa_scale
    lv_ta.o(i.lv_ta_scrollable_design) refers to lv_draw_rect.o(i.lv_draw_rect) for lv_draw_rect
    lv_ta.o(i.lv_ta_scrollable_design) refers to memmovea.o(.text) for __aeabi_memcpy
    lv_ta.o(i.lv_ta_scrollable_design) refers to lv_draw_label.o(i.lv_draw_label) for lv_draw_label
    lv_ta.o(i.lv_ta_scrollable_design) refers to lv_ta.o(.data) for .data
    lv_ta.o(i.lv_ta_scrollable_design) refers to lv_txt.o(.data) for lv_txt_encoded_size
    lv_ta.o(i.lv_ta_scrollable_signal) refers to lv_obj.o(i.lv_obj_get_parent) for lv_obj_get_parent
    lv_ta.o(i.lv_ta_scrollable_signal) refers to lv_obj.o(i.lv_obj_get_ext_attr) for lv_obj_get_ext_attr
    lv_ta.o(i.lv_ta_scrollable_signal) refers to lv_obj.o(i.lv_obj_get_style) for lv_obj_get_style
    lv_ta.o(i.lv_ta_scrollable_signal) refers to lv_obj.o(i.lv_obj_get_width) for lv_obj_get_width
    lv_ta.o(i.lv_ta_scrollable_signal) refers to lv_obj.o(i.lv_obj_get_height) for lv_obj_get_height
    lv_ta.o(i.lv_ta_scrollable_signal) refers to lv_page.o(i.lv_page_get_fit_width) for lv_page_get_fit_width
    lv_ta.o(i.lv_ta_scrollable_signal) refers to lv_obj.o(i.lv_obj_set_width) for lv_obj_set_width
    lv_ta.o(i.lv_ta_scrollable_signal) refers to lv_obj.o(i.lv_obj_set_pos) for lv_obj_set_pos
    lv_ta.o(i.lv_ta_scrollable_signal) refers to lv_label.o(i.lv_label_set_text) for lv_label_set_text
    lv_ta.o(i.lv_ta_scrollable_signal) refers to lv_ta.o(i.refr_cursor_area) for refr_cursor_area
    lv_ta.o(i.lv_ta_scrollable_signal) refers to lv_indev.o(i.lv_indev_get_type) for lv_indev_get_type
    lv_ta.o(i.lv_ta_scrollable_signal) refers to lv_obj.o(i.lv_obj_get_coords) for lv_obj_get_coords
    lv_ta.o(i.lv_ta_scrollable_signal) refers to lv_indev.o(i.lv_indev_get_point) for lv_indev_get_point
    lv_ta.o(i.lv_ta_scrollable_signal) refers to lv_indev.o(i.lv_indev_get_vect) for lv_indev_get_vect
    lv_ta.o(i.lv_ta_scrollable_signal) refers to lv_label.o(i.lv_label_get_letter_on) for lv_label_get_letter_on
    lv_ta.o(i.lv_ta_scrollable_signal) refers to lv_ta.o(i.lv_ta_set_cursor_pos) for lv_ta_set_cursor_pos
    lv_ta.o(i.lv_ta_scrollable_signal) refers to lv_ta.o(.data) for .data
    lv_ta.o(i.lv_ta_set_accepted_chars) refers to lv_obj.o(i.lv_obj_get_ext_attr) for lv_obj_get_ext_attr
    lv_ta.o(i.lv_ta_set_cursor_blink_time) refers to lv_obj.o(i.lv_obj_get_ext_attr) for lv_obj_get_ext_attr
    lv_ta.o(i.lv_ta_set_cursor_blink_time) refers to lv_anim.o(i.lv_anim_create) for lv_anim_create
    lv_ta.o(i.lv_ta_set_cursor_blink_time) refers to lv_ta.o(i.cursor_blink_anim) for cursor_blink_anim
    lv_ta.o(i.lv_ta_set_cursor_blink_time) refers to lv_anim.o(i.lv_anim_path_step) for lv_anim_path_step
    lv_ta.o(i.lv_ta_set_cursor_click_pos) refers to lv_obj.o(i.lv_obj_get_ext_attr) for lv_obj_get_ext_attr
    lv_ta.o(i.lv_ta_set_cursor_pos) refers to lv_obj.o(i.lv_obj_get_ext_attr) for lv_obj_get_ext_attr
    lv_ta.o(i.lv_ta_set_cursor_pos) refers to lv_label.o(i.lv_label_get_text) for lv_label_get_text
    lv_ta.o(i.lv_ta_set_cursor_pos) refers to lv_obj.o(i.lv_obj_get_parent) for lv_obj_get_parent
    lv_ta.o(i.lv_ta_set_cursor_pos) refers to lv_obj.o(i.lv_obj_get_style) for lv_obj_get_style
    lv_ta.o(i.lv_ta_set_cursor_pos) refers to lv_label.o(i.lv_label_get_letter_pos) for lv_label_get_letter_pos
    lv_ta.o(i.lv_ta_set_cursor_pos) refers to lv_obj.o(i.lv_obj_get_coords) for lv_obj_get_coords
    lv_ta.o(i.lv_ta_set_cursor_pos) refers to lv_obj.o(i.lv_obj_get_y) for lv_obj_get_y
    lv_ta.o(i.lv_ta_set_cursor_pos) refers to lv_obj.o(i.lv_obj_set_y) for lv_obj_set_y
    lv_ta.o(i.lv_ta_set_cursor_pos) refers to lv_obj.o(i.lv_obj_get_height) for lv_obj_get_height
    lv_ta.o(i.lv_ta_set_cursor_pos) refers to lv_obj.o(i.lv_obj_get_x) for lv_obj_get_x
    lv_ta.o(i.lv_ta_set_cursor_pos) refers to lv_obj.o(i.lv_obj_set_x) for lv_obj_set_x
    lv_ta.o(i.lv_ta_set_cursor_pos) refers to lv_obj.o(i.lv_obj_get_width) for lv_obj_get_width
    lv_ta.o(i.lv_ta_set_cursor_pos) refers to lv_anim.o(i.lv_anim_create) for lv_anim_create
    lv_ta.o(i.lv_ta_set_cursor_pos) refers to lv_ta.o(i.refr_cursor_area) for refr_cursor_area
    lv_ta.o(i.lv_ta_set_cursor_pos) refers to lv_txt.o(.data) for lv_txt_get_encoded_length
    lv_ta.o(i.lv_ta_set_cursor_pos) refers to lv_ta.o(i.cursor_blink_anim) for cursor_blink_anim
    lv_ta.o(i.lv_ta_set_cursor_pos) refers to lv_anim.o(i.lv_anim_path_step) for lv_anim_path_step
    lv_ta.o(i.lv_ta_set_cursor_type) refers to lv_obj.o(i.lv_obj_get_ext_attr) for lv_obj_get_ext_attr
    lv_ta.o(i.lv_ta_set_cursor_type) refers to lv_ta.o(i.refr_cursor_area) for refr_cursor_area
    lv_ta.o(i.lv_ta_set_insert_replace) refers to lv_ta.o(.data) for .data
    lv_ta.o(i.lv_ta_set_max_length) refers to lv_obj.o(i.lv_obj_get_ext_attr) for lv_obj_get_ext_attr
    lv_ta.o(i.lv_ta_set_one_line) refers to lv_obj.o(i.lv_obj_get_ext_attr) for lv_obj_get_ext_attr
    lv_ta.o(i.lv_ta_set_one_line) refers to lv_obj.o(i.lv_obj_get_style) for lv_obj_get_style
    lv_ta.o(i.lv_ta_set_one_line) refers to lv_page.o(i.lv_page_get_scrl) for lv_page_get_scrl
    lv_ta.o(i.lv_ta_set_one_line) refers to lv_cont.o(i.lv_cont_set_fit4) for lv_cont_set_fit4
    lv_ta.o(i.lv_ta_set_one_line) refers to lv_obj.o(i.lv_obj_set_height) for lv_obj_set_height
    lv_ta.o(i.lv_ta_set_one_line) refers to lv_label.o(i.lv_label_set_long_mode) for lv_label_set_long_mode
    lv_ta.o(i.lv_ta_set_one_line) refers to lv_obj.o(i.lv_obj_set_pos) for lv_obj_set_pos
    lv_ta.o(i.lv_ta_set_one_line) refers to lv_ta.o(i.placeholder_update) for placeholder_update
    lv_ta.o(i.lv_ta_set_one_line) refers to lv_ta.o(i.refr_cursor_area) for refr_cursor_area
    lv_ta.o(i.lv_ta_set_placeholder_text) refers to lv_obj.o(i.lv_obj_get_ext_attr) for lv_obj_get_ext_attr
    lv_ta.o(i.lv_ta_set_placeholder_text) refers to lv_label.o(i.lv_label_create) for lv_label_create
    lv_ta.o(i.lv_ta_set_placeholder_text) refers to lv_label.o(i.lv_label_set_long_mode) for lv_label_set_long_mode
    lv_ta.o(i.lv_ta_set_placeholder_text) refers to lv_label.o(i.lv_label_set_text) for lv_label_set_text
    lv_ta.o(i.lv_ta_set_placeholder_text) refers to lv_ta.o(i.placeholder_update) for placeholder_update
    lv_ta.o(i.lv_ta_set_pwd_mode) refers to lv_obj.o(i.lv_obj_get_ext_attr) for lv_obj_get_ext_attr
    lv_ta.o(i.lv_ta_set_pwd_mode) refers to lv_label.o(i.lv_label_get_text) for lv_label_get_text
    lv_ta.o(i.lv_ta_set_pwd_mode) refers to strlen.o(.text) for strlen
    lv_ta.o(i.lv_ta_set_pwd_mode) refers to lv_mem.o(i.lv_mem_alloc) for lv_mem_alloc
    lv_ta.o(i.lv_ta_set_pwd_mode) refers to strcpy.o(.text) for strcpy
    lv_ta.o(i.lv_ta_set_pwd_mode) refers to lv_label.o(i.lv_label_set_text) for lv_label_set_text
    lv_ta.o(i.lv_ta_set_pwd_mode) refers to lv_mem.o(i.lv_mem_free) for lv_mem_free
    lv_ta.o(i.lv_ta_set_pwd_mode) refers to lv_ta.o(i.refr_cursor_area) for refr_cursor_area
    lv_ta.o(i.lv_ta_set_pwd_show_time) refers to lv_obj.o(i.lv_obj_get_ext_attr) for lv_obj_get_ext_attr
    lv_ta.o(i.lv_ta_set_style) refers to lv_obj.o(i.lv_obj_get_ext_attr) for lv_obj_get_ext_attr
    lv_ta.o(i.lv_ta_set_style) refers to lv_page.o(i.lv_page_set_style) for lv_page_set_style
    lv_ta.o(i.lv_ta_set_style) refers to lv_page.o(i.lv_page_get_scrl) for lv_page_get_scrl
    lv_ta.o(i.lv_ta_set_style) refers to lv_obj.o(i.lv_obj_refresh_ext_draw_pad) for lv_obj_refresh_ext_draw_pad
    lv_ta.o(i.lv_ta_set_style) refers to lv_ta.o(i.refr_cursor_area) for refr_cursor_area
    lv_ta.o(i.lv_ta_set_style) refers to lv_obj.o(i.lv_obj_set_style) for lv_obj_set_style
    lv_ta.o(i.lv_ta_set_text) refers to lv_obj.o(i.lv_obj_get_ext_attr) for lv_obj_get_ext_attr
    lv_ta.o(i.lv_ta_set_text) refers to lv_label.o(i.lv_label_set_text) for lv_label_set_text
    lv_ta.o(i.lv_ta_set_text) refers to lv_ta.o(i.lv_ta_set_cursor_pos) for lv_ta_set_cursor_pos
    lv_ta.o(i.lv_ta_set_text) refers to lv_ta.o(i.lv_ta_add_char) for lv_ta_add_char
    lv_ta.o(i.lv_ta_set_text) refers to lv_obj.o(i.lv_obj_get_width) for lv_obj_get_width
    lv_ta.o(i.lv_ta_set_text) refers to lv_obj.o(i.lv_obj_get_style) for lv_obj_get_style
    lv_ta.o(i.lv_ta_set_text) refers to lv_font.o(i.lv_font_get_glyph_width) for lv_font_get_glyph_width
    lv_ta.o(i.lv_ta_set_text) refers to lv_obj.o(i.lv_obj_set_width) for lv_obj_set_width
    lv_ta.o(i.lv_ta_set_text) refers to strlen.o(.text) for strlen
    lv_ta.o(i.lv_ta_set_text) refers to lv_mem.o(i.lv_mem_realloc) for lv_mem_realloc
    lv_ta.o(i.lv_ta_set_text) refers to strcpy.o(.text) for strcpy
    lv_ta.o(i.lv_ta_set_text) refers to lv_anim.o(i.lv_anim_create) for lv_anim_create
    lv_ta.o(i.lv_ta_set_text) refers to lv_ta.o(i.placeholder_update) for placeholder_update
    lv_ta.o(i.lv_ta_set_text) refers to lv_obj.o(i.lv_event_send) for lv_event_send
    lv_ta.o(i.lv_ta_set_text) refers to lv_txt.o(.data) for lv_txt_encoded_next
    lv_ta.o(i.lv_ta_set_text) refers to lv_txt.o(.data) for lv_txt_unicode_to_encoded
    lv_ta.o(i.lv_ta_set_text) refers to lv_ta.o(i.pwd_char_hider_anim) for pwd_char_hider_anim
    lv_ta.o(i.lv_ta_set_text) refers to lv_ta.o(i.pwd_char_hider_anim_ready) for pwd_char_hider_anim_ready
    lv_ta.o(i.lv_ta_set_text) refers to lv_anim.o(i.lv_anim_path_step) for lv_anim_path_step
    lv_ta.o(i.lv_ta_set_text_align) refers to lv_obj.o(i.lv_obj_get_ext_attr) for lv_obj_get_ext_attr
    lv_ta.o(i.lv_ta_set_text_align) refers to lv_label.o(i.lv_label_set_long_mode) for lv_label_set_long_mode
    lv_ta.o(i.lv_ta_set_text_align) refers to lv_page.o(i.lv_page_get_scrl) for lv_page_get_scrl
    lv_ta.o(i.lv_ta_set_text_align) refers to lv_cont.o(i.lv_cont_set_fit4) for lv_cont_set_fit4
    lv_ta.o(i.lv_ta_set_text_align) refers to lv_label.o(i.lv_label_set_align) for lv_label_set_align
    lv_ta.o(i.lv_ta_set_text_align) refers to lv_page.o(i.lv_page_get_fit_width) for lv_page_get_fit_width
    lv_ta.o(i.lv_ta_set_text_align) refers to lv_obj.o(i.lv_obj_set_width) for lv_obj_set_width
    lv_ta.o(i.lv_ta_set_text_align) refers to lv_ta.o(i.refr_cursor_area) for refr_cursor_area
    lv_ta.o(i.lv_ta_signal) refers to lv_obj.o(i.lv_obj_get_ext_attr) for lv_obj_get_ext_attr
    lv_ta.o(i.lv_ta_signal) refers to lv_mem.o(i.lv_mem_free) for lv_mem_free
    lv_ta.o(i.lv_ta_signal) refers to lv_page.o(i.lv_page_get_scrl) for lv_page_get_scrl
    lv_ta.o(i.lv_ta_signal) refers to lv_obj.o(i.lv_obj_get_style) for lv_obj_get_style
    lv_ta.o(i.lv_ta_signal) refers to lv_obj.o(i.lv_obj_set_height) for lv_obj_set_height
    lv_ta.o(i.lv_ta_signal) refers to lv_page.o(i.lv_page_get_fit_width) for lv_page_get_fit_width
    lv_ta.o(i.lv_ta_signal) refers to lv_obj.o(i.lv_obj_set_width) for lv_obj_set_width
    lv_ta.o(i.lv_ta_signal) refers to lv_obj.o(i.lv_obj_set_pos) for lv_obj_set_pos
    lv_ta.o(i.lv_ta_signal) refers to lv_label.o(i.lv_label_set_text) for lv_label_set_text
    lv_ta.o(i.lv_ta_signal) refers to lv_obj.o(i.lv_obj_get_width) for lv_obj_get_width
    lv_ta.o(i.lv_ta_signal) refers to lv_obj.o(i.lv_obj_get_height) for lv_obj_get_height
    lv_ta.o(i.lv_ta_signal) refers to lv_ta.o(i.refr_cursor_area) for refr_cursor_area
    lv_ta.o(i.lv_ta_signal) refers to lv_ta.o(i.lv_ta_add_char) for lv_ta_add_char
    lv_ta.o(i.lv_ta_signal) refers to lv_ta.o(i.lv_ta_set_cursor_pos) for lv_ta_set_cursor_pos
    lv_ta.o(i.lv_ta_signal) refers to lv_label.o(i.lv_label_get_letter_pos) for lv_label_get_letter_pos
    lv_ta.o(i.lv_ta_signal) refers to lv_label.o(i.lv_label_get_letter_on) for lv_label_get_letter_on
    lv_ta.o(i.lv_ta_signal) refers to lv_ta.o(i.lv_ta_del_char) for lv_ta_del_char
    lv_ta.o(i.lv_ta_signal) refers to lv_obj.o(i.lv_obj_get_group) for lv_obj_get_group
    lv_ta.o(i.lv_ta_signal) refers to lv_group.o(i.lv_group_get_editing) for lv_group_get_editing
    lv_ta.o(i.lv_ta_signal) refers to lv_indev.o(i.lv_indev_get_act) for lv_indev_get_act
    lv_ta.o(i.lv_ta_signal) refers to lv_indev.o(i.lv_indev_get_type) for lv_indev_get_type
    lv_ta.o(i.lv_ta_signal) refers to lv_ta.o(.data) for .data
    lv_ta.o(i.lv_ta_signal) refers to lv_obj.o(i.lv_obj_get_coords) for lv_obj_get_coords
    lv_ta.o(i.lv_ta_signal) refers to lv_indev.o(i.lv_indev_get_point) for lv_indev_get_point
    lv_ta.o(i.lv_ta_signal) refers to lv_indev.o(i.lv_indev_get_vect) for lv_indev_get_vect
    lv_ta.o(i.placeholder_update) refers to lv_obj.o(i.lv_obj_get_ext_attr) for lv_obj_get_ext_attr
    lv_ta.o(i.placeholder_update) refers to lv_label.o(i.lv_label_get_text) for lv_label_get_text
    lv_ta.o(i.placeholder_update) refers to lv_obj.o(i.lv_obj_set_hidden) for lv_obj_set_hidden
    lv_ta.o(i.placeholder_update) refers to lv_page.o(i.lv_page_get_scrl) for lv_page_get_scrl
    lv_ta.o(i.placeholder_update) refers to lv_obj.o(i.lv_obj_get_style) for lv_obj_get_style
    lv_ta.o(i.placeholder_update) refers to lv_obj.o(i.lv_obj_set_pos) for lv_obj_set_pos
    lv_ta.o(i.placeholder_update) refers to lv_page.o(i.lv_page_get_fit_width) for lv_page_get_fit_width
    lv_ta.o(i.placeholder_update) refers to lv_obj.o(i.lv_obj_set_width) for lv_obj_set_width
    lv_ta.o(i.pwd_char_hider_anim_ready) refers to lv_obj.o(i.lv_obj_get_ext_attr) for lv_obj_get_ext_attr
    lv_ta.o(i.pwd_char_hider_anim_ready) refers to lv_label.o(i.lv_label_get_text) for lv_label_get_text
    lv_ta.o(i.pwd_char_hider_anim_ready) refers to lv_label.o(i.lv_label_set_text) for lv_label_set_text
    lv_ta.o(i.pwd_char_hider_anim_ready) refers to lv_txt.o(.data) for lv_txt_get_encoded_length
    lv_ta.o(i.refr_cursor_area) refers to lv_obj.o(i.lv_obj_get_ext_attr) for lv_obj_get_ext_attr
    lv_ta.o(i.refr_cursor_area) refers to lv_obj.o(i.lv_obj_get_style) for lv_obj_get_style
    lv_ta.o(i.refr_cursor_area) refers to lv_style.o(i.lv_style_copy) for lv_style_copy
    lv_ta.o(i.refr_cursor_area) refers to lv_label.o(i.lv_label_get_text) for lv_label_get_text
    lv_ta.o(i.refr_cursor_area) refers to lv_font.o(i.lv_font_get_glyph_width) for lv_font_get_glyph_width
    lv_ta.o(i.refr_cursor_area) refers to lv_label.o(i.lv_label_get_letter_pos) for lv_label_get_letter_pos
    lv_ta.o(i.refr_cursor_area) refers to lv_label.o(i.lv_label_get_align) for lv_label_get_align
    lv_ta.o(i.refr_cursor_area) refers to lv_obj.o(i.lv_obj_get_disp) for lv_obj_get_disp
    lv_ta.o(i.refr_cursor_area) refers to lv_refr.o(i.lv_inv_area) for lv_inv_area
    lv_ta.o(i.refr_cursor_area) refers to lv_ta.o(i.__ARM_common_memcpy4_8) for __ARM_common_memcpy4_8
    lv_ta.o(i.refr_cursor_area) refers to lv_txt.o(.data) for lv_txt_encoded_get_byte_id
    lv_table.o(i.lv_table_create) refers to lv_obj.o(i.lv_obj_create) for lv_obj_create
    lv_table.o(i.lv_table_create) refers to lv_obj.o(i.lv_obj_allocate_ext_attr) for lv_obj_allocate_ext_attr
    lv_table.o(i.lv_table_create) refers to lv_obj.o(i.lv_obj_get_signal_cb) for lv_obj_get_signal_cb
    lv_table.o(i.lv_table_create) refers to lv_obj.o(i.lv_obj_get_design_cb) for lv_obj_get_design_cb
    lv_table.o(i.lv_table_create) refers to lv_obj.o(i.lv_obj_set_signal_cb) for lv_obj_set_signal_cb
    lv_table.o(i.lv_table_create) refers to lv_obj.o(i.lv_obj_set_design_cb) for lv_obj_set_design_cb
    lv_table.o(i.lv_table_create) refers to lv_obj.o(i.lv_obj_get_ext_attr) for lv_obj_get_ext_attr
    lv_table.o(i.lv_table_create) refers to lv_obj.o(i.lv_obj_refresh_style) for lv_obj_refresh_style
    lv_table.o(i.lv_table_create) refers to lv_theme.o(i.lv_theme_get_current) for lv_theme_get_current
    lv_table.o(i.lv_table_create) refers to lv_table.o(i.lv_table_set_style) for lv_table_set_style
    lv_table.o(i.lv_table_create) refers to lv_obj.o(i.lv_obj_set_click) for lv_obj_set_click
    lv_table.o(i.lv_table_create) refers to lv_table.o(.data) for .data
    lv_table.o(i.lv_table_create) refers to lv_style.o(.bss) for lv_style_plain
    lv_table.o(i.lv_table_create) refers to lv_table.o(i.lv_table_signal) for lv_table_signal
    lv_table.o(i.lv_table_create) refers to lv_table.o(i.lv_table_design) for lv_table_design
    lv_table.o(i.lv_table_design) refers to lv_obj.o(i.lv_obj_get_ext_attr) for lv_obj_get_ext_attr
    lv_table.o(i.lv_table_design) refers to lv_obj.o(i.lv_obj_get_style) for lv_obj_get_style
    lv_table.o(i.lv_table_design) refers to lv_obj.o(i.lv_obj_get_opa_scale) for lv_obj_get_opa_scale
    lv_table.o(i.lv_table_design) refers to lv_txt.o(i.lv_txt_get_size) for lv_txt_get_size
    lv_table.o(i.lv_table_design) refers to lv_draw_rect.o(i.lv_draw_rect) for lv_draw_rect
    lv_table.o(i.lv_table_design) refers to lv_area.o(i.lv_area_intersect) for lv_area_intersect
    lv_table.o(i.lv_table_design) refers to lv_draw_label.o(i.lv_draw_label) for lv_draw_label
    lv_table.o(i.lv_table_design) refers to lv_draw_line.o(i.lv_draw_line) for lv_draw_line
    lv_table.o(i.lv_table_design) refers to lv_table.o(.data) for .data
    lv_table.o(i.lv_table_get_cell_align) refers to lv_obj.o(i.lv_obj_get_ext_attr) for lv_obj_get_ext_attr
    lv_table.o(i.lv_table_get_cell_crop) refers to lv_obj.o(i.lv_obj_get_ext_attr) for lv_obj_get_ext_attr
    lv_table.o(i.lv_table_get_cell_merge_right) refers to lv_obj.o(i.lv_obj_get_ext_attr) for lv_obj_get_ext_attr
    lv_table.o(i.lv_table_get_cell_type) refers to lv_obj.o(i.lv_obj_get_ext_attr) for lv_obj_get_ext_attr
    lv_table.o(i.lv_table_get_cell_value) refers to lv_obj.o(i.lv_obj_get_ext_attr) for lv_obj_get_ext_attr
    lv_table.o(i.lv_table_get_col_cnt) refers to lv_obj.o(i.lv_obj_get_ext_attr) for lv_obj_get_ext_attr
    lv_table.o(i.lv_table_get_col_width) refers to lv_obj.o(i.lv_obj_get_ext_attr) for lv_obj_get_ext_attr
    lv_table.o(i.lv_table_get_row_cnt) refers to lv_obj.o(i.lv_obj_get_ext_attr) for lv_obj_get_ext_attr
    lv_table.o(i.lv_table_get_style) refers to lv_obj.o(i.lv_obj_get_ext_attr) for lv_obj_get_ext_attr
    lv_table.o(i.lv_table_get_style) refers to lv_obj.o(i.lv_obj_get_style) for lv_obj_get_style
    lv_table.o(i.lv_table_set_cell_align) refers to lv_obj.o(i.lv_obj_get_ext_attr) for lv_obj_get_ext_attr
    lv_table.o(i.lv_table_set_cell_align) refers to lv_mem.o(i.lv_mem_alloc) for lv_mem_alloc
    lv_table.o(i.lv_table_set_cell_crop) refers to lv_obj.o(i.lv_obj_get_ext_attr) for lv_obj_get_ext_attr
    lv_table.o(i.lv_table_set_cell_crop) refers to lv_mem.o(i.lv_mem_alloc) for lv_mem_alloc
    lv_table.o(i.lv_table_set_cell_merge_right) refers to lv_obj.o(i.lv_obj_get_ext_attr) for lv_obj_get_ext_attr
    lv_table.o(i.lv_table_set_cell_merge_right) refers to lv_mem.o(i.lv_mem_alloc) for lv_mem_alloc
    lv_table.o(i.lv_table_set_cell_merge_right) refers to lv_table.o(i.refr_size) for refr_size
    lv_table.o(i.lv_table_set_cell_type) refers to lv_obj.o(i.lv_obj_get_ext_attr) for lv_obj_get_ext_attr
    lv_table.o(i.lv_table_set_cell_type) refers to lv_mem.o(i.lv_mem_alloc) for lv_mem_alloc
    lv_table.o(i.lv_table_set_cell_value) refers to lv_obj.o(i.lv_obj_get_ext_attr) for lv_obj_get_ext_attr
    lv_table.o(i.lv_table_set_cell_value) refers to strlen.o(.text) for strlen
    lv_table.o(i.lv_table_set_cell_value) refers to lv_mem.o(i.lv_mem_realloc) for lv_mem_realloc
    lv_table.o(i.lv_table_set_cell_value) refers to strcpy.o(.text) for strcpy
    lv_table.o(i.lv_table_set_cell_value) refers to lv_table.o(i.refr_size) for refr_size
    lv_table.o(i.lv_table_set_col_cnt) refers to lv_obj.o(i.lv_obj_get_ext_attr) for lv_obj_get_ext_attr
    lv_table.o(i.lv_table_set_col_cnt) refers to lv_mem.o(i.lv_mem_realloc) for lv_mem_realloc
    lv_table.o(i.lv_table_set_col_cnt) refers to memseta.o(.text) for __aeabi_memclr4
    lv_table.o(i.lv_table_set_col_cnt) refers to lv_mem.o(i.lv_mem_free) for lv_mem_free
    lv_table.o(i.lv_table_set_col_cnt) refers to lv_table.o(i.refr_size) for refr_size
    lv_table.o(i.lv_table_set_col_width) refers to lv_obj.o(i.lv_obj_get_ext_attr) for lv_obj_get_ext_attr
    lv_table.o(i.lv_table_set_col_width) refers to lv_table.o(i.refr_size) for refr_size
    lv_table.o(i.lv_table_set_row_cnt) refers to lv_obj.o(i.lv_obj_get_ext_attr) for lv_obj_get_ext_attr
    lv_table.o(i.lv_table_set_row_cnt) refers to lv_mem.o(i.lv_mem_realloc) for lv_mem_realloc
    lv_table.o(i.lv_table_set_row_cnt) refers to memseta.o(.text) for __aeabi_memclr4
    lv_table.o(i.lv_table_set_row_cnt) refers to lv_mem.o(i.lv_mem_free) for lv_mem_free
    lv_table.o(i.lv_table_set_row_cnt) refers to lv_table.o(i.refr_size) for refr_size
    lv_table.o(i.lv_table_set_style) refers to lv_obj.o(i.lv_obj_get_ext_attr) for lv_obj_get_ext_attr
    lv_table.o(i.lv_table_set_style) refers to lv_obj.o(i.lv_obj_set_style) for lv_obj_set_style
    lv_table.o(i.lv_table_set_style) refers to lv_table.o(i.refr_size) for refr_size
    lv_table.o(i.lv_table_signal) refers to lv_obj.o(i.lv_obj_get_ext_attr) for lv_obj_get_ext_attr
    lv_table.o(i.lv_table_signal) refers to lv_mem.o(i.lv_mem_free) for lv_mem_free
    lv_table.o(i.lv_table_signal) refers to lv_table.o(.data) for .data
    lv_table.o(i.refr_size) refers to lv_obj.o(i.lv_obj_get_ext_attr) for lv_obj_get_ext_attr
    lv_table.o(i.refr_size) refers to lv_txt.o(i.lv_txt_get_size) for lv_txt_get_size
    lv_table.o(i.refr_size) refers to lv_obj.o(i.lv_obj_get_style) for lv_obj_get_style
    lv_table.o(i.refr_size) refers to lv_obj.o(i.lv_obj_set_size) for lv_obj_set_size
    lv_table.o(i.refr_size) refers to lv_obj.o(i.lv_obj_invalidate) for lv_obj_invalidate
    lv_tabview.o(i.lv_tabview_add_tab) refers to lv_obj.o(i.lv_obj_get_ext_attr) for lv_obj_get_ext_attr
    lv_tabview.o(i.lv_tabview_add_tab) refers to lv_page.o(i.lv_page_create) for lv_page_create
    lv_tabview.o(i.lv_tabview_add_tab) refers to lv_obj.o(i.lv_obj_get_height) for lv_obj_get_height
    lv_tabview.o(i.lv_tabview_add_tab) refers to lv_obj.o(i.lv_obj_get_width) for lv_obj_get_width
    lv_tabview.o(i.lv_tabview_add_tab) refers to lv_obj.o(i.lv_obj_set_size) for lv_obj_set_size
    lv_tabview.o(i.lv_tabview_add_tab) refers to lv_page.o(i.lv_page_set_sb_mode) for lv_page_set_sb_mode
    lv_tabview.o(i.lv_tabview_add_tab) refers to lv_page.o(i.lv_page_set_style) for lv_page_set_style
    lv_tabview.o(i.lv_tabview_add_tab) refers to lv_obj.o(i.lv_obj_get_signal_cb) for lv_obj_get_signal_cb
    lv_tabview.o(i.lv_tabview_add_tab) refers to lv_page.o(i.lv_page_get_scrl) for lv_page_get_scrl
    lv_tabview.o(i.lv_tabview_add_tab) refers to lv_obj.o(i.lv_obj_set_signal_cb) for lv_obj_set_signal_cb
    lv_tabview.o(i.lv_tabview_add_tab) refers to strlen.o(.text) for strlen
    lv_tabview.o(i.lv_tabview_add_tab) refers to lv_mem.o(i.lv_mem_alloc) for lv_mem_alloc
    lv_tabview.o(i.lv_tabview_add_tab) refers to strcpy.o(.text) for strcpy
    lv_tabview.o(i.lv_tabview_add_tab) refers to lv_mem.o(i.lv_mem_realloc) for lv_mem_realloc
    lv_tabview.o(i.lv_tabview_add_tab) refers to lv_btnm.o(i.lv_btnm_set_map) for lv_btnm_set_map
    lv_tabview.o(i.lv_tabview_add_tab) refers to lv_btnm.o(i.lv_btnm_set_btn_ctrl) for lv_btnm_set_btn_ctrl
    lv_tabview.o(i.lv_tabview_add_tab) refers to lv_obj.o(i.lv_obj_get_style) for lv_obj_get_style
    lv_tabview.o(i.lv_tabview_add_tab) refers to lv_obj.o(i.lv_obj_set_width) for lv_obj_set_width
    lv_tabview.o(i.lv_tabview_add_tab) refers to lv_obj.o(i.lv_obj_set_x) for lv_obj_set_x
    lv_tabview.o(i.lv_tabview_add_tab) refers to lv_obj.o(i.lv_obj_set_height) for lv_obj_set_height
    lv_tabview.o(i.lv_tabview_add_tab) refers to lv_obj.o(i.lv_obj_set_y) for lv_obj_set_y
    lv_tabview.o(i.lv_tabview_add_tab) refers to lv_tabview.o(i.tabview_realign) for tabview_realign
    lv_tabview.o(i.lv_tabview_add_tab) refers to lv_tabview.o(i.lv_tabview_set_tab_act) for lv_tabview_set_tab_act
    lv_tabview.o(i.lv_tabview_add_tab) refers to lv_style.o(.bss) for lv_style_transp
    lv_tabview.o(i.lv_tabview_add_tab) refers to lv_tabview.o(.data) for .data
    lv_tabview.o(i.lv_tabview_add_tab) refers to lv_tabview.o(i.tabpage_signal) for tabpage_signal
    lv_tabview.o(i.lv_tabview_add_tab) refers to lv_tabview.o(i.tabpage_scrl_signal) for tabpage_scrl_signal
    lv_tabview.o(i.lv_tabview_clean) refers to lv_page.o(i.lv_page_get_scrl) for lv_page_get_scrl
    lv_tabview.o(i.lv_tabview_clean) refers to lv_obj.o(i.lv_obj_clean) for lv_obj_clean
    lv_tabview.o(i.lv_tabview_create) refers to lv_obj.o(i.lv_obj_create) for lv_obj_create
    lv_tabview.o(i.lv_tabview_create) refers to lv_obj.o(i.lv_obj_get_signal_cb) for lv_obj_get_signal_cb
    lv_tabview.o(i.lv_tabview_create) refers to lv_obj.o(i.lv_obj_allocate_ext_attr) for lv_obj_allocate_ext_attr
    lv_tabview.o(i.lv_tabview_create) refers to lv_obj.o(i.lv_obj_set_signal_cb) for lv_obj_set_signal_cb
    lv_tabview.o(i.lv_tabview_create) refers to lv_obj.o(i.lv_obj_get_ext_attr) for lv_obj_get_ext_attr
    lv_tabview.o(i.lv_tabview_create) refers to lv_btnm.o(i.lv_btnm_create) for lv_btnm_create
    lv_tabview.o(i.lv_tabview_create) refers to lv_cont.o(i.lv_cont_create) for lv_cont_create
    lv_tabview.o(i.lv_tabview_create) refers to lv_mem.o(i.lv_mem_alloc) for lv_mem_alloc
    lv_tabview.o(i.lv_tabview_create) refers to lv_btnm.o(i.lv_btnm_set_map) for lv_btnm_set_map
    lv_tabview.o(i.lv_tabview_create) refers to lv_tabview.o(i.lv_tabview_add_tab) for lv_tabview_add_tab
    lv_tabview.o(i.lv_tabview_create) refers to lv_obj.o(i.lv_obj_get_child_back) for lv_obj_get_child_back
    lv_tabview.o(i.lv_tabview_create) refers to lv_obj.o(i.lv_obj_get_parent) for lv_obj_get_parent
    lv_tabview.o(i.lv_tabview_create) refers to lv_obj.o(i.lv_obj_get_height_fit) for lv_obj_get_height_fit
    lv_tabview.o(i.lv_tabview_create) refers to lv_obj.o(i.lv_obj_get_width_fit) for lv_obj_get_width_fit
    lv_tabview.o(i.lv_tabview_create) refers to lv_obj.o(i.lv_obj_set_size) for lv_obj_set_size
    lv_tabview.o(i.lv_tabview_create) refers to lv_obj.o(i.lv_obj_set_height) for lv_obj_set_height
    lv_tabview.o(i.lv_tabview_create) refers to lv_obj.o(i.lv_obj_set_event_cb) for lv_obj_set_event_cb
    lv_tabview.o(i.lv_tabview_create) refers to lv_obj.o(i.lv_obj_set_width) for lv_obj_set_width
    lv_tabview.o(i.lv_tabview_create) refers to lv_obj.o(i.lv_obj_align) for lv_obj_align
    lv_tabview.o(i.lv_tabview_create) refers to lv_obj.o(i.lv_obj_set_click) for lv_obj_set_click
    lv_tabview.o(i.lv_tabview_create) refers to lv_cont.o(i.lv_cont_set_fit4) for lv_cont_set_fit4
    lv_tabview.o(i.lv_tabview_create) refers to lv_cont.o(i.lv_cont_set_layout) for lv_cont_set_layout
    lv_tabview.o(i.lv_tabview_create) refers to lv_obj.o(i.lv_obj_set_style) for lv_obj_set_style
    lv_tabview.o(i.lv_tabview_create) refers to lv_obj.o(i.lv_obj_get_height) for lv_obj_get_height
    lv_tabview.o(i.lv_tabview_create) refers to lv_theme.o(i.lv_theme_get_current) for lv_theme_get_current
    lv_tabview.o(i.lv_tabview_create) refers to lv_tabview.o(i.lv_tabview_set_style) for lv_tabview_set_style
    lv_tabview.o(i.lv_tabview_create) refers to lv_page.o(i.lv_page_get_style) for lv_page_get_style
    lv_tabview.o(i.lv_tabview_create) refers to lv_page.o(i.lv_page_set_style) for lv_page_set_style
    lv_tabview.o(i.lv_tabview_create) refers to lv_obj.o(i.lv_obj_refresh_style) for lv_obj_refresh_style
    lv_tabview.o(i.lv_tabview_create) refers to lv_tabview.o(.data) for .data
    lv_tabview.o(i.lv_tabview_create) refers to lv_tabview.o(i.lv_tabview_signal) for lv_tabview_signal
    lv_tabview.o(i.lv_tabview_create) refers to lv_tabview.o(i.tab_btnm_event_cb) for tab_btnm_event_cb
    lv_tabview.o(i.lv_tabview_create) refers to lv_style.o(.bss) for lv_style_transp_tight
    lv_tabview.o(i.lv_tabview_get_anim_time) refers to lv_obj.o(i.lv_obj_get_ext_attr) for lv_obj_get_ext_attr
    lv_tabview.o(i.lv_tabview_get_btns_hidden) refers to lv_obj.o(i.lv_obj_get_ext_attr) for lv_obj_get_ext_attr
    lv_tabview.o(i.lv_tabview_get_btns_pos) refers to lv_obj.o(i.lv_obj_get_ext_attr) for lv_obj_get_ext_attr
    lv_tabview.o(i.lv_tabview_get_sliding) refers to lv_obj.o(i.lv_obj_get_ext_attr) for lv_obj_get_ext_attr
    lv_tabview.o(i.lv_tabview_get_style) refers to lv_obj.o(i.lv_obj_get_ext_attr) for lv_obj_get_ext_attr
    lv_tabview.o(i.lv_tabview_get_style) refers to lv_obj.o(i.lv_obj_get_style) for lv_obj_get_style
    lv_tabview.o(i.lv_tabview_get_style) refers to lv_btnm.o(i.lv_btnm_get_style) for lv_btnm_get_style
    lv_tabview.o(i.lv_tabview_get_tab) refers to lv_obj.o(i.lv_obj_get_ext_attr) for lv_obj_get_ext_attr
    lv_tabview.o(i.lv_tabview_get_tab) refers to lv_obj.o(i.lv_obj_get_child_back) for lv_obj_get_child_back
    lv_tabview.o(i.lv_tabview_get_tab_act) refers to lv_obj.o(i.lv_obj_get_ext_attr) for lv_obj_get_ext_attr
    lv_tabview.o(i.lv_tabview_get_tab_count) refers to lv_obj.o(i.lv_obj_get_ext_attr) for lv_obj_get_ext_attr
    lv_tabview.o(i.lv_tabview_set_anim_time) refers to lv_obj.o(i.lv_obj_get_ext_attr) for lv_obj_get_ext_attr
    lv_tabview.o(i.lv_tabview_set_btns_hidden) refers to lv_obj.o(i.lv_obj_get_ext_attr) for lv_obj_get_ext_attr
    lv_tabview.o(i.lv_tabview_set_btns_hidden) refers to lv_tabview.o(i.tabview_realign) for tabview_realign
    lv_tabview.o(i.lv_tabview_set_btns_pos) refers to lv_obj.o(i.lv_obj_get_ext_attr) for lv_obj_get_ext_attr
    lv_tabview.o(i.lv_tabview_set_btns_pos) refers to lv_tabview.o(i.tabview_realign) for tabview_realign
    lv_tabview.o(i.lv_tabview_set_sliding) refers to lv_obj.o(i.lv_obj_get_ext_attr) for lv_obj_get_ext_attr
    lv_tabview.o(i.lv_tabview_set_style) refers to lv_obj.o(i.lv_obj_get_ext_attr) for lv_obj_get_ext_attr
    lv_tabview.o(i.lv_tabview_set_style) refers to lv_obj.o(i.lv_obj_set_style) for lv_obj_set_style
    lv_tabview.o(i.lv_tabview_set_style) refers to lv_btnm.o(i.lv_btnm_set_style) for lv_btnm_set_style
    lv_tabview.o(i.lv_tabview_set_style) refers to lv_tabview.o(i.tabview_realign) for tabview_realign
    lv_tabview.o(i.lv_tabview_set_style) refers to lv_obj.o(i.lv_obj_set_height) for lv_obj_set_height
    lv_tabview.o(i.lv_tabview_set_style) refers to lv_obj.o(i.lv_obj_set_width) for lv_obj_set_width
    lv_tabview.o(i.lv_tabview_set_tab_act) refers to lv_obj.o(i.lv_obj_get_ext_attr) for lv_obj_get_ext_attr
    lv_tabview.o(i.lv_tabview_set_tab_act) refers to lv_obj.o(i.lv_obj_get_style) for lv_obj_get_style
    lv_tabview.o(i.lv_tabview_set_tab_act) refers to lv_btnm.o(i.lv_btnm_clear_btn_ctrl) for lv_btnm_clear_btn_ctrl
    lv_tabview.o(i.lv_tabview_set_tab_act) refers to lv_obj.o(i.lv_obj_get_width) for lv_obj_get_width
    lv_tabview.o(i.lv_tabview_set_tab_act) refers to lv_obj.o(i.lv_obj_get_x) for lv_obj_get_x
    lv_tabview.o(i.lv_tabview_set_tab_act) refers to lv_anim.o(i.lv_anim_create) for lv_anim_create
    lv_tabview.o(i.lv_tabview_set_tab_act) refers to lv_obj.o(i.lv_obj_set_x) for lv_obj_set_x
    lv_tabview.o(i.lv_tabview_set_tab_act) refers to lv_obj.o(i.lv_obj_get_height) for lv_obj_get_height
    lv_tabview.o(i.lv_tabview_set_tab_act) refers to lv_obj.o(i.lv_obj_set_y) for lv_obj_set_y
    lv_tabview.o(i.lv_tabview_set_tab_act) refers to lv_obj.o(i.lv_obj_get_y) for lv_obj_get_y
    lv_tabview.o(i.lv_tabview_set_tab_act) refers to lv_btnm.o(i.lv_btnm_set_btn_ctrl) for lv_btnm_set_btn_ctrl
    lv_tabview.o(i.lv_tabview_set_tab_act) refers to lv_anim.o(i.lv_anim_path_linear) for lv_anim_path_linear
    lv_tabview.o(i.lv_tabview_signal) refers to lv_obj.o(i.lv_obj_get_ext_attr) for lv_obj_get_ext_attr
    lv_tabview.o(i.lv_tabview_signal) refers to lv_mem.o(i.lv_mem_free) for lv_mem_free
    lv_tabview.o(i.lv_tabview_signal) refers to lv_obj.o(i.lv_obj_get_width) for lv_obj_get_width
    lv_tabview.o(i.lv_tabview_signal) refers to lv_obj.o(i.lv_obj_get_height) for lv_obj_get_height
    lv_tabview.o(i.lv_tabview_signal) refers to lv_tabview.o(i.tabview_realign) for tabview_realign
    lv_tabview.o(i.lv_tabview_signal) refers to lv_indev.o(i.lv_indev_get_act) for lv_indev_get_act
    lv_tabview.o(i.lv_tabview_signal) refers to lv_indev.o(i.lv_indev_get_type) for lv_indev_get_type
    lv_tabview.o(i.lv_tabview_signal) refers to lv_obj.o(i.lv_obj_get_group) for lv_obj_get_group
    lv_tabview.o(i.lv_tabview_signal) refers to lv_group.o(i.lv_group_get_editing) for lv_group_get_editing
    lv_tabview.o(i.lv_tabview_signal) refers to lv_obj.o(i.lv_event_get_data) for lv_event_get_data
    lv_tabview.o(i.lv_tabview_signal) refers to lv_obj.o(i.lv_event_send) for lv_event_send
    lv_tabview.o(i.lv_tabview_signal) refers to lv_obj.o(i.lv_obj_invalidate) for lv_obj_invalidate
    lv_tabview.o(i.lv_tabview_signal) refers to lv_tabview.o(.data) for .data
    lv_tabview.o(i.tab_btnm_event_cb) refers to lv_btnm.o(i.lv_btnm_get_active_btn) for lv_btnm_get_active_btn
    lv_tabview.o(i.tab_btnm_event_cb) refers to lv_btnm.o(i.lv_btnm_clear_btn_ctrl_all) for lv_btnm_clear_btn_ctrl_all
    lv_tabview.o(i.tab_btnm_event_cb) refers to lv_btnm.o(i.lv_btnm_set_btn_ctrl) for lv_btnm_set_btn_ctrl
    lv_tabview.o(i.tab_btnm_event_cb) refers to lv_obj.o(i.lv_obj_get_parent) for lv_obj_get_parent
    lv_tabview.o(i.tab_btnm_event_cb) refers to lv_obj.o(i.lv_obj_get_ext_attr) for lv_obj_get_ext_attr
    lv_tabview.o(i.tab_btnm_event_cb) refers to lv_tabview.o(i.lv_tabview_set_tab_act) for lv_tabview_set_tab_act
    lv_tabview.o(i.tab_btnm_event_cb) refers to lv_obj.o(i.lv_event_send) for lv_event_send
    lv_tabview.o(i.tabpage_press_lost_handler) refers to lv_obj.o(i.lv_obj_get_ext_attr) for lv_obj_get_ext_attr
    lv_tabview.o(i.tabpage_press_lost_handler) refers to lv_page.o(i.lv_page_get_scrl) for lv_page_get_scrl
    lv_tabview.o(i.tabpage_press_lost_handler) refers to lv_obj.o(i.lv_obj_set_drag) for lv_obj_set_drag
    lv_tabview.o(i.tabpage_press_lost_handler) refers to lv_indev.o(i.lv_indev_get_act) for lv_indev_get_act
    lv_tabview.o(i.tabpage_press_lost_handler) refers to lv_indev.o(i.lv_indev_get_point) for lv_indev_get_point
    lv_tabview.o(i.tabpage_press_lost_handler) refers to lv_indev.o(i.lv_indev_get_vect) for lv_indev_get_vect
    lv_tabview.o(i.tabpage_press_lost_handler) refers to lv_obj.o(i.lv_obj_get_width) for lv_obj_get_width
    lv_tabview.o(i.tabpage_press_lost_handler) refers to lv_tabview.o(i.lv_tabview_set_tab_act) for lv_tabview_set_tab_act
    lv_tabview.o(i.tabpage_press_lost_handler) refers to lv_obj.o(i.lv_event_send) for lv_event_send
    lv_tabview.o(i.tabpage_pressing_handler) refers to lv_obj.o(i.lv_obj_get_ext_attr) for lv_obj_get_ext_attr
    lv_tabview.o(i.tabpage_pressing_handler) refers to lv_indev.o(i.lv_indev_get_act) for lv_indev_get_act
    lv_tabview.o(i.tabpage_pressing_handler) refers to lv_indev.o(i.lv_indev_get_point) for lv_indev_get_point
    lv_tabview.o(i.tabpage_pressing_handler) refers to lv_page.o(i.lv_page_on_edge) for lv_page_on_edge
    lv_tabview.o(i.tabpage_pressing_handler) refers to lv_page.o(i.lv_page_get_scrl) for lv_page_get_scrl
    lv_tabview.o(i.tabpage_pressing_handler) refers to lv_obj.o(i.lv_obj_set_drag) for lv_obj_set_drag
    lv_tabview.o(i.tabpage_pressing_handler) refers to lv_obj.o(i.lv_obj_get_x) for lv_obj_get_x
    lv_tabview.o(i.tabpage_pressing_handler) refers to lv_obj.o(i.lv_obj_set_x) for lv_obj_set_x
    lv_tabview.o(i.tabpage_pressing_handler) refers to lv_obj.o(i.lv_obj_get_style) for lv_obj_get_style
    lv_tabview.o(i.tabpage_pressing_handler) refers to lv_obj.o(i.lv_obj_get_height) for lv_obj_get_height
    lv_tabview.o(i.tabpage_pressing_handler) refers to lv_obj.o(i.lv_obj_set_y) for lv_obj_set_y
    lv_tabview.o(i.tabpage_pressing_handler) refers to lv_obj.o(i.lv_obj_get_width) for lv_obj_get_width
    lv_tabview.o(i.tabpage_scrl_signal) refers to lv_obj.o(i.lv_obj_get_parent) for lv_obj_get_parent
    lv_tabview.o(i.tabpage_scrl_signal) refers to lv_obj.o(i.lv_obj_get_ext_attr) for lv_obj_get_ext_attr
    lv_tabview.o(i.tabpage_scrl_signal) refers to lv_indev.o(i.lv_indev_get_act) for lv_indev_get_act
    lv_tabview.o(i.tabpage_scrl_signal) refers to lv_indev.o(i.lv_indev_get_point) for lv_indev_get_point
    lv_tabview.o(i.tabpage_scrl_signal) refers to lv_tabview.o(i.tabpage_pressing_handler) for tabpage_pressing_handler
    lv_tabview.o(i.tabpage_scrl_signal) refers to lv_tabview.o(i.tabpage_press_lost_handler) for tabpage_press_lost_handler
    lv_tabview.o(i.tabpage_scrl_signal) refers to lv_tabview.o(.data) for .data
    lv_tabview.o(i.tabpage_signal) refers to lv_obj.o(i.lv_obj_get_parent) for lv_obj_get_parent
    lv_tabview.o(i.tabpage_signal) refers to lv_obj.o(i.lv_obj_get_ext_attr) for lv_obj_get_ext_attr
    lv_tabview.o(i.tabpage_signal) refers to lv_indev.o(i.lv_indev_get_act) for lv_indev_get_act
    lv_tabview.o(i.tabpage_signal) refers to lv_indev.o(i.lv_indev_get_point) for lv_indev_get_point
    lv_tabview.o(i.tabpage_signal) refers to lv_tabview.o(i.tabpage_pressing_handler) for tabpage_pressing_handler
    lv_tabview.o(i.tabpage_signal) refers to lv_tabview.o(i.tabpage_press_lost_handler) for tabpage_press_lost_handler
    lv_tabview.o(i.tabpage_signal) refers to lv_tabview.o(.data) for .data
    lv_tabview.o(i.tabview_realign) refers to lv_obj.o(i.lv_obj_get_ext_attr) for lv_obj_get_ext_attr
    lv_tabview.o(i.tabview_realign) refers to lv_obj.o(i.lv_obj_get_width) for lv_obj_get_width
    lv_tabview.o(i.tabview_realign) refers to lv_obj.o(i.lv_obj_set_width) for lv_obj_set_width
    lv_tabview.o(i.tabview_realign) refers to lv_obj.o(i.lv_obj_set_hidden) for lv_obj_set_hidden
    lv_tabview.o(i.tabview_realign) refers to lv_obj.o(i.lv_obj_get_height) for lv_obj_get_height
    lv_tabview.o(i.tabview_realign) refers to lv_obj.o(i.lv_obj_set_height) for lv_obj_set_height
    lv_tabview.o(i.tabview_realign) refers to lv_obj.o(i.lv_obj_align) for lv_obj_align
    lv_tabview.o(i.tabview_realign) refers to lv_btnm.o(i.lv_btnm_get_style) for lv_btnm_get_style
    lv_tabview.o(i.tabview_realign) refers to lv_font.o(i.lv_font_get_glyph_width) for lv_font_get_glyph_width
    lv_tabview.o(i.tabview_realign) refers to lv_cont.o(i.lv_cont_set_fit4) for lv_cont_set_fit4
    lv_tabview.o(i.tabview_realign) refers to lv_cont.o(i.lv_cont_set_layout) for lv_cont_set_layout
    lv_tabview.o(i.tabview_realign) refers to lv_obj.o(i.lv_obj_get_child) for lv_obj_get_child
    lv_tabview.o(i.tabview_realign) refers to lv_obj.o(i.lv_obj_get_signal_cb) for lv_obj_get_signal_cb
    lv_tabview.o(i.tabview_realign) refers to lv_obj.o(i.lv_obj_set_size) for lv_obj_set_size
    lv_tabview.o(i.tabview_realign) refers to lv_tabview.o(i.lv_tabview_set_tab_act) for lv_tabview_set_tab_act
    lv_tabview.o(i.tabview_realign) refers to lv_tabview.o(i.tabpage_signal) for tabpage_signal
    lv_tabview.o(.data) refers to lv_tabview.o(.conststring) for .conststring
    lv_tileview.o(i.lv_tileview_add_element) refers to lv_obj.o(i.lv_obj_set_drag_parent) for lv_obj_set_drag_parent
    lv_tileview.o(i.lv_tileview_add_element) refers to lv_obj.o(i.lv_obj_get_ext_attr) for lv_obj_get_ext_attr
    lv_tileview.o(i.lv_tileview_add_element) refers to lv_tileview.o(i.lv_tileview_set_tile_act) for lv_tileview_set_tile_act
    lv_tileview.o(i.lv_tileview_create) refers to lv_page.o(i.lv_page_create) for lv_page_create
    lv_tileview.o(i.lv_tileview_create) refers to lv_obj.o(i.lv_obj_allocate_ext_attr) for lv_obj_allocate_ext_attr
    lv_tileview.o(i.lv_tileview_create) refers to lv_obj.o(i.lv_obj_get_signal_cb) for lv_obj_get_signal_cb
    lv_tileview.o(i.lv_tileview_create) refers to lv_page.o(i.lv_page_get_scrl) for lv_page_get_scrl
    lv_tileview.o(i.lv_tileview_create) refers to lv_obj.o(i.lv_obj_get_design_cb) for lv_obj_get_design_cb
    lv_tileview.o(i.lv_tileview_create) refers to lv_obj.o(i.lv_obj_set_signal_cb) for lv_obj_set_signal_cb
    lv_tileview.o(i.lv_tileview_create) refers to lv_obj.o(i.lv_obj_get_ext_attr) for lv_obj_get_ext_attr
    lv_tileview.o(i.lv_tileview_create) refers to lv_obj.o(i.lv_obj_refresh_style) for lv_obj_refresh_style
    lv_tileview.o(i.lv_tileview_create) refers to lv_obj.o(i.lv_obj_get_parent) for lv_obj_get_parent
    lv_tileview.o(i.lv_tileview_create) refers to lv_obj.o(i.lv_obj_get_height_fit) for lv_obj_get_height_fit
    lv_tileview.o(i.lv_tileview_create) refers to lv_obj.o(i.lv_obj_get_width_fit) for lv_obj_get_width_fit
    lv_tileview.o(i.lv_tileview_create) refers to lv_obj.o(i.lv_obj_set_size) for lv_obj_set_size
    lv_tileview.o(i.lv_tileview_create) refers to lv_obj.o(i.lv_obj_set_drag_throw) for lv_obj_set_drag_throw
    lv_tileview.o(i.lv_tileview_create) refers to lv_cont.o(i.lv_cont_set_fit4) for lv_cont_set_fit4
    lv_tileview.o(i.lv_tileview_create) refers to lv_obj.o(i.lv_obj_set_event_cb) for lv_obj_set_event_cb
    lv_tileview.o(i.lv_tileview_create) refers to lv_theme.o(i.lv_theme_get_current) for lv_theme_get_current
    lv_tileview.o(i.lv_tileview_create) refers to lv_page.o(i.lv_page_set_style) for lv_page_set_style
    lv_tileview.o(i.lv_tileview_create) refers to lv_tileview.o(.data) for .data
    lv_tileview.o(i.lv_tileview_create) refers to lv_tileview.o(i.lv_tileview_signal) for lv_tileview_signal
    lv_tileview.o(i.lv_tileview_create) refers to lv_tileview.o(i.lv_tileview_scrl_signal) for lv_tileview_scrl_signal
    lv_tileview.o(i.lv_tileview_create) refers to lv_tileview.o(i.tileview_scrl_event_cb) for tileview_scrl_event_cb
    lv_tileview.o(i.lv_tileview_create) refers to lv_style.o(.bss) for lv_style_transp_tight
    lv_tileview.o(i.lv_tileview_get_style) refers to lv_obj.o(i.lv_obj_get_style) for lv_obj_get_style
    lv_tileview.o(i.lv_tileview_scrl_signal) refers to lv_obj.o(i.lv_obj_get_parent) for lv_obj_get_parent
    lv_tileview.o(i.lv_tileview_scrl_signal) refers to lv_obj.o(i.lv_obj_get_style) for lv_obj_get_style
    lv_tileview.o(i.lv_tileview_scrl_signal) refers to lv_indev.o(i.lv_indev_get_act) for lv_indev_get_act
    lv_tileview.o(i.lv_tileview_scrl_signal) refers to lv_obj.o(i.lv_obj_get_ext_attr) for lv_obj_get_ext_attr
    lv_tileview.o(i.lv_tileview_scrl_signal) refers to lv_obj.o(i.lv_obj_get_x) for lv_obj_get_x
    lv_tileview.o(i.lv_tileview_scrl_signal) refers to lv_obj.o(i.lv_obj_get_y) for lv_obj_get_y
    lv_tileview.o(i.lv_tileview_scrl_signal) refers to lv_obj.o(i.lv_obj_get_height) for lv_obj_get_height
    lv_tileview.o(i.lv_tileview_scrl_signal) refers to lv_obj.o(i.lv_obj_get_width) for lv_obj_get_width
    lv_tileview.o(i.lv_tileview_scrl_signal) refers to lv_page.o(i.lv_page_start_edge_flash) for lv_page_start_edge_flash
    lv_tileview.o(i.lv_tileview_scrl_signal) refers to lv_obj.o(i.lv_obj_set_y) for lv_obj_set_y
    lv_tileview.o(i.lv_tileview_scrl_signal) refers to lv_obj.o(i.lv_obj_set_x) for lv_obj_set_x
    lv_tileview.o(i.lv_tileview_scrl_signal) refers to lv_tileview.o(.data) for .data
    lv_tileview.o(i.lv_tileview_set_style) refers to lv_obj.o(i.lv_obj_set_style) for lv_obj_set_style
    lv_tileview.o(i.lv_tileview_set_tile_act) refers to lv_obj.o(i.lv_obj_get_ext_attr) for lv_obj_get_ext_attr
    lv_tileview.o(i.lv_tileview_set_tile_act) refers to lv_obj.o(i.lv_obj_get_width) for lv_obj_get_width
    lv_tileview.o(i.lv_tileview_set_tile_act) refers to lv_obj.o(i.lv_obj_get_height) for lv_obj_get_height
    lv_tileview.o(i.lv_tileview_set_tile_act) refers to lv_page.o(i.lv_page_get_scrl) for lv_page_get_scrl
    lv_tileview.o(i.lv_tileview_set_tile_act) refers to lv_obj.o(i.lv_obj_get_x) for lv_obj_get_x
    lv_tileview.o(i.lv_tileview_set_tile_act) refers to lv_obj.o(i.lv_obj_get_y) for lv_obj_get_y
    lv_tileview.o(i.lv_tileview_set_tile_act) refers to lv_anim.o(i.lv_anim_create) for lv_anim_create
    lv_tileview.o(i.lv_tileview_set_tile_act) refers to lv_obj.o(i.lv_obj_set_pos) for lv_obj_set_pos
    lv_tileview.o(i.lv_tileview_set_tile_act) refers to lv_obj.o(i.lv_event_send) for lv_event_send
    lv_tileview.o(i.lv_tileview_set_tile_act) refers to lv_obj.o(i.lv_obj_set_x) for lv_obj_set_x
    lv_tileview.o(i.lv_tileview_set_tile_act) refers to lv_anim.o(i.lv_anim_path_linear) for lv_anim_path_linear
    lv_tileview.o(i.lv_tileview_set_tile_act) refers to lv_obj.o(i.lv_obj_set_y) for lv_obj_set_y
    lv_tileview.o(i.lv_tileview_set_valid_positions) refers to lv_obj.o(i.lv_obj_get_ext_attr) for lv_obj_get_ext_attr
    lv_tileview.o(i.lv_tileview_set_valid_positions) refers to lv_tileview.o(i.lv_tileview_set_tile_act) for lv_tileview_set_tile_act
    lv_tileview.o(i.lv_tileview_signal) refers to lv_tileview.o(.data) for .data
    lv_tileview.o(i.tileview_scrl_event_cb) refers to lv_obj.o(i.lv_obj_get_parent) for lv_obj_get_parent
    lv_tileview.o(i.tileview_scrl_event_cb) refers to lv_indev.o(i.lv_indev_get_act) for lv_indev_get_act
    lv_tileview.o(i.tileview_scrl_event_cb) refers to lv_obj.o(i.lv_obj_get_ext_attr) for lv_obj_get_ext_attr
    lv_tileview.o(i.tileview_scrl_event_cb) refers to lv_indev.o(i.lv_indev_is_dragging) for lv_indev_is_dragging
    lv_tileview.o(i.tileview_scrl_event_cb) refers to lv_indev.o(i.lv_indev_get_point) for lv_indev_get_point
    lv_tileview.o(i.tileview_scrl_event_cb) refers to lv_page.o(i.lv_page_get_scrl) for lv_page_get_scrl
    lv_tileview.o(i.tileview_scrl_event_cb) refers to lv_obj.o(i.lv_obj_get_width) for lv_obj_get_width
    lv_tileview.o(i.tileview_scrl_event_cb) refers to lv_obj.o(i.lv_obj_get_height) for lv_obj_get_height
    lv_tileview.o(i.tileview_scrl_event_cb) refers to lv_indev.o(i.lv_indev_get_vect) for lv_indev_get_vect
    lv_tileview.o(i.tileview_scrl_event_cb) refers to lv_tileview.o(i.lv_tileview_set_tile_act) for lv_tileview_set_tile_act
    lv_win.o(i.lv_win_add_btn) refers to lv_obj.o(i.lv_obj_get_ext_attr) for lv_obj_get_ext_attr
    lv_win.o(i.lv_win_add_btn) refers to lv_btn.o(i.lv_btn_create) for lv_btn_create
    lv_win.o(i.lv_win_add_btn) refers to lv_btn.o(i.lv_btn_set_style) for lv_btn_set_style
    lv_win.o(i.lv_win_add_btn) refers to lv_obj.o(i.lv_obj_set_size) for lv_obj_set_size
    lv_win.o(i.lv_win_add_btn) refers to lv_img.o(i.lv_img_create) for lv_img_create
    lv_win.o(i.lv_win_add_btn) refers to lv_obj.o(i.lv_obj_set_click) for lv_obj_set_click
    lv_win.o(i.lv_win_add_btn) refers to lv_img.o(i.lv_img_set_src) for lv_img_set_src
    lv_win.o(i.lv_win_add_btn) refers to lv_win.o(i.lv_win_realign) for lv_win_realign
    lv_win.o(i.lv_win_clean) refers to lv_page.o(i.lv_page_get_scrl) for lv_page_get_scrl
    lv_win.o(i.lv_win_clean) refers to lv_obj.o(i.lv_obj_clean) for lv_obj_clean
    lv_win.o(i.lv_win_close_event_cb) refers to lv_obj.o(i.lv_obj_get_parent) for lv_obj_get_parent
    lv_win.o(i.lv_win_close_event_cb) refers to lv_obj.o(i.lv_obj_del) for lv_obj_del
    lv_win.o(i.lv_win_create) refers to lv_obj.o(i.lv_obj_create) for lv_obj_create
    lv_win.o(i.lv_win_create) refers to lv_obj.o(i.lv_obj_get_signal_cb) for lv_obj_get_signal_cb
    lv_win.o(i.lv_win_create) refers to lv_obj.o(i.lv_obj_allocate_ext_attr) for lv_obj_allocate_ext_attr
    lv_win.o(i.lv_win_create) refers to lv_obj.o(i.lv_obj_get_ext_attr) for lv_obj_get_ext_attr
    lv_win.o(i.lv_win_create) refers to lv_label.o(i.lv_label_create) for lv_label_create
    lv_win.o(i.lv_win_create) refers to lv_page.o(i.lv_page_create) for lv_page_create
    lv_win.o(i.lv_win_create) refers to lv_obj.o(i.lv_obj_get_child_back) for lv_obj_get_child_back
    lv_win.o(i.lv_win_create) refers to lv_btn.o(i.lv_btn_create) for lv_btn_create
    lv_win.o(i.lv_win_create) refers to lv_obj.o(i.lv_obj_get_child) for lv_obj_get_child
    lv_win.o(i.lv_win_create) refers to lv_img.o(i.lv_img_create) for lv_img_create
    lv_win.o(i.lv_win_create) refers to lv_obj.o(i.lv_obj_set_signal_cb) for lv_obj_set_signal_cb
    lv_win.o(i.lv_win_create) refers to lv_obj.o(i.lv_obj_refresh_style) for lv_obj_refresh_style
    lv_win.o(i.lv_win_create) refers to lv_win.o(i.lv_win_realign) for lv_win_realign
    lv_win.o(i.lv_win_create) refers to lv_obj.o(i.lv_obj_get_parent) for lv_obj_get_parent
    lv_win.o(i.lv_win_create) refers to lv_obj.o(i.lv_obj_get_height_fit) for lv_obj_get_height_fit
    lv_win.o(i.lv_win_create) refers to lv_obj.o(i.lv_obj_get_width_fit) for lv_obj_get_width_fit
    lv_win.o(i.lv_win_create) refers to lv_obj.o(i.lv_obj_set_size) for lv_obj_set_size
    lv_win.o(i.lv_win_create) refers to lv_obj.o(i.lv_obj_set_pos) for lv_obj_set_pos
    lv_win.o(i.lv_win_create) refers to lv_obj.o(i.lv_obj_set_style) for lv_obj_set_style
    lv_win.o(i.lv_win_create) refers to lv_obj.o(i.lv_obj_set_protect) for lv_obj_set_protect
    lv_win.o(i.lv_win_create) refers to lv_page.o(i.lv_page_set_sb_mode) for lv_page_set_sb_mode
    lv_win.o(i.lv_win_create) refers to lv_page.o(i.lv_page_set_style) for lv_page_set_style
    lv_win.o(i.lv_win_create) refers to lv_obj.o(i.lv_obj_set_parent) for lv_obj_set_parent
    lv_win.o(i.lv_win_create) refers to lv_label.o(i.lv_label_set_text) for lv_label_set_text
    lv_win.o(i.lv_win_create) refers to lv_theme.o(i.lv_theme_get_current) for lv_theme_get_current
    lv_win.o(i.lv_win_create) refers to lv_win.o(i.lv_win_set_style) for lv_win_set_style
    lv_win.o(i.lv_win_create) refers to lv_win.o(.data) for .data
    lv_win.o(i.lv_win_create) refers to lv_style.o(.bss) for lv_style_btn_rel
    lv_win.o(i.lv_win_create) refers to lv_win.o(i.lv_win_signal) for lv_win_signal
    lv_win.o(i.lv_win_focus) refers to lv_obj.o(i.lv_obj_get_ext_attr) for lv_obj_get_ext_attr
    lv_win.o(i.lv_win_focus) refers to lv_page.o(i.lv_page_focus) for lv_page_focus
    lv_win.o(i.lv_win_get_anim_time) refers to lv_obj.o(i.lv_obj_get_ext_attr) for lv_obj_get_ext_attr
    lv_win.o(i.lv_win_get_anim_time) refers to lv_page.o(i.lv_page_get_anim_time) for lv_page_get_anim_time
    lv_win.o(i.lv_win_get_btn_size) refers to lv_obj.o(i.lv_obj_get_ext_attr) for lv_obj_get_ext_attr
    lv_win.o(i.lv_win_get_content) refers to lv_obj.o(i.lv_obj_get_ext_attr) for lv_obj_get_ext_attr
    lv_win.o(i.lv_win_get_from_btn) refers to lv_obj.o(i.lv_obj_get_parent) for lv_obj_get_parent
    lv_win.o(i.lv_win_get_layout) refers to lv_obj.o(i.lv_obj_get_ext_attr) for lv_obj_get_ext_attr
    lv_win.o(i.lv_win_get_layout) refers to lv_page.o(i.lv_page_get_scrl) for lv_page_get_scrl
    lv_win.o(i.lv_win_get_layout) refers to lv_cont.o(i.lv_cont_get_layout) for lv_cont_get_layout
    lv_win.o(i.lv_win_get_sb_mode) refers to lv_obj.o(i.lv_obj_get_ext_attr) for lv_obj_get_ext_attr
    lv_win.o(i.lv_win_get_sb_mode) refers to lv_page.o(i.lv_page_get_sb_mode) for lv_page_get_sb_mode
    lv_win.o(i.lv_win_get_style) refers to lv_obj.o(i.lv_obj_get_ext_attr) for lv_obj_get_ext_attr
    lv_win.o(i.lv_win_get_style) refers to lv_page.o(i.lv_page_get_style) for lv_page_get_style
    lv_win.o(i.lv_win_get_style) refers to lv_obj.o(i.lv_obj_get_style) for lv_obj_get_style
    lv_win.o(i.lv_win_get_title) refers to lv_obj.o(i.lv_obj_get_ext_attr) for lv_obj_get_ext_attr
    lv_win.o(i.lv_win_get_title) refers to lv_label.o(i.lv_label_get_text) for lv_label_get_text
    lv_win.o(i.lv_win_get_width) refers to lv_obj.o(i.lv_obj_get_ext_attr) for lv_obj_get_ext_attr
    lv_win.o(i.lv_win_get_width) refers to lv_page.o(i.lv_page_get_scrl) for lv_page_get_scrl
    lv_win.o(i.lv_win_get_width) refers to lv_obj.o(i.lv_obj_get_style) for lv_obj_get_style
    lv_win.o(i.lv_win_get_width) refers to lv_obj.o(i.lv_obj_get_width) for lv_obj_get_width
    lv_win.o(i.lv_win_realign) refers to lv_obj.o(i.lv_obj_get_ext_attr) for lv_obj_get_ext_attr
    lv_win.o(i.lv_win_realign) refers to lv_obj.o(i.lv_obj_get_style) for lv_obj_get_style
    lv_win.o(i.lv_win_realign) refers to lv_obj.o(i.lv_obj_get_width) for lv_obj_get_width
    lv_win.o(i.lv_win_realign) refers to lv_obj.o(i.lv_obj_set_size) for lv_obj_set_size
    lv_win.o(i.lv_win_realign) refers to lv_obj.o(i.lv_obj_get_child_back) for lv_obj_get_child_back
    lv_win.o(i.lv_win_realign) refers to lv_obj.o(i.lv_obj_align) for lv_obj_align
    lv_win.o(i.lv_win_realign) refers to lv_obj.o(i.lv_obj_set_pos) for lv_obj_set_pos
    lv_win.o(i.lv_win_realign) refers to lv_obj.o(i.lv_obj_get_height) for lv_obj_get_height
    lv_win.o(i.lv_win_set_anim_time) refers to lv_obj.o(i.lv_obj_get_ext_attr) for lv_obj_get_ext_attr
    lv_win.o(i.lv_win_set_anim_time) refers to lv_page.o(i.lv_page_set_anim_time) for lv_page_set_anim_time
    lv_win.o(i.lv_win_set_btn_size) refers to lv_obj.o(i.lv_obj_get_ext_attr) for lv_obj_get_ext_attr
    lv_win.o(i.lv_win_set_btn_size) refers to lv_win.o(i.lv_win_realign) for lv_win_realign
    lv_win.o(i.lv_win_set_drag) refers to lv_obj.o(i.lv_obj_get_ext_attr) for lv_obj_get_ext_attr
    lv_win.o(i.lv_win_set_drag) refers to lv_obj.o(i.lv_obj_set_drag_parent) for lv_obj_set_drag_parent
    lv_win.o(i.lv_win_set_drag) refers to lv_obj.o(i.lv_obj_set_drag) for lv_obj_set_drag
    lv_win.o(i.lv_win_set_layout) refers to lv_obj.o(i.lv_obj_get_ext_attr) for lv_obj_get_ext_attr
    lv_win.o(i.lv_win_set_layout) refers to lv_page.o(i.lv_page_get_scrl) for lv_page_get_scrl
    lv_win.o(i.lv_win_set_layout) refers to lv_cont.o(i.lv_cont_set_layout) for lv_cont_set_layout
    lv_win.o(i.lv_win_set_sb_mode) refers to lv_obj.o(i.lv_obj_get_ext_attr) for lv_obj_get_ext_attr
    lv_win.o(i.lv_win_set_sb_mode) refers to lv_page.o(i.lv_page_set_sb_mode) for lv_page_set_sb_mode
    lv_win.o(i.lv_win_set_style) refers to lv_obj.o(i.lv_obj_get_ext_attr) for lv_obj_get_ext_attr
    lv_win.o(i.lv_win_set_style) refers to lv_obj.o(i.lv_obj_set_style) for lv_obj_set_style
    lv_win.o(i.lv_win_set_style) refers to lv_win.o(i.lv_win_realign) for lv_win_realign
    lv_win.o(i.lv_win_set_style) refers to lv_page.o(i.lv_page_set_style) for lv_page_set_style
    lv_win.o(i.lv_win_set_style) refers to lv_obj.o(i.lv_obj_get_child_back) for lv_obj_get_child_back
    lv_win.o(i.lv_win_set_style) refers to lv_btn.o(i.lv_btn_set_style) for lv_btn_set_style
    lv_win.o(i.lv_win_set_title) refers to lv_obj.o(i.lv_obj_get_ext_attr) for lv_obj_get_ext_attr
    lv_win.o(i.lv_win_set_title) refers to lv_label.o(i.lv_label_set_text) for lv_label_set_text
    lv_win.o(i.lv_win_set_title) refers to lv_win.o(i.lv_win_realign) for lv_win_realign
    lv_win.o(i.lv_win_signal) refers to lv_obj.o(i.lv_obj_get_ext_attr) for lv_obj_get_ext_attr
    lv_win.o(i.lv_win_signal) refers to lv_obj.o(i.lv_obj_get_child) for lv_obj_get_child
    lv_win.o(i.lv_win_signal) refers to lv_obj.o(i.lv_obj_is_protected) for lv_obj_is_protected
    lv_win.o(i.lv_win_signal) refers to lv_obj.o(i.lv_obj_set_parent) for lv_obj_set_parent
    lv_win.o(i.lv_win_signal) refers to lv_obj.o(i.lv_obj_get_width) for lv_obj_get_width
    lv_win.o(i.lv_win_signal) refers to lv_obj.o(i.lv_obj_get_height) for lv_obj_get_height
    lv_win.o(i.lv_win_signal) refers to lv_win.o(i.lv_win_realign) for lv_win_realign
    lv_win.o(i.lv_win_signal) refers to lv_win.o(.data) for .data
    lv_theme.o(i.lv_theme_get_current) refers to lv_theme.o(.data) for .data
    lv_theme.o(i.lv_theme_get_current) refers to lv_theme.o(.bss) for .bss
    lv_theme.o(i.lv_theme_set_current) refers to memmovea.o(.text) for __aeabi_memcpy
    lv_theme.o(i.lv_theme_set_current) refers to lv_obj.o(i.lv_obj_report_style_mod) for lv_obj_report_style_mod
    lv_theme.o(i.lv_theme_set_current) refers to lv_group.o(i.lv_group_report_style_mod) for lv_group_report_style_mod
    lv_theme.o(i.lv_theme_set_current) refers to lv_theme.o(.data) for .data
    lv_theme.o(i.lv_theme_set_current) refers to lv_theme.o(.bss) for .bss
    lv_theme_alien.o(i.basic_init) refers to lv_style.o(i.lv_style_copy) for lv_style_copy
    lv_theme_alien.o(i.basic_init) refers to lv_color.o(i.lv_color_hsv_to_rgb) for lv_color_hsv_to_rgb
    lv_theme_alien.o(i.basic_init) refers to lv_style.o(.bss) for lv_style_plain
    lv_theme_alien.o(i.basic_init) refers to lv_theme_alien.o(.bss) for .bss
    lv_theme_alien.o(i.basic_init) refers to lv_theme_alien.o(.data) for .data
    lv_theme_alien.o(i.lv_theme_alien_init) refers to lv_theme_alien.o(i.basic_init) for basic_init
    lv_theme_alien.o(i.lv_theme_alien_init) refers to lv_style.o(i.lv_style_copy) for lv_style_copy
    lv_theme_alien.o(i.lv_theme_alien_init) refers to lv_color.o(i.lv_color_hsv_to_rgb) for lv_color_hsv_to_rgb
    lv_theme_alien.o(i.lv_theme_alien_init) refers to lv_font_roboto_16.o(.data) for lv_font_roboto_16
    lv_theme_alien.o(i.lv_theme_alien_init) refers to lv_theme_alien.o(.data) for .data
    lv_theme_alien.o(i.lv_theme_alien_init) refers to lv_theme_alien.o(.bss) for .bss
    lv_theme_alien.o(i.lv_theme_alien_init) refers to lv_style.o(.bss) for lv_style_pretty_color
    lv_theme_alien.o(i.lv_theme_alien_init) refers to lv_theme_alien.o(i.style_mod) for style_mod
    lv_theme_alien.o(i.lv_theme_alien_init) refers to lv_theme_alien.o(i.style_mod_edit) for style_mod_edit
    lv_theme_alien.o(i.lv_theme_get_alien) refers to lv_theme_alien.o(.bss) for .bss
    lv_theme_alien.o(i.style_mod) refers to lv_color.o(i.lv_color_hsv_to_rgb) for lv_color_hsv_to_rgb
    lv_theme_alien.o(i.style_mod) refers to lv_theme_alien.o(.data) for .data
    lv_theme_default.o(i.lv_theme_default_init) refers to lv_style.o(i.lv_style_copy) for lv_style_copy
    lv_theme_default.o(i.lv_theme_default_init) refers to lv_theme_default.o(i.lv_color_mix) for lv_color_mix
    lv_theme_default.o(i.lv_theme_default_init) refers to lv_font_roboto_16.o(.data) for lv_font_roboto_16
    lv_theme_default.o(i.lv_theme_default_init) refers to lv_theme_default.o(.data) for .data
    lv_theme_default.o(i.lv_theme_default_init) refers to lv_theme_default.o(.bss) for .bss
    lv_theme_default.o(i.lv_theme_default_init) refers to lv_style.o(.bss) for lv_style_pretty
    lv_theme_default.o(i.lv_theme_default_init) refers to lv_theme_default.o(i.style_mod) for style_mod
    lv_theme_default.o(i.lv_theme_default_init) refers to lv_theme_default.o(i.style_mod_edit) for style_mod_edit
    lv_theme_default.o(i.lv_theme_get_default) refers to lv_theme_default.o(.bss) for .bss
    lv_theme_default.o(i.style_mod) refers to lv_theme_default.o(i.lv_color_mix) for lv_color_mix
    lv_theme_default.o(i.style_mod_edit) refers to lv_theme_default.o(i.lv_color_mix) for lv_color_mix
    lv_theme_material.o(i.lv_theme_get_material) refers to lv_theme_material.o(.bss) for .bss
    lv_theme_material.o(i.lv_theme_material_init) refers to lv_style.o(i.lv_style_copy) for lv_style_copy
    lv_theme_material.o(i.lv_theme_material_init) refers to lv_color.o(i.lv_color_hsv_to_rgb) for lv_color_hsv_to_rgb
    lv_theme_material.o(i.lv_theme_material_init) refers to lv_font_roboto_16.o(.data) for lv_font_roboto_16
    lv_theme_material.o(i.lv_theme_material_init) refers to lv_theme_material.o(.data) for .data
    lv_theme_material.o(i.lv_theme_material_init) refers to lv_theme_material.o(.bss) for .bss
    lv_theme_material.o(i.lv_theme_material_init) refers to lv_style.o(.bss) for lv_style_plain
    lv_theme_material.o(i.lv_theme_material_init) refers to lv_theme_material.o(i.style_mod) for style_mod
    lv_theme_material.o(i.lv_theme_material_init) refers to lv_theme_material.o(i.style_mod_edit) for style_mod_edit
    lv_theme_material.o(i.style_mod) refers to lv_color.o(i.lv_color_hsv_to_rgb) for lv_color_hsv_to_rgb
    lv_theme_material.o(i.style_mod) refers to lv_theme_material.o(i.lv_color_mix) for lv_color_mix
    lv_theme_material.o(i.style_mod) refers to lv_theme_material.o(.data) for .data
    lv_theme_material.o(i.style_mod_edit) refers to lv_theme_material.o(i.lv_color_mix) for lv_color_mix
    lv_theme_mono.o(i.lv_theme_get_mono) refers to lv_theme_mono.o(.bss) for .bss
    lv_theme_mono.o(i.lv_theme_mono_init) refers to lv_style.o(i.lv_style_copy) for lv_style_copy
    lv_theme_mono.o(i.lv_theme_mono_init) refers to lv_font_roboto_16.o(.data) for lv_font_roboto_16
    lv_theme_mono.o(i.lv_theme_mono_init) refers to lv_theme_mono.o(.data) for .data
    lv_theme_mono.o(i.lv_theme_mono_init) refers to lv_theme_mono.o(.bss) for .bss
    lv_theme_mono.o(i.lv_theme_mono_init) refers to lv_style.o(.bss) for lv_style_plain
    lv_theme_mono.o(i.lv_theme_mono_init) refers to lv_theme_mono.o(i.style_mod) for style_mod
    lv_theme_mono.o(i.lv_theme_mono_init) refers to lv_theme_mono.o(i.style_mod_edit) for style_mod_edit
    lv_theme_nemo.o(i.basic_init) refers to lv_style.o(i.lv_style_copy) for lv_style_copy
    lv_theme_nemo.o(i.basic_init) refers to lv_color.o(i.lv_color_hsv_to_rgb) for lv_color_hsv_to_rgb
    lv_theme_nemo.o(i.basic_init) refers to lv_style.o(.bss) for lv_style_plain
    lv_theme_nemo.o(i.basic_init) refers to lv_theme_nemo.o(.bss) for .bss
    lv_theme_nemo.o(i.basic_init) refers to lv_theme_nemo.o(.data) for .data
    lv_theme_nemo.o(i.lv_theme_get_nemo) refers to lv_theme_nemo.o(.bss) for .bss
    lv_theme_nemo.o(i.lv_theme_nemo_init) refers to lv_theme_nemo.o(i.basic_init) for basic_init
    lv_theme_nemo.o(i.lv_theme_nemo_init) refers to lv_style.o(i.lv_style_copy) for lv_style_copy
    lv_theme_nemo.o(i.lv_theme_nemo_init) refers to lv_color.o(i.lv_color_hsv_to_rgb) for lv_color_hsv_to_rgb
    lv_theme_nemo.o(i.lv_theme_nemo_init) refers to lv_font_roboto_16.o(.data) for lv_font_roboto_16
    lv_theme_nemo.o(i.lv_theme_nemo_init) refers to lv_theme_nemo.o(.data) for .data
    lv_theme_nemo.o(i.lv_theme_nemo_init) refers to lv_theme_nemo.o(.bss) for .bss
    lv_theme_nemo.o(i.lv_theme_nemo_init) refers to lv_style.o(.bss) for lv_style_pretty_color
    lv_theme_nemo.o(i.lv_theme_nemo_init) refers to lv_theme_nemo.o(i.style_mod) for style_mod
    lv_theme_nemo.o(i.lv_theme_nemo_init) refers to lv_theme_nemo.o(i.style_mod_edit) for style_mod_edit
    lv_theme_nemo.o(i.style_mod) refers to lv_color.o(i.lv_color_hsv_to_rgb) for lv_color_hsv_to_rgb
    lv_theme_nemo.o(i.style_mod) refers to lv_theme_nemo.o(.data) for .data
    lv_theme_night.o(i.lv_theme_get_night) refers to lv_theme_night.o(.bss) for .bss
    lv_theme_night.o(i.lv_theme_night_init) refers to lv_style.o(i.lv_style_copy) for lv_style_copy
    lv_theme_night.o(i.lv_theme_night_init) refers to lv_color.o(i.lv_color_hsv_to_rgb) for lv_color_hsv_to_rgb
    lv_theme_night.o(i.lv_theme_night_init) refers to lv_font_roboto_16.o(.data) for lv_font_roboto_16
    lv_theme_night.o(i.lv_theme_night_init) refers to lv_theme_night.o(.data) for .data
    lv_theme_night.o(i.lv_theme_night_init) refers to lv_theme_night.o(.bss) for .bss
    lv_theme_night.o(i.lv_theme_night_init) refers to lv_style.o(.bss) for lv_style_pretty
    lv_theme_night.o(i.lv_theme_night_init) refers to lv_theme_night.o(i.style_mod) for style_mod
    lv_theme_night.o(i.lv_theme_night_init) refers to lv_theme_night.o(i.style_mod_edit) for style_mod_edit
    lv_theme_night.o(i.style_mod) refers to lv_color.o(i.lv_color_hsv_to_rgb) for lv_color_hsv_to_rgb
    lv_theme_night.o(i.style_mod) refers to lv_theme_night.o(.data) for .data
    lv_theme_templ.o(i.lv_theme_get_templ) refers to lv_theme_templ.o(.bss) for .bss
    lv_theme_templ.o(i.lv_theme_templ_init) refers to lv_style.o(i.lv_style_copy) for lv_style_copy
    lv_theme_templ.o(i.lv_theme_templ_init) refers to lv_font_roboto_16.o(.data) for lv_font_roboto_16
    lv_theme_templ.o(i.lv_theme_templ_init) refers to lv_theme_templ.o(.data) for .data
    lv_theme_templ.o(i.lv_theme_templ_init) refers to lv_theme_templ.o(.bss) for .bss
    lv_theme_templ.o(i.lv_theme_templ_init) refers to lv_style.o(.bss) for lv_style_pretty
    lv_theme_templ.o(i.lv_theme_templ_init) refers to lv_theme_templ.o(i.style_mod) for style_mod
    lv_theme_templ.o(i.lv_theme_templ_init) refers to lv_theme_templ.o(i.style_mod_edit) for style_mod_edit
    lv_theme_templ.o(i.style_mod) refers to lv_theme_templ.o(i.lv_color_mix) for lv_color_mix
    lv_theme_templ.o(i.style_mod_edit) refers to lv_theme_templ.o(i.lv_color_mix) for lv_color_mix
    lv_theme_zen.o(i.lv_theme_get_zen) refers to lv_theme_zen.o(.bss) for .bss
    lv_theme_zen.o(i.lv_theme_zen_init) refers to lv_style.o(i.lv_style_copy) for lv_style_copy
    lv_theme_zen.o(i.lv_theme_zen_init) refers to lv_color.o(i.lv_color_hsv_to_rgb) for lv_color_hsv_to_rgb
    lv_theme_zen.o(i.lv_theme_zen_init) refers to lv_font_roboto_16.o(.data) for lv_font_roboto_16
    lv_theme_zen.o(i.lv_theme_zen_init) refers to lv_theme_zen.o(.data) for .data
    lv_theme_zen.o(i.lv_theme_zen_init) refers to lv_theme_zen.o(.bss) for .bss
    lv_theme_zen.o(i.lv_theme_zen_init) refers to lv_style.o(.bss) for lv_style_pretty
    lv_theme_zen.o(i.lv_theme_zen_init) refers to lv_theme_zen.o(i.style_mod) for style_mod
    lv_theme_zen.o(i.lv_theme_zen_init) refers to lv_theme_zen.o(i.style_mod_edit) for style_mod_edit
    lv_theme_zen.o(i.style_mod) refers to lv_color.o(i.lv_color_hsv_to_rgb) for lv_color_hsv_to_rgb
    lv_theme_zen.o(i.style_mod) refers to lv_theme_zen.o(.data) for .data
    displaybasic.o(i.HardFault_Handler) refers to displaybasic.o(i._Z16ShowCrashReportsPKc) for ShowCrashReports(const char*)
    displaybasic.o(i.HardFault_Handler) refers to system_stm32f4xx.o(.data) for SystemCoreClock
    displaybasic.o(i._Z12Task_DispalyPv) refers to tft_ili9488.o(i._ZN11TFT_ILI94885beginEv) for TFT_ILI9488::begin()
    displaybasic.o(i._Z12Task_DispalyPv) refers to tft_ili9488.o(i._ZN11TFT_ILI948810fillScreenEt) for TFT_ILI9488::fillScreen(unsigned short)
    displaybasic.o(i._Z12Task_DispalyPv) refers to pwm.o(i.PWM_Init) for PWM_Init
    displaybasic.o(i._Z12Task_DispalyPv) refers to pwm.o(i.pwmWrite) for pwmWrite
    displaybasic.o(i._Z12Task_DispalyPv) refers to lv_user.o(i._Z12lv_user_initv) for lv_user_init()
    displaybasic.o(i._Z12Task_DispalyPv) refers to lv_user_fs.o(i._Z15lv_user_fs_initv) for lv_user_fs_init()
    displaybasic.o(i._Z12Task_DispalyPv) refers to page_luascript.o(i._Z19PageCreat_LuaScriptv) for PageCreat_LuaScript()
    displaybasic.o(i._Z12Task_DispalyPv) refers to lv_task.o(i.lv_task_handler) for lv_task_handler
    displaybasic.o(i._Z12Task_DispalyPv) refers to tasks.o(i.vTaskDelay) for vTaskDelay
    displaybasic.o(i._Z12Task_DispalyPv) refers to displaybasic.o(.bss) for .bss
    displaybasic.o(i._Z12Task_DispalyPv) refers to touch.o(.data) for tp_dev
    displaybasic.o(i._Z16ShowCrashReportsPKc) refers to tft_ili9488.o(i._ZN11TFT_ILI948810fillScreenEt) for TFT_ILI9488::fillScreen(unsigned short)
    displaybasic.o(i._Z16ShowCrashReportsPKc) refers to adafruit_gfx.o(i._ZN12Adafruit_GFX12setTextColorEt) for Adafruit_GFX::setTextColor(unsigned short)
    displaybasic.o(i._Z16ShowCrashReportsPKc) refers to adafruit_gfx.o(i._ZN12Adafruit_GFX7setFontEPK7GFXfont) for Adafruit_GFX::setFont(const GFXfont*)
    displaybasic.o(i._Z16ShowCrashReportsPKc) refers to adafruit_gfx.o(i._ZN12Adafruit_GFX11setTextSizeEh) for Adafruit_GFX::setTextSize(unsigned char)
    displaybasic.o(i._Z16ShowCrashReportsPKc) refers to tft_ili9488.o(i._ZN11TFT_ILI94889setCursorEss) for TFT_ILI9488::setCursor(short, short)
    displaybasic.o(i._Z16ShowCrashReportsPKc) refers to print.o(i._ZN5Print7printlnEPKc) for Print::println(const char*)
    displaybasic.o(i._Z16ShowCrashReportsPKc) refers to adafruit_gfx.o(i._ZNK12Adafruit_GFX6heightEv) for Adafruit_GFX::height() const
    displaybasic.o(i._Z16ShowCrashReportsPKc) refers to print.o(i._ZN5Print5printEPKc) for Print::print(const char*)
    displaybasic.o(i._Z16ShowCrashReportsPKc) refers to print.o(i._ZN5Print6printfEPKcz) for Print::printf(const char*, ...)
    displaybasic.o(i._Z16ShowCrashReportsPKc) refers to displaybasic.o(.bss) for .bss
    displaybasic.o(i._Z16ShowCrashReportsPKc) refers to displaybasic.o(.constdata) for .constdata
    displaybasic.o(i.__sti___16_DisplayBasic_cpp_screen) refers to tft_ili9488.o(i._ZN11TFT_ILI9488C1Ehhhhhh) for TFT_ILI9488::TFT_ILI9488(unsigned char, unsigned char, unsigned char, unsigned char, unsigned char, unsigned char)
    displaybasic.o(i.__sti___16_DisplayBasic_cpp_screen) refers to displaybasic.o(.bss) for .bss
    displaybasic.o(i.__sti___16_DisplayBasic_cpp_screen) refers to displaybasic.o(.constdata__ZTV6SdFile) for vtable for SdFile
    displaybasic.o(i.vApplicationMallocFailedHook) refers to displaybasic.o(i._Z16ShowCrashReportsPKc) for ShowCrashReports(const char*)
    displaybasic.o(i.vApplicationMallocFailedHook) refers to system_stm32f4xx.o(.data) for SystemCoreClock
    displaybasic.o(i.vApplicationStackOverflowHook) refers to printfa.o(i.__0sprintf) for __2sprintf
    displaybasic.o(i.vApplicationStackOverflowHook) refers to displaybasic.o(i._Z16ShowCrashReportsPKc) for ShowCrashReports(const char*)
    displaybasic.o(i.vApplicationStackOverflowHook) refers to system_stm32f4xx.o(.data) for SystemCoreClock
    displaybasic.o(.ARM.exidx) refers to displaybasic.o(i._Z12Task_DispalyPv) for i._Z12Task_DispalyPv
    displaybasic.o(.ARM.exidx) refers to displaybasic.o(i.vApplicationStackOverflowHook) for i.vApplicationStackOverflowHook
    displaybasic.o(.ARM.exidx) refers to displaybasic.o(i.vApplicationMallocFailedHook) for i.vApplicationMallocFailedHook
    displaybasic.o(.ARM.exidx) refers to displaybasic.o(i.HardFault_Handler) for i.HardFault_Handler
    displaybasic.o(.ARM.exidx) refers to displaybasic.o(i.__sti___16_DisplayBasic_cpp_screen) for i.__sti___16_DisplayBasic_cpp_screen
    displaybasic.o(.ARM.exidx) refers to displaybasic.o(i._Z16ShowCrashReportsPKc) for i._Z16ShowCrashReportsPKc
    displaybasic.o(.constdata) refers to displaybasic.o(.constdata) for FreeMono24pt7bBitmaps
    displaybasic.o(.constdata) refers to displaybasic.o(.constdata) for FreeMono24pt7bGlyphs
    displaybasic.o(.init_array) refers to displaybasic.o(i.__sti___16_DisplayBasic_cpp_screen) for __sti___16_DisplayBasic_cpp_screen
    displaybasic.o(.init_array) refers to cpp_init.o(.text) for __cpp_initialize__aeabi_
    lv_user.o(i._Z12lv_user_initv) refers to lv_obj.o(i.lv_init) for lv_init
    lv_user.o(i._Z12lv_user_initv) refers to lv_hal_disp.o(i.lv_disp_buf_init) for lv_disp_buf_init
    lv_user.o(i._Z12lv_user_initv) refers to lv_hal_disp.o(i.lv_disp_drv_init) for lv_disp_drv_init
    lv_user.o(i._Z12lv_user_initv) refers to lv_hal_disp.o(i.lv_disp_drv_register) for lv_disp_drv_register
    lv_user.o(i._Z12lv_user_initv) refers to lv_hal_indev.o(i.lv_indev_drv_init) for lv_indev_drv_init
    lv_user.o(i._Z12lv_user_initv) refers to lv_hal_indev.o(i.lv_indev_drv_register) for lv_indev_drv_register
    lv_user.o(i._Z12lv_user_initv) refers to lv_user.o(.bss) for .bss
    lv_user.o(i._Z12lv_user_initv) refers to lv_user.o(i._Z13my_disp_flushP11_disp_drv_tPK9lv_area_tP12lv_color16_t) for my_disp_flush(_disp_drv_t*, const lv_area_t*, lv_color16_t*)
    lv_user.o(i._Z12lv_user_initv) refers to lv_user.o(i._Z16my_touchpad_readP15_lv_indev_drv_tP15lv_indev_data_t) for my_touchpad_read(_lv_indev_drv_t*, lv_indev_data_t*)
    lv_user.o(i._Z13my_disp_flushP11_disp_drv_tPK9lv_area_tP12lv_color16_t) refers to tft_ili9488.o(i._ZN11TFT_ILI948817fastDrawRGBBitmapEssPtss) for TFT_ILI9488::fastDrawRGBBitmap(short, short, unsigned short*, short, short)
    lv_user.o(i._Z13my_disp_flushP11_disp_drv_tPK9lv_area_tP12lv_color16_t) refers to lv_hal_disp.o(i.lv_disp_flush_ready) for lv_disp_flush_ready
    lv_user.o(i._Z13my_disp_flushP11_disp_drv_tPK9lv_area_tP12lv_color16_t) refers to displaybasic.o(.bss) for screen
    lv_user.o(i._Z16my_touchpad_readP15_lv_indev_drv_tP15lv_indev_data_t) refers to touch.o(.data) for tp_dev
    lv_user.o(i._Z16my_touchpad_readP15_lv_indev_drv_tP15lv_indev_data_t) refers to lv_user.o(.data) for .data
    lv_user.o(.ARM.exidx) refers to lv_user.o(i._Z13my_disp_flushP11_disp_drv_tPK9lv_area_tP12lv_color16_t) for i._Z13my_disp_flushP11_disp_drv_tPK9lv_area_tP12lv_color16_t
    lv_user.o(.ARM.exidx) refers to lv_user.o(i._Z16my_touchpad_readP15_lv_indev_drv_tP15lv_indev_data_t) for i._Z16my_touchpad_readP15_lv_indev_drv_tP15lv_indev_data_t
    lv_user.o(.ARM.exidx) refers to lv_user.o(i._Z12lv_user_initv) for i._Z12lv_user_initv
    lv_user_fs.o(i._Z11fs_dir_openP12_lv_fs_drv_tPvPKc) refers to fatfile.o(i._ZN7FatFile4openEPS_PKch) for FatFile::open(FatFile*, const char*, unsigned char)
    lv_user_fs.o(i._Z11fs_dir_openP12_lv_fs_drv_tPvPKc) refers to fatfile.o(.data) for FatFile::m_cwd
    lv_user_fs.o(i._Z12fs_dir_closeP12_lv_fs_drv_tPv) refers to fatfile.o(i._ZN7FatFile5closeEv) for FatFile::close()
    lv_user_fs.o(i._Z15lv_user_fs_initv) refers to sdspicard.o(i._ZN9SdSpiCard5beginEP14SdSpiAltDriverh11SPISettings) for SdSpiCard::begin(SdSpiAltDriver*, unsigned char, SPISettings)
    lv_user_fs.o(i._Z15lv_user_fs_initv) refers to fatfile.o(i._ZN7FatFile5closeEv) for FatFile::close()
    lv_user_fs.o(i._Z15lv_user_fs_initv) refers to fatvolume.o(i._ZN9FatVolume4initEh) for FatVolume::init(unsigned char)
    lv_user_fs.o(i._Z15lv_user_fs_initv) refers to fatfile.o(i._ZN7FatFile8openRootEP9FatVolume) for FatFile::openRoot(FatVolume*)
    lv_user_fs.o(i._Z15lv_user_fs_initv) refers to lv_fs.o(i.lv_fs_drv_init) for lv_fs_drv_init
    lv_user_fs.o(i._Z15lv_user_fs_initv) refers to lv_fs.o(i.lv_fs_drv_register) for lv_fs_drv_register
    lv_user_fs.o(i._Z15lv_user_fs_initv) refers to lv_user_fs.o(.bss) for .bss
    lv_user_fs.o(i._Z15lv_user_fs_initv) refers to fatfile.o(.data) for FatFile::m_cwd
    lv_user_fs.o(i._Z15lv_user_fs_initv) refers to lv_user_fs.o(.data) for .data
    lv_user_fs.o(i._Z15lv_user_fs_initv) refers to lv_user_fs.o(i._Z8fs_readyP12_lv_fs_drv_t) for fs_ready(_lv_fs_drv_t*)
    lv_user_fs.o(i._Z15lv_user_fs_initv) refers to lv_user_fs.o(i._Z7fs_openP12_lv_fs_drv_tPvPKch) for fs_open(_lv_fs_drv_t*, void*, const char*, unsigned char)
    lv_user_fs.o(i._Z15lv_user_fs_initv) refers to lv_user_fs.o(i._Z8fs_closeP12_lv_fs_drv_tPv) for fs_close(_lv_fs_drv_t*, void*)
    lv_user_fs.o(i._Z15lv_user_fs_initv) refers to lv_user_fs.o(i._Z7fs_readP12_lv_fs_drv_tPvS1_jPj) for fs_read(_lv_fs_drv_t*, void*, void*, unsigned, unsigned*)
    lv_user_fs.o(i._Z15lv_user_fs_initv) refers to lv_user_fs.o(i._Z8fs_writeP12_lv_fs_drv_tPvPKvjPj) for fs_write(_lv_fs_drv_t*, void*, const void*, unsigned, unsigned*)
    lv_user_fs.o(i._Z15lv_user_fs_initv) refers to lv_user_fs.o(i._Z7fs_seekP12_lv_fs_drv_tPvj) for fs_seek(_lv_fs_drv_t*, void*, unsigned)
    lv_user_fs.o(i._Z15lv_user_fs_initv) refers to lv_user_fs.o(i._Z7fs_tellP12_lv_fs_drv_tPvPj) for fs_tell(_lv_fs_drv_t*, void*, unsigned*)
    lv_user_fs.o(i._Z15lv_user_fs_initv) refers to lv_user_fs.o(i._Z7fs_freeP12_lv_fs_drv_tPjS1_) for fs_free(_lv_fs_drv_t*, unsigned*, unsigned*)
    lv_user_fs.o(i._Z15lv_user_fs_initv) refers to lv_user_fs.o(i._Z7fs_sizeP12_lv_fs_drv_tPvPj) for fs_size(_lv_fs_drv_t*, void*, unsigned*)
    lv_user_fs.o(i._Z15lv_user_fs_initv) refers to lv_user_fs.o(i._Z9fs_removeP12_lv_fs_drv_tPKc) for fs_remove(_lv_fs_drv_t*, const char*)
    lv_user_fs.o(i._Z15lv_user_fs_initv) refers to lv_user_fs.o(i._Z9fs_renameP12_lv_fs_drv_tPKcS2_) for fs_rename(_lv_fs_drv_t*, const char*, const char*)
    lv_user_fs.o(i._Z15lv_user_fs_initv) refers to lv_user_fs.o(i._Z8fs_truncP12_lv_fs_drv_tPv) for fs_trunc(_lv_fs_drv_t*, void*)
    lv_user_fs.o(i._Z15lv_user_fs_initv) refers to lv_user_fs.o(i._Z12fs_dir_closeP12_lv_fs_drv_tPv) for fs_dir_close(_lv_fs_drv_t*, void*)
    lv_user_fs.o(i._Z15lv_user_fs_initv) refers to lv_user_fs.o(i._Z11fs_dir_openP12_lv_fs_drv_tPvPKc) for fs_dir_open(_lv_fs_drv_t*, void*, const char*)
    lv_user_fs.o(i._Z15lv_user_fs_initv) refers to lv_user_fs.o(i._Z11fs_dir_readP12_lv_fs_drv_tPvPc) for fs_dir_read(_lv_fs_drv_t*, void*, char*)
    lv_user_fs.o(i._Z7fs_openP12_lv_fs_drv_tPvPKch) refers to fatfile.o(i._ZN7FatFile4openEPS_PKch) for FatFile::open(FatFile*, const char*, unsigned char)
    lv_user_fs.o(i._Z7fs_openP12_lv_fs_drv_tPvPKch) refers to fatfile.o(i._ZN7FatFile7seekSetEj) for FatFile::seekSet(unsigned)
    lv_user_fs.o(i._Z7fs_openP12_lv_fs_drv_tPvPKch) refers to displaybasic.o(.constdata__ZTV6SdFile) for vtable for SdFile
    lv_user_fs.o(i._Z7fs_openP12_lv_fs_drv_tPvPKch) refers to fatfile.o(.data) for FatFile::m_cwd
    lv_user_fs.o(i._Z7fs_readP12_lv_fs_drv_tPvS1_jPj) refers to fatfile.o(i._ZN7FatFile4readEPvj) for FatFile::read(void*, unsigned)
    lv_user_fs.o(i._Z7fs_readP12_lv_fs_drv_tPvS1_jPj) refers to print.o(.constdata__ZTV5Print) for vtable for Print
    lv_user_fs.o(i._Z7fs_readP12_lv_fs_drv_tPvS1_jPj) refers to displaybasic.o(.constdata__ZTV6SdFile) for vtable for SdFile
    lv_user_fs.o(i._Z7fs_seekP12_lv_fs_drv_tPvj) refers to fatfile.o(i._ZN7FatFile7seekSetEj) for FatFile::seekSet(unsigned)
    lv_user_fs.o(i._Z7fs_seekP12_lv_fs_drv_tPvj) refers to print.o(.constdata__ZTV5Print) for vtable for Print
    lv_user_fs.o(i._Z7fs_seekP12_lv_fs_drv_tPvj) refers to displaybasic.o(.constdata__ZTV6SdFile) for vtable for SdFile
    lv_user_fs.o(i._Z8fs_closeP12_lv_fs_drv_tPv) refers to fatfile.o(i._ZN7FatFile5closeEv) for FatFile::close()
    lv_user_fs.o(i._Z8fs_closeP12_lv_fs_drv_tPv) refers to print.o(.constdata__ZTV5Print) for vtable for Print
    lv_user_fs.o(i._Z8fs_closeP12_lv_fs_drv_tPv) refers to displaybasic.o(.constdata__ZTV6SdFile) for vtable for SdFile
    lv_user_fs.o(i._Z8fs_readyP12_lv_fs_drv_t) refers to lv_user_fs.o(.data) for .data
    lv_user_fs.o(i._Z8fs_truncP12_lv_fs_drv_tPv) refers to fatfile.o(i._ZN7FatFile4syncEv) for FatFile::sync()
    lv_user_fs.o(i._Z8fs_writeP12_lv_fs_drv_tPvPKvjPj) refers to fatfile.o(i._ZN7FatFile5writeEPKvj) for FatFile::write(const void*, unsigned)
    lv_user_fs.o(i._Z8fs_writeP12_lv_fs_drv_tPvPKvjPj) refers to print.o(.constdata__ZTV5Print) for vtable for Print
    lv_user_fs.o(i._Z8fs_writeP12_lv_fs_drv_tPvPKvjPj) refers to displaybasic.o(.constdata__ZTV6SdFile) for vtable for SdFile
    lv_user_fs.o(i._Z9fs_removeP12_lv_fs_drv_tPKc) refers to fatfile.o(i._ZN7FatFile6removeEPS_PKc) for FatFile::remove(FatFile*, const char*)
    lv_user_fs.o(i._Z9fs_removeP12_lv_fs_drv_tPKc) refers to lv_user_fs.o(.bss) for .bss
    lv_user_fs.o(i._Z9fs_renameP12_lv_fs_drv_tPKcS2_) refers to fatfile.o(i._ZN7FatFile4openEPS_PKch) for FatFile::open(FatFile*, const char*, unsigned char)
    lv_user_fs.o(i._Z9fs_renameP12_lv_fs_drv_tPKcS2_) refers to fatfile.o(i._ZN7FatFile6renameEPS_PKc) for FatFile::rename(FatFile*, const char*)
    lv_user_fs.o(i._Z9fs_renameP12_lv_fs_drv_tPKcS2_) refers to lv_user_fs.o(.bss) for .bss
    lv_user_fs.o(i.__sti___14_lv_user_fs_cpp_5975bf6a) refers to lv_user_fs.o(.bss) for .bss
    lv_user_fs.o(i.__sti___14_lv_user_fs_cpp_5975bf6a) refers to sdspicard.o(.constdata__ZTV9SdSpiCard) for vtable for SdSpiCard
    lv_user_fs.o(i.__sti___14_lv_user_fs_cpp_5975bf6a) refers to spi.o(.bss) for SPI
    lv_user_fs.o(.ARM.exidx) refers to lv_user_fs.o(i._Z11fs_dir_readP12_lv_fs_drv_tPvPc) for i._Z11fs_dir_readP12_lv_fs_drv_tPvPc
    lv_user_fs.o(.ARM.exidx) refers to lv_user_fs.o(i._Z11fs_dir_openP12_lv_fs_drv_tPvPKc) for i._Z11fs_dir_openP12_lv_fs_drv_tPvPKc
    lv_user_fs.o(.ARM.exidx) refers to lv_user_fs.o(i._Z12fs_dir_closeP12_lv_fs_drv_tPv) for i._Z12fs_dir_closeP12_lv_fs_drv_tPv
    lv_user_fs.o(.ARM.exidx) refers to lv_user_fs.o(i._Z8fs_truncP12_lv_fs_drv_tPv) for i._Z8fs_truncP12_lv_fs_drv_tPv
    lv_user_fs.o(.ARM.exidx) refers to lv_user_fs.o(i._Z9fs_renameP12_lv_fs_drv_tPKcS2_) for i._Z9fs_renameP12_lv_fs_drv_tPKcS2_
    lv_user_fs.o(.ARM.exidx) refers to lv_user_fs.o(i._Z9fs_removeP12_lv_fs_drv_tPKc) for i._Z9fs_removeP12_lv_fs_drv_tPKc
    lv_user_fs.o(.ARM.exidx) refers to lv_user_fs.o(i._Z7fs_sizeP12_lv_fs_drv_tPvPj) for i._Z7fs_sizeP12_lv_fs_drv_tPvPj
    lv_user_fs.o(.ARM.exidx) refers to lv_user_fs.o(i._Z7fs_freeP12_lv_fs_drv_tPjS1_) for i._Z7fs_freeP12_lv_fs_drv_tPjS1_
    lv_user_fs.o(.ARM.exidx) refers to lv_user_fs.o(i._Z7fs_tellP12_lv_fs_drv_tPvPj) for i._Z7fs_tellP12_lv_fs_drv_tPvPj
    lv_user_fs.o(.ARM.exidx) refers to lv_user_fs.o(i._Z7fs_seekP12_lv_fs_drv_tPvj) for i._Z7fs_seekP12_lv_fs_drv_tPvj
    lv_user_fs.o(.ARM.exidx) refers to lv_user_fs.o(i._Z8fs_writeP12_lv_fs_drv_tPvPKvjPj) for i._Z8fs_writeP12_lv_fs_drv_tPvPKvjPj
    lv_user_fs.o(.ARM.exidx) refers to lv_user_fs.o(i._Z7fs_readP12_lv_fs_drv_tPvS1_jPj) for i._Z7fs_readP12_lv_fs_drv_tPvS1_jPj
    lv_user_fs.o(.ARM.exidx) refers to lv_user_fs.o(i._Z8fs_closeP12_lv_fs_drv_tPv) for i._Z8fs_closeP12_lv_fs_drv_tPv
    lv_user_fs.o(.ARM.exidx) refers to lv_user_fs.o(i._Z7fs_openP12_lv_fs_drv_tPvPKch) for i._Z7fs_openP12_lv_fs_drv_tPvPKch
    lv_user_fs.o(.ARM.exidx) refers to lv_user_fs.o(i._Z8fs_readyP12_lv_fs_drv_t) for i._Z8fs_readyP12_lv_fs_drv_t
    lv_user_fs.o(.ARM.exidx) refers to lv_user_fs.o(i._Z15lv_user_fs_initv) for i._Z15lv_user_fs_initv
    lv_user_fs.o(.ARM.exidx) refers to lv_user_fs.o(i.__sti___14_lv_user_fs_cpp_5975bf6a) for i.__sti___14_lv_user_fs_cpp_5975bf6a
    lv_user_fs.o(.init_array) refers to lv_user_fs.o(i.__sti___14_lv_user_fs_cpp_5975bf6a) for __sti___14_lv_user_fs_cpp_5975bf6a
    lv_user_fs.o(.init_array) refers to cpp_init.o(.text) for __cpp_initialize__aeabi_
    demo.o(i.demo_create) refers to lv_hal_disp.o(i.lv_disp_get_hor_res) for lv_disp_get_hor_res
    demo.o(i.demo_create) refers to lv_hal_disp.o(i.lv_disp_get_ver_res) for lv_disp_get_ver_res
    demo.o(i.demo_create) refers to lv_disp.o(i.lv_disp_get_scr_act) for lv_disp_get_scr_act
    demo.o(i.demo_create) refers to lv_img.o(i.lv_img_create) for lv_img_create
    demo.o(i.demo_create) refers to lv_img.o(i.lv_img_set_src) for lv_img_set_src
    demo.o(i.demo_create) refers to lv_obj.o(i.lv_obj_set_width) for lv_obj_set_width
    demo.o(i.demo_create) refers to lv_obj.o(i.lv_obj_set_protect) for lv_obj_set_protect
    demo.o(i.demo_create) refers to lv_style.o(i.lv_style_copy) for lv_style_copy
    demo.o(i.demo_create) refers to lv_tabview.o(i.lv_tabview_create) for lv_tabview_create
    demo.o(i.demo_create) refers to lv_obj.o(i.lv_obj_set_size) for lv_obj_set_size
    demo.o(i.demo_create) refers to lv_obj.o(i.lv_obj_set_parent) for lv_obj_set_parent
    demo.o(i.demo_create) refers to lv_obj.o(i.lv_obj_set_pos) for lv_obj_set_pos
    demo.o(i.demo_create) refers to lv_tabview.o(i.lv_tabview_add_tab) for lv_tabview_add_tab
    demo.o(i.demo_create) refers to lv_tabview.o(i.lv_tabview_set_style) for lv_tabview_set_style
    demo.o(i.demo_create) refers to lv_page.o(i.lv_page_set_style) for lv_page_set_style
    demo.o(i.demo_create) refers to lv_page.o(i.lv_page_set_sb_mode) for lv_page_set_sb_mode
    demo.o(i.demo_create) refers to lv_ta.o(i.lv_ta_create) for lv_ta_create
    demo.o(i.demo_create) refers to lv_obj.o(i.lv_obj_get_height) for lv_obj_get_height
    demo.o(i.demo_create) refers to lv_page.o(i.lv_page_get_scrl) for lv_page_get_scrl
    demo.o(i.demo_create) refers to lv_obj.o(i.lv_obj_get_width) for lv_obj_get_width
    demo.o(i.demo_create) refers to lv_ta.o(i.lv_ta_set_style) for lv_ta_set_style
    demo.o(i.demo_create) refers to lv_ta.o(i.lv_ta_set_text) for lv_ta_set_text
    demo.o(i.demo_create) refers to lv_obj.o(i.lv_obj_set_event_cb) for lv_obj_set_event_cb
    demo.o(i.demo_create) refers to lv_ta.o(i.lv_ta_set_text_sel) for lv_ta_set_text_sel
    demo.o(i.demo_create) refers to img_bubble_pattern.o(.data) for img_bubble_pattern
    demo.o(i.demo_create) refers to lv_style.o(.bss) for lv_style_plain
    demo.o(i.demo_create) refers to demo.o(.bss) for .bss
    demo.o(i.demo_create) refers to demo.o(.data) for .data
    demo.o(i.demo_create) refers to demo.o(i.text_area_event_handler) for text_area_event_handler
    demo.o(i.demo_create) refers to lv_list.o(i.lv_list_create) for lv_list_create
    demo.o(i.demo_create) refers to lv_obj.o(i.lv_obj_set_height) for lv_obj_set_height
    demo.o(i.demo_create) refers to lv_list.o(i.lv_list_set_style) for lv_list_set_style
    demo.o(i.demo_create) refers to lv_obj.o(i.lv_obj_align) for lv_obj_align
    demo.o(i.demo_create) refers to lv_list.o(i.lv_list_add_btn) for lv_list_add_btn
    demo.o(i.demo_create) refers to lv_mbox.o(i.lv_mbox_create) for lv_mbox_create
    demo.o(i.demo_create) refers to lv_mbox.o(i.lv_mbox_set_text) for lv_mbox_set_text
    demo.o(i.demo_create) refers to lv_mbox.o(i.lv_mbox_add_btns) for lv_mbox_add_btns
    demo.o(i.demo_create) refers to lv_chart.o(i.lv_chart_create) for lv_chart_create
    demo.o(i.demo_create) refers to lv_chart.o(i.lv_chart_set_type) for lv_chart_set_type
    demo.o(i.demo_create) refers to lv_obj.o(i.lv_obj_set_style) for lv_obj_set_style
    demo.o(i.demo_create) refers to lv_chart.o(i.lv_chart_set_series_opa) for lv_chart_set_series_opa
    demo.o(i.demo_create) refers to lv_chart.o(i.lv_chart_add_series) for lv_chart_add_series
    demo.o(i.demo_create) refers to lv_chart.o(i.lv_chart_set_next) for lv_chart_set_next
    demo.o(i.demo_create) refers to demo.o(i.list_btn_event_handler) for list_btn_event_handler
    demo.o(i.demo_create) refers to lv_slider.o(i.lv_slider_create) for lv_slider_create
    demo.o(i.demo_create) refers to lv_slider.o(i.lv_slider_set_style) for lv_slider_set_style
    demo.o(i.demo_create) refers to lv_bar.o(i.lv_bar_set_range) for lv_bar_set_range
    demo.o(i.demo_create) refers to lv_bar.o(i.lv_bar_set_value) for lv_bar_set_value
    demo.o(i.demo_create) refers to lv_slider.o(i.lv_slider_get_value) for lv_slider_get_value
    demo.o(i.demo_create) refers to lv_chart.o(i.lv_chart_set_range) for lv_chart_set_range
    demo.o(i.demo_create) refers to demo.o(i.slider_event_handler) for slider_event_handler
    demo.o(i.kb_hide_anim_end) refers to lv_obj.o(i.lv_obj_del) for lv_obj_del
    demo.o(i.kb_hide_anim_end) refers to demo.o(.data) for .data
    demo.o(i.keyboard_event_cb) refers to lv_kb.o(i.lv_kb_def_event_cb) for lv_kb_def_event_cb
    demo.o(i.keyboard_event_cb) refers to lv_obj.o(i.lv_obj_get_y) for lv_obj_get_y
    demo.o(i.keyboard_event_cb) refers to lv_hal_disp.o(i.lv_disp_get_default) for lv_disp_get_default
    demo.o(i.keyboard_event_cb) refers to lv_hal_disp.o(i.lv_disp_get_ver_res) for lv_disp_get_ver_res
    demo.o(i.keyboard_event_cb) refers to lv_anim.o(i.lv_anim_create) for lv_anim_create
    demo.o(i.keyboard_event_cb) refers to demo.o(.data) for .data
    demo.o(i.keyboard_event_cb) refers to lv_obj.o(i.lv_obj_set_y) for lv_obj_set_y
    demo.o(i.keyboard_event_cb) refers to lv_anim.o(i.lv_anim_path_linear) for lv_anim_path_linear
    demo.o(i.keyboard_event_cb) refers to demo.o(i.kb_hide_anim_end) for kb_hide_anim_end
    demo.o(i.list_btn_event_handler) refers to lv_ta.o(i.lv_ta_add_char) for lv_ta_add_char
    demo.o(i.list_btn_event_handler) refers to lv_list.o(i.lv_list_get_btn_text) for lv_list_get_btn_text
    demo.o(i.list_btn_event_handler) refers to lv_ta.o(i.lv_ta_add_text) for lv_ta_add_text
    demo.o(i.list_btn_event_handler) refers to demo.o(.data) for .data
    demo.o(i.slider_event_handler) refers to lv_slider.o(i.lv_slider_get_value) for lv_slider_get_value
    demo.o(i.slider_event_handler) refers to lv_chart.o(i.lv_chart_set_range) for lv_chart_set_range
    demo.o(i.slider_event_handler) refers to demo.o(.data) for .data
    demo.o(i.text_area_event_handler) refers to lv_obj.o(i.lv_obj_get_parent) for lv_obj_get_parent
    demo.o(i.text_area_event_handler) refers to lv_kb.o(i.lv_kb_create) for lv_kb_create
    demo.o(i.text_area_event_handler) refers to lv_obj.o(i.lv_obj_get_height_fit) for lv_obj_get_height_fit
    demo.o(i.text_area_event_handler) refers to lv_obj.o(i.lv_obj_get_width_fit) for lv_obj_get_width_fit
    demo.o(i.text_area_event_handler) refers to lv_obj.o(i.lv_obj_set_size) for lv_obj_set_size
    demo.o(i.text_area_event_handler) refers to lv_obj.o(i.lv_obj_align) for lv_obj_align
    demo.o(i.text_area_event_handler) refers to lv_kb.o(i.lv_kb_set_ta) for lv_kb_set_ta
    demo.o(i.text_area_event_handler) refers to lv_kb.o(i.lv_kb_set_style) for lv_kb_set_style
    demo.o(i.text_area_event_handler) refers to lv_obj.o(i.lv_obj_set_event_cb) for lv_obj_set_event_cb
    demo.o(i.text_area_event_handler) refers to lv_hal_disp.o(i.lv_disp_get_default) for lv_disp_get_default
    demo.o(i.text_area_event_handler) refers to lv_hal_disp.o(i.lv_disp_get_ver_res) for lv_disp_get_ver_res
    demo.o(i.text_area_event_handler) refers to lv_obj.o(i.lv_obj_get_y) for lv_obj_get_y
    demo.o(i.text_area_event_handler) refers to lv_anim.o(i.lv_anim_create) for lv_anim_create
    demo.o(i.text_area_event_handler) refers to demo.o(.data) for .data
    demo.o(i.text_area_event_handler) refers to demo.o(.bss) for .bss
    demo.o(i.text_area_event_handler) refers to demo.o(i.keyboard_event_cb) for keyboard_event_cb
    demo.o(i.text_area_event_handler) refers to lv_obj.o(i.lv_obj_set_y) for lv_obj_set_y
    demo.o(i.text_area_event_handler) refers to lv_anim.o(i.lv_anim_path_linear) for lv_anim_path_linear
    demo.o(.data) refers to demo.o(.conststring) for .conststring
    img_bubble_pattern.o(.data) refers to img_bubble_pattern.o(.constdata) for img_bubble_pattern_map
    page_luascript.o(i._Z16LuaPrintCallbackPKc) refers to lv_ta.o(i.lv_ta_add_text) for lv_ta_add_text
    page_luascript.o(i._Z16LuaPrintCallbackPKc) refers to lv_ta.o(i.lv_ta_get_cursor_pos) for lv_ta_get_cursor_pos
    page_luascript.o(i._Z16LuaPrintCallbackPKc) refers to lv_ta.o(i.lv_ta_set_text) for lv_ta_set_text
    page_luascript.o(i._Z16LuaPrintCallbackPKc) refers to page_luascript.o(.data) for .data
    page_luascript.o(i._Z16kb_hide_anim_endP10_lv_anim_t) refers to lv_obj.o(i.lv_obj_del) for lv_obj_del
    page_luascript.o(i._Z16kb_hide_anim_endP10_lv_anim_t) refers to page_luascript.o(.data) for .data
    page_luascript.o(i._Z17keyboard_event_cbP9_lv_obj_th) refers to lv_kb.o(i.lv_kb_def_event_cb) for lv_kb_def_event_cb
    page_luascript.o(i._Z17keyboard_event_cbP9_lv_obj_th) refers to lv_ta.o(i.lv_ta_set_text) for lv_ta_set_text
    page_luascript.o(i._Z17keyboard_event_cbP9_lv_obj_th) refers to luascript.o(i._ZN9LuaScript17registerStrOutputEPFvPKcE) for LuaScript::registerStrOutput(void(*)(const char*))
    page_luascript.o(i._Z17keyboard_event_cbP9_lv_obj_th) refers to lv_ta.o(i.lv_ta_get_text) for lv_ta_get_text
    page_luascript.o(i._Z17keyboard_event_cbP9_lv_obj_th) refers to luabasic.o(i._Z14LuaScriptStartPKc) for LuaScriptStart(const char*)
    page_luascript.o(i._Z17keyboard_event_cbP9_lv_obj_th) refers to lv_tabview.o(i.lv_tabview_set_tab_act) for lv_tabview_set_tab_act
    page_luascript.o(i._Z17keyboard_event_cbP9_lv_obj_th) refers to lv_ta.o(i.lv_ta_add_text) for lv_ta_add_text
    page_luascript.o(i._Z17keyboard_event_cbP9_lv_obj_th) refers to luascript.o(i._ZN9LuaScript3endEv) for LuaScript::end()
    page_luascript.o(i._Z17keyboard_event_cbP9_lv_obj_th) refers to lv_obj.o(i.lv_obj_get_y) for lv_obj_get_y
    page_luascript.o(i._Z17keyboard_event_cbP9_lv_obj_th) refers to lv_hal_disp.o(i.lv_disp_get_default) for lv_disp_get_default
    page_luascript.o(i._Z17keyboard_event_cbP9_lv_obj_th) refers to lv_hal_disp.o(i.lv_disp_get_ver_res) for lv_disp_get_ver_res
    page_luascript.o(i._Z17keyboard_event_cbP9_lv_obj_th) refers to lv_anim.o(i.lv_anim_create) for lv_anim_create
    page_luascript.o(i._Z17keyboard_event_cbP9_lv_obj_th) refers to page_luascript.o(.data) for .data
    page_luascript.o(i._Z17keyboard_event_cbP9_lv_obj_th) refers to page_luascript.o(i._Z16LuaPrintCallbackPKc) for LuaPrintCallback(const char*)
    page_luascript.o(i._Z17keyboard_event_cbP9_lv_obj_th) refers to luascript.o(.bss) for luaScript
    page_luascript.o(i._Z17keyboard_event_cbP9_lv_obj_th) refers to lv_obj.o(i.lv_obj_set_y) for lv_obj_set_y
    page_luascript.o(i._Z17keyboard_event_cbP9_lv_obj_th) refers to lv_anim.o(i.lv_anim_path_linear) for lv_anim_path_linear
    page_luascript.o(i._Z17keyboard_event_cbP9_lv_obj_th) refers to page_luascript.o(i._Z16kb_hide_anim_endP10_lv_anim_t) for kb_hide_anim_end(_lv_anim_t*)
    page_luascript.o(i._Z19PageCreat_LuaScriptv) refers to lv_hal_disp.o(i.lv_disp_get_hor_res) for lv_disp_get_hor_res
    page_luascript.o(i._Z19PageCreat_LuaScriptv) refers to lv_hal_disp.o(i.lv_disp_get_ver_res) for lv_disp_get_ver_res
    page_luascript.o(i._Z19PageCreat_LuaScriptv) refers to lv_style.o(i.lv_style_copy) for lv_style_copy
    page_luascript.o(i._Z19PageCreat_LuaScriptv) refers to lv_disp.o(i.lv_disp_get_scr_act) for lv_disp_get_scr_act
    page_luascript.o(i._Z19PageCreat_LuaScriptv) refers to lv_tabview.o(i.lv_tabview_create) for lv_tabview_create
    page_luascript.o(i._Z19PageCreat_LuaScriptv) refers to lv_obj.o(i.lv_obj_set_size) for lv_obj_set_size
    page_luascript.o(i._Z19PageCreat_LuaScriptv) refers to lv_tabview.o(i.lv_tabview_add_tab) for lv_tabview_add_tab
    page_luascript.o(i._Z19PageCreat_LuaScriptv) refers to lv_tabview.o(i.lv_tabview_set_style) for lv_tabview_set_style
    page_luascript.o(i._Z19PageCreat_LuaScriptv) refers to lv_page.o(i.lv_page_set_style) for lv_page_set_style
    page_luascript.o(i._Z19PageCreat_LuaScriptv) refers to lv_page.o(i.lv_page_set_sb_mode) for lv_page_set_sb_mode
    page_luascript.o(i._Z19PageCreat_LuaScriptv) refers to lv_ta.o(i.lv_ta_create) for lv_ta_create
    page_luascript.o(i._Z19PageCreat_LuaScriptv) refers to lv_obj.o(i.lv_obj_get_height) for lv_obj_get_height
    page_luascript.o(i._Z19PageCreat_LuaScriptv) refers to lv_page.o(i.lv_page_get_scrl) for lv_page_get_scrl
    page_luascript.o(i._Z19PageCreat_LuaScriptv) refers to lv_obj.o(i.lv_obj_get_width) for lv_obj_get_width
    page_luascript.o(i._Z19PageCreat_LuaScriptv) refers to lv_ta.o(i.lv_ta_set_style) for lv_ta_set_style
    page_luascript.o(i._Z19PageCreat_LuaScriptv) refers to lv_ta.o(i.lv_ta_set_text) for lv_ta_set_text
    page_luascript.o(i._Z19PageCreat_LuaScriptv) refers to lv_obj.o(i.lv_obj_set_event_cb) for lv_obj_set_event_cb
    page_luascript.o(i._Z19PageCreat_LuaScriptv) refers to lv_ta.o(i.lv_ta_set_text_sel) for lv_ta_set_text_sel
    page_luascript.o(i._Z19PageCreat_LuaScriptv) refers to lv_style.o(.bss) for lv_style_plain
    page_luascript.o(i._Z19PageCreat_LuaScriptv) refers to page_luascript.o(.bss) for .bss
    page_luascript.o(i._Z19PageCreat_LuaScriptv) refers to page_luascript.o(.data) for .data
    page_luascript.o(i._Z19PageCreat_LuaScriptv) refers to page_luascript.o(.constdata) for .constdata
    page_luascript.o(i._Z19PageCreat_LuaScriptv) refers to page_luascript.o(i._Z23text_area_event_handlerP9_lv_obj_th) for text_area_event_handler(_lv_obj_t*, unsigned char)
    page_luascript.o(i._Z23text_area_event_handlerP9_lv_obj_th) refers to lv_obj.o(i.lv_obj_get_parent) for lv_obj_get_parent
    page_luascript.o(i._Z23text_area_event_handlerP9_lv_obj_th) refers to lv_kb.o(i.lv_kb_create) for lv_kb_create
    page_luascript.o(i._Z23text_area_event_handlerP9_lv_obj_th) refers to lv_obj.o(i.lv_obj_get_height_fit) for lv_obj_get_height_fit
    page_luascript.o(i._Z23text_area_event_handlerP9_lv_obj_th) refers to lv_obj.o(i.lv_obj_get_width_fit) for lv_obj_get_width_fit
    page_luascript.o(i._Z23text_area_event_handlerP9_lv_obj_th) refers to lv_obj.o(i.lv_obj_set_size) for lv_obj_set_size
    page_luascript.o(i._Z23text_area_event_handlerP9_lv_obj_th) refers to lv_obj.o(i.lv_obj_align) for lv_obj_align
    page_luascript.o(i._Z23text_area_event_handlerP9_lv_obj_th) refers to lv_kb.o(i.lv_kb_set_ta) for lv_kb_set_ta
    page_luascript.o(i._Z23text_area_event_handlerP9_lv_obj_th) refers to lv_kb.o(i.lv_kb_set_style) for lv_kb_set_style
    page_luascript.o(i._Z23text_area_event_handlerP9_lv_obj_th) refers to lv_obj.o(i.lv_obj_set_event_cb) for lv_obj_set_event_cb
    page_luascript.o(i._Z23text_area_event_handlerP9_lv_obj_th) refers to lv_hal_disp.o(i.lv_disp_get_default) for lv_disp_get_default
    page_luascript.o(i._Z23text_area_event_handlerP9_lv_obj_th) refers to lv_hal_disp.o(i.lv_disp_get_ver_res) for lv_disp_get_ver_res
    page_luascript.o(i._Z23text_area_event_handlerP9_lv_obj_th) refers to lv_obj.o(i.lv_obj_get_y) for lv_obj_get_y
    page_luascript.o(i._Z23text_area_event_handlerP9_lv_obj_th) refers to lv_anim.o(i.lv_anim_create) for lv_anim_create
    page_luascript.o(i._Z23text_area_event_handlerP9_lv_obj_th) refers to page_luascript.o(.data) for .data
    page_luascript.o(i._Z23text_area_event_handlerP9_lv_obj_th) refers to page_luascript.o(.bss) for .bss
    page_luascript.o(i._Z23text_area_event_handlerP9_lv_obj_th) refers to page_luascript.o(i._Z17keyboard_event_cbP9_lv_obj_th) for keyboard_event_cb(_lv_obj_t*, unsigned char)
    page_luascript.o(i._Z23text_area_event_handlerP9_lv_obj_th) refers to lv_obj.o(i.lv_obj_set_y) for lv_obj_set_y
    page_luascript.o(i._Z23text_area_event_handlerP9_lv_obj_th) refers to lv_anim.o(i.lv_anim_path_linear) for lv_anim_path_linear
    page_luascript.o(.ARM.exidx) refers to page_luascript.o(i._Z16kb_hide_anim_endP10_lv_anim_t) for i._Z16kb_hide_anim_endP10_lv_anim_t
    page_luascript.o(.ARM.exidx) refers to page_luascript.o(i._Z16LuaPrintCallbackPKc) for i._Z16LuaPrintCallbackPKc
    page_luascript.o(.ARM.exidx) refers to page_luascript.o(i._Z17keyboard_event_cbP9_lv_obj_th) for i._Z17keyboard_event_cbP9_lv_obj_th
    page_luascript.o(.ARM.exidx) refers to page_luascript.o(i._Z23text_area_event_handlerP9_lv_obj_th) for i._Z23text_area_event_handlerP9_lv_obj_th
    page_luascript.o(.ARM.exidx) refers to page_luascript.o(i._Z19PageCreat_LuaScriptv) for i._Z19PageCreat_LuaScriptv
    luabasic.o(i._Z14LuaScriptStartPKc) refers to tasks.o(i.vTaskResume) for vTaskResume
    luabasic.o(i._Z14LuaScriptStartPKc) refers to luabasic.o(.data) for .data
    luabasic.o(i._Z14Task_LuaScriptPv) refers to luascript.o(i._ZN9LuaScript5beginEv) for LuaScript::begin()
    luabasic.o(i._Z14Task_LuaScriptPv) refers to luatime.o(i._Z11LuaReg_Timev) for LuaReg_Time()
    luabasic.o(i._Z14Task_LuaScriptPv) refers to luagpio.o(i._Z11LuaReg_GPIOv) for LuaReg_GPIO()
    luabasic.o(i._Z14Task_LuaScriptPv) refers to tasks.o(i.vTaskSuspend) for vTaskSuspend
    luabasic.o(i._Z14Task_LuaScriptPv) refers to luascript.o(i._ZN9LuaScript8doStringEPKc) for LuaScript::doString(const char*)
    luabasic.o(i._Z14Task_LuaScriptPv) refers to luascript.o(.bss) for luaScript
    luabasic.o(i._Z14Task_LuaScriptPv) refers to luabasic.o(.data) for .data
    luabasic.o(.ARM.exidx) refers to luabasic.o(i._Z14LuaScriptStartPKc) for i._Z14LuaScriptStartPKc
    luabasic.o(.ARM.exidx) refers to luabasic.o(i._Z14Task_LuaScriptPv) for i._Z14Task_LuaScriptPv
    luascript.o(i._Z13breakCallbackP9lua_StateP9lua_Debug) refers to ldebug.o(i.lua_sethook) for lua_sethook
    luascript.o(i._Z13breakCallbackP9lua_StateP9lua_Debug) refers to lauxlib.o(i.luaL_error) for luaL_error
    luascript.o(i._Z13breakCallbackP9lua_StateP9lua_Debug) refers to luascript.o(.bss) for .bss
    luascript.o(i._ZN9LuaScript12registerFuncEPKcPFYiP9lua_StateE) refers to lapi.o(i.lua_pushcclosure) for lua_pushcclosure
    luascript.o(i._ZN9LuaScript12registerFuncEPKcPFYiP9lua_StateE) refers to lapi.o(i.lua_setglobal) for lua_setglobal
    luascript.o(i._ZN9LuaScript3endEv) refers to ldebug.o(i.lua_sethook) for lua_sethook
    luascript.o(i._ZN9LuaScript3endEv) refers to luascript.o(i._Z13breakCallbackP9lua_StateP9lua_Debug) for breakCallback(lua_State*, lua_Debug*)
    luascript.o(i._ZN9LuaScript5beginEv) refers to lauxlib.o(i.luaL_newstate) for luaL_newstate
    luascript.o(i._ZN9LuaScript5beginEv) refers to linit.o(i.luaL_openlibs) for luaL_openlibs
    luascript.o(i._ZN9LuaScript8doStringEPKc) refers to lauxlib.o(i.luaL_loadstring) for luaL_loadstring
    luascript.o(i._ZN9LuaScript8doStringEPKc) refers to lapi.o(i.lua_pcallk) for lua_pcallk
    luascript.o(i._ZN9LuaScript8doStringEPKc) refers to lapi.o(i.lua_tolstring) for lua_tolstring
    luascript.o(i._ZN9LuaScript8doStringEPKc) refers to luascript.o(.bss) for .bss
    luascript.o(i._ZN9LuaScriptD1Ev) refers to ldebug.o(i.lua_sethook) for lua_sethook
    luascript.o(i._ZN9LuaScriptD1Ev) refers to lstate.o(i.lua_close) for lua_close
    luascript.o(i._ZN9LuaScriptD1Ev) refers to luascript.o(i._Z13breakCallbackP9lua_StateP9lua_Debug) for breakCallback(lua_State*, lua_Debug*)
    luascript.o(i.__sti___13_LuaScript_cpp_c2241cb2) refers to aeabi_atexit.o(.text) for __aeabi_atexit
    luascript.o(i.__sti___13_LuaScript_cpp_c2241cb2) refers to luascript.o(.bss) for .bss
    luascript.o(i.__sti___13_LuaScript_cpp_c2241cb2) refers to luascript.o(i._ZN9LuaScriptD1Ev) for LuaScript::~LuaScript()
    luascript.o(i.lua_string_print) refers to luascript.o(.bss) for .bss
    luascript.o(.ARM.exidx) refers to luascript.o(i._ZN9LuaScript8printStrEPKc) for i._ZN9LuaScript8printStrEPKc
    luascript.o(.ARM.exidx) refers to luascript.o(i.lua_string_print) for i.lua_string_print
    luascript.o(.ARM.exidx) refers to luascript.o(i._Z13breakCallbackP9lua_StateP9lua_Debug) for i._Z13breakCallbackP9lua_StateP9lua_Debug
    luascript.o(.ARM.exidx) refers to luascript.o(i._ZN9LuaScriptC1Ev) for i._ZN9LuaScriptC1Ev
    luascript.o(.ARM.exidx) refers to luascript.o(i._ZN9LuaScript3endEv) for i._ZN9LuaScript3endEv
    luascript.o(.ARM.exidx) refers to luascript.o(i._ZN9LuaScriptD1Ev) for i._ZN9LuaScriptD1Ev
    luascript.o(.ARM.exidx) refers to luascript.o(i._ZN9LuaScript5beginEv) for i._ZN9LuaScript5beginEv
    luascript.o(.ARM.exidx) refers to luascript.o(i._ZN9LuaScript8doStringEPKc) for i._ZN9LuaScript8doStringEPKc
    luascript.o(.ARM.exidx) refers to luascript.o(i._ZN9LuaScript17registerStrOutputEPFvPKcE) for i._ZN9LuaScript17registerStrOutputEPFvPKcE
    luascript.o(.ARM.exidx) refers to luascript.o(i._ZN9LuaScript12registerFuncEPKcPFYiP9lua_StateE) for i._ZN9LuaScript12registerFuncEPKcPFYiP9lua_StateE
    luascript.o(.ARM.exidx) refers to luascript.o(i.__sti___13_LuaScript_cpp_c2241cb2) for i.__sti___13_LuaScript_cpp_c2241cb2
    luascript.o(.init_array) refers to luascript.o(i.__sti___13_LuaScript_cpp_c2241cb2) for __sti___13_LuaScript_cpp_c2241cb2
    luascript.o(.init_array) refers to cpp_init.o(.text) for __cpp_initialize__aeabi_
    luatime.o(i._Z10Lua_microsP9lua_State) refers to delay.o(i.micros) for micros
    luatime.o(i._Z10Lua_microsP9lua_State) refers to lapi.o(i.lua_pushnumber) for lua_pushnumber
    luatime.o(i._Z10Lua_millisP9lua_State) refers to delay.o(i.millis) for millis
    luatime.o(i._Z10Lua_millisP9lua_State) refers to lapi.o(i.lua_pushnumber) for lua_pushnumber
    luatime.o(i._Z11LuaReg_Timev) refers to luascript.o(i._ZN9LuaScript12registerFuncEPKcPFYiP9lua_StateE) for LuaScript::registerFunc(const char*, int(*)(lua_State*))
    luatime.o(i._Z11LuaReg_Timev) refers to luatime.o(i._Z10Lua_millisP9lua_State) for Lua_millis(lua_State*)
    luatime.o(i._Z11LuaReg_Timev) refers to luascript.o(.bss) for luaScript
    luatime.o(i._Z11LuaReg_Timev) refers to luatime.o(i._Z10Lua_microsP9lua_State) for Lua_micros(lua_State*)
    luatime.o(i._Z11LuaReg_Timev) refers to luatime.o(i._Z9Lua_delayP9lua_State) for Lua_delay(lua_State*)
    luatime.o(i._Z9Lua_delayP9lua_State) refers to lapi.o(i.lua_gettop) for lua_gettop
    luatime.o(i._Z9Lua_delayP9lua_State) refers to lapi.o(i.lua_pushstring) for lua_pushstring
    luatime.o(i._Z9Lua_delayP9lua_State) refers to lapi.o(i.lua_error) for lua_error
    luatime.o(i._Z9Lua_delayP9lua_State) refers to lapi.o(i.lua_isinteger) for lua_isinteger
    luatime.o(i._Z9Lua_delayP9lua_State) refers to lapi.o(i.lua_tonumberx) for lua_tonumberx
    luatime.o(i._Z9Lua_delayP9lua_State) refers to delay.o(i.delay_ms) for delay_ms
    luatime.o(.ARM.exidx) refers to luatime.o(i._Z10Lua_millisP9lua_State) for i._Z10Lua_millisP9lua_State
    luatime.o(.ARM.exidx) refers to luatime.o(i._Z10Lua_microsP9lua_State) for i._Z10Lua_microsP9lua_State
    luatime.o(.ARM.exidx) refers to luatime.o(i._Z9Lua_delayP9lua_State) for i._Z9Lua_delayP9lua_State
    luatime.o(.ARM.exidx) refers to luatime.o(i._Z11LuaReg_Timev) for i._Z11LuaReg_Timev
    luagpio.o(i._Z11LuaReg_GPIOv) refers to luascript.o(i._ZN9LuaScript12registerFuncEPKcPFYiP9lua_StateE) for LuaScript::registerFunc(const char*, int(*)(lua_State*))
    luagpio.o(i._Z11LuaReg_GPIOv) refers to luagpio.o(i._Z11Lua_pinModeP9lua_State) for Lua_pinMode(lua_State*)
    luagpio.o(i._Z11LuaReg_GPIOv) refers to luascript.o(.bss) for luaScript
    luagpio.o(i._Z11LuaReg_GPIOv) refers to luagpio.o(i._Z13Lua_togglePinP9lua_State) for Lua_togglePin(lua_State*)
    luagpio.o(i._Z11LuaReg_GPIOv) refers to luagpio.o(i._Z16Lua_digitalWriteP9lua_State) for Lua_digitalWrite(lua_State*)
    luagpio.o(i._Z11LuaReg_GPIOv) refers to luagpio.o(i._Z15Lua_digitalReadP9lua_State) for Lua_digitalRead(lua_State*)
    luagpio.o(i._Z11LuaReg_GPIOv) refers to luagpio.o(i._Z15Lua_analogWriteP9lua_State) for Lua_analogWrite(lua_State*)
    luagpio.o(i._Z11LuaReg_GPIOv) refers to luagpio.o(i._Z14Lua_analogReadP9lua_State) for Lua_analogRead(lua_State*)
    luagpio.o(i._Z11Lua_pinModeP9lua_State) refers to lapi.o(i.lua_gettop) for lua_gettop
    luagpio.o(i._Z11Lua_pinModeP9lua_State) refers to lapi.o(i.lua_pushstring) for lua_pushstring
    luagpio.o(i._Z11Lua_pinModeP9lua_State) refers to lapi.o(i.lua_error) for lua_error
    luagpio.o(i._Z11Lua_pinModeP9lua_State) refers to lapi.o(i.lua_isinteger) for lua_isinteger
    luagpio.o(i._Z11Lua_pinModeP9lua_State) refers to lapi.o(i.lua_isstring) for lua_isstring
    luagpio.o(i._Z11Lua_pinModeP9lua_State) refers to lapi.o(i.lua_tonumberx) for lua_tonumberx
    luagpio.o(i._Z11Lua_pinModeP9lua_State) refers to lapi.o(i.lua_tolstring) for lua_tolstring
    luagpio.o(i._Z11Lua_pinModeP9lua_State) refers to wstring.o(i._ZN6StringC1EPKc) for String::String(const char*)
    luagpio.o(i._Z11Lua_pinModeP9lua_State) refers to wstring.o(i._ZN6String11toUpperCaseEv) for String::toUpperCase()
    luagpio.o(i._Z11Lua_pinModeP9lua_State) refers to wstring.o(i._ZNK6String6equalsEPKc) for String::equals(const char*) const
    luagpio.o(i._Z11Lua_pinModeP9lua_State) refers to arduino.o(i.pinMode) for pinMode
    luagpio.o(i._Z11Lua_pinModeP9lua_State) refers to wstring.o(i._ZN6StringD1Ev) for String::~String()
    luagpio.o(i._Z11Lua_pinModeP9lua_State) refers to luagpio.o(.conststring) for .conststring
    luagpio.o(i._Z13Lua_togglePinP9lua_State) refers to lapi.o(i.lua_gettop) for lua_gettop
    luagpio.o(i._Z13Lua_togglePinP9lua_State) refers to lapi.o(i.lua_pushstring) for lua_pushstring
    luagpio.o(i._Z13Lua_togglePinP9lua_State) refers to lapi.o(i.lua_error) for lua_error
    luagpio.o(i._Z13Lua_togglePinP9lua_State) refers to lapi.o(i.lua_isinteger) for lua_isinteger
    luagpio.o(i._Z13Lua_togglePinP9lua_State) refers to lapi.o(i.lua_tonumberx) for lua_tonumberx
    luagpio.o(i._Z13Lua_togglePinP9lua_State) refers to gpio.o(.constdata) for PIN_MAP
    luagpio.o(i._Z14Lua_analogReadP9lua_State) refers to lapi.o(i.lua_gettop) for lua_gettop
    luagpio.o(i._Z14Lua_analogReadP9lua_State) refers to lapi.o(i.lua_pushstring) for lua_pushstring
    luagpio.o(i._Z14Lua_analogReadP9lua_State) refers to lapi.o(i.lua_error) for lua_error
    luagpio.o(i._Z14Lua_analogReadP9lua_State) refers to lapi.o(i.lua_isinteger) for lua_isinteger
    luagpio.o(i._Z14Lua_analogReadP9lua_State) refers to lapi.o(i.lua_tonumberx) for lua_tonumberx
    luagpio.o(i._Z14Lua_analogReadP9lua_State) refers to arduino.o(i.analogRead) for analogRead
    luagpio.o(i._Z14Lua_analogReadP9lua_State) refers to lapi.o(i.lua_pushnumber) for lua_pushnumber
    luagpio.o(i._Z15Lua_analogWriteP9lua_State) refers to lapi.o(i.lua_gettop) for lua_gettop
    luagpio.o(i._Z15Lua_analogWriteP9lua_State) refers to lapi.o(i.lua_pushstring) for lua_pushstring
    luagpio.o(i._Z15Lua_analogWriteP9lua_State) refers to lapi.o(i.lua_error) for lua_error
    luagpio.o(i._Z15Lua_analogWriteP9lua_State) refers to lapi.o(i.lua_isinteger) for lua_isinteger
    luagpio.o(i._Z15Lua_analogWriteP9lua_State) refers to lapi.o(i.lua_tonumberx) for lua_tonumberx
    luagpio.o(i._Z15Lua_analogWriteP9lua_State) refers to arduino.o(i.analogWrite) for analogWrite
    luagpio.o(i._Z15Lua_digitalReadP9lua_State) refers to lapi.o(i.lua_gettop) for lua_gettop
    luagpio.o(i._Z15Lua_digitalReadP9lua_State) refers to lapi.o(i.lua_pushstring) for lua_pushstring
    luagpio.o(i._Z15Lua_digitalReadP9lua_State) refers to lapi.o(i.lua_error) for lua_error
    luagpio.o(i._Z15Lua_digitalReadP9lua_State) refers to lapi.o(i.lua_isinteger) for lua_isinteger
    luagpio.o(i._Z15Lua_digitalReadP9lua_State) refers to lapi.o(i.lua_tonumberx) for lua_tonumberx
    luagpio.o(i._Z15Lua_digitalReadP9lua_State) refers to arduino.o(i.digitalRead) for digitalRead
    luagpio.o(i._Z15Lua_digitalReadP9lua_State) refers to lapi.o(i.lua_pushnumber) for lua_pushnumber
    luagpio.o(i._Z16Lua_digitalWriteP9lua_State) refers to lapi.o(i.lua_gettop) for lua_gettop
    luagpio.o(i._Z16Lua_digitalWriteP9lua_State) refers to lapi.o(i.lua_pushstring) for lua_pushstring
    luagpio.o(i._Z16Lua_digitalWriteP9lua_State) refers to lapi.o(i.lua_error) for lua_error
    luagpio.o(i._Z16Lua_digitalWriteP9lua_State) refers to lapi.o(i.lua_isinteger) for lua_isinteger
    luagpio.o(i._Z16Lua_digitalWriteP9lua_State) refers to lapi.o(i.lua_tonumberx) for lua_tonumberx
    luagpio.o(i._Z16Lua_digitalWriteP9lua_State) refers to arduino.o(i.digitalWrite) for digitalWrite
    luagpio.o(.ARM.exidx) refers to luagpio.o(i._Z11Lua_pinModeP9lua_State) for i._Z11Lua_pinModeP9lua_State
    luagpio.o(.ARM.exidx) refers to luagpio.o(i._Z13Lua_togglePinP9lua_State) for i._Z13Lua_togglePinP9lua_State
    luagpio.o(.ARM.exidx) refers to luagpio.o(i._Z16Lua_digitalWriteP9lua_State) for i._Z16Lua_digitalWriteP9lua_State
    luagpio.o(.ARM.exidx) refers to luagpio.o(i._Z15Lua_digitalReadP9lua_State) for i._Z15Lua_digitalReadP9lua_State
    luagpio.o(.ARM.exidx) refers to luagpio.o(i._Z15Lua_analogWriteP9lua_State) for i._Z15Lua_analogWriteP9lua_State
    luagpio.o(.ARM.exidx) refers to luagpio.o(i._Z14Lua_analogReadP9lua_State) for i._Z14Lua_analogReadP9lua_State
    luagpio.o(.ARM.exidx) refers to luagpio.o(i._Z11LuaReg_GPIOv) for i._Z11LuaReg_GPIOv
    heap_2.o(i.pvPortMalloc) refers to tasks.o(i.vTaskSuspendAll) for vTaskSuspendAll
    heap_2.o(i.pvPortMalloc) refers to tasks.o(i.xTaskResumeAll) for xTaskResumeAll
    heap_2.o(i.pvPortMalloc) refers to displaybasic.o(i.vApplicationMallocFailedHook) for vApplicationMallocFailedHook
    heap_2.o(i.pvPortMalloc) refers to heap_2.o(.data) for .data
    heap_2.o(i.pvPortMalloc) refers to heap_2.o(.bss) for .bss
    heap_2.o(i.vPortFree) refers to tasks.o(i.vTaskSuspendAll) for vTaskSuspendAll
    heap_2.o(i.vPortFree) refers to tasks.o(i.xTaskResumeAll) for xTaskResumeAll
    heap_2.o(i.vPortFree) refers to heap_2.o(.data) for .data
    heap_2.o(i.xPortGetFreeHeapSize) refers to heap_2.o(.data) for .data
    port.o(.emb_text) refers to tasks.o(i.vTaskSwitchContext) for vTaskSwitchContext
    port.o(.emb_text) refers to tasks.o(.data) for pxCurrentTCB
    port.o(i.SysTick_Handler) refers to tasks.o(i.xTaskIncrementTick) for xTaskIncrementTick
    port.o(i.prvTaskExitError) refers to port.o(.data) for .data
    port.o(i.pxPortInitialiseStack) refers to port.o(i.prvTaskExitError) for prvTaskExitError
    port.o(i.vPortEndScheduler) refers to port.o(.data) for .data
    port.o(i.vPortEnterCritical) refers to port.o(.data) for .data
    port.o(i.vPortExitCritical) refers to port.o(.data) for .data
    port.o(i.vPortSetupTimerInterrupt) refers to system_stm32f4xx.o(.data) for SystemCoreClock
    port.o(i.vPortValidateInterruptPriority) refers to port.o(.emb_text) for vPortGetIPSR
    port.o(i.vPortValidateInterruptPriority) refers to port.o(.data) for .data
    port.o(i.xPortStartScheduler) refers to port.o(.emb_text) for __asm___6_port_c_39a90d8d__prvEnableVFP
    port.o(i.xPortStartScheduler) refers to port.o(.data) for .data
    port.o(i.xPortStartScheduler) refers to system_stm32f4xx.o(.data) for SystemCoreClock
    queue.o(i.pcQueueGetName) refers to queue.o(.bss) for .bss
    queue.o(i.prvUnlockQueue) refers to port.o(i.vPortEnterCritical) for vPortEnterCritical
    queue.o(i.prvUnlockQueue) refers to tasks.o(i.xTaskRemoveFromEventList) for xTaskRemoveFromEventList
    queue.o(i.prvUnlockQueue) refers to tasks.o(i.vTaskMissedYield) for vTaskMissedYield
    queue.o(i.prvUnlockQueue) refers to port.o(i.vPortExitCritical) for vPortExitCritical
    queue.o(i.uxQueueMessagesWaiting) refers to port.o(i.vPortEnterCritical) for vPortEnterCritical
    queue.o(i.uxQueueMessagesWaiting) refers to port.o(i.vPortExitCritical) for vPortExitCritical
    queue.o(i.uxQueueSpacesAvailable) refers to port.o(i.vPortEnterCritical) for vPortEnterCritical
    queue.o(i.uxQueueSpacesAvailable) refers to port.o(i.vPortExitCritical) for vPortExitCritical
    queue.o(i.vQueueAddToRegistry) refers to queue.o(.bss) for .bss
    queue.o(i.vQueueDelete) refers to heap_2.o(i.vPortFree) for vPortFree
    queue.o(i.vQueueDelete) refers to queue.o(.bss) for .bss
    queue.o(i.vQueueUnregisterQueue) refers to queue.o(.bss) for .bss
    queue.o(i.vQueueWaitForMessageRestricted) refers to port.o(i.vPortEnterCritical) for vPortEnterCritical
    queue.o(i.vQueueWaitForMessageRestricted) refers to port.o(i.vPortExitCritical) for vPortExitCritical
    queue.o(i.vQueueWaitForMessageRestricted) refers to tasks.o(i.vTaskPlaceOnEventListRestricted) for vTaskPlaceOnEventListRestricted
    queue.o(i.vQueueWaitForMessageRestricted) refers to queue.o(i.prvUnlockQueue) for prvUnlockQueue
    queue.o(i.xQueueCreateCountingSemaphore) refers to queue.o(i.xQueueGenericCreate) for xQueueGenericCreate
    queue.o(i.xQueueCreateMutex) refers to queue.o(i.xQueueGenericCreate) for xQueueGenericCreate
    queue.o(i.xQueueCreateMutex) refers to queue.o(i.xQueueGenericSend) for xQueueGenericSend
    queue.o(i.xQueueGenericCreate) refers to heap_2.o(i.pvPortMalloc) for pvPortMalloc
    queue.o(i.xQueueGenericCreate) refers to port.o(i.vPortEnterCritical) for vPortEnterCritical
    queue.o(i.xQueueGenericCreate) refers to list.o(i.vListInitialise) for vListInitialise
    queue.o(i.xQueueGenericCreate) refers to port.o(i.vPortExitCritical) for vPortExitCritical
    queue.o(i.xQueueGenericReset) refers to port.o(i.vPortEnterCritical) for vPortEnterCritical
    queue.o(i.xQueueGenericReset) refers to list.o(i.vListInitialise) for vListInitialise
    queue.o(i.xQueueGenericReset) refers to port.o(i.vPortExitCritical) for vPortExitCritical
    queue.o(i.xQueueGenericReset) refers to tasks.o(i.xTaskRemoveFromEventList) for xTaskRemoveFromEventList
    queue.o(i.xQueueGenericSend) refers to tasks.o(i.xTaskGetSchedulerState) for xTaskGetSchedulerState
    queue.o(i.xQueueGenericSend) refers to port.o(i.vPortEnterCritical) for vPortEnterCritical
    queue.o(i.xQueueGenericSend) refers to memmovea.o(.text) for __aeabi_memcpy
    queue.o(i.xQueueGenericSend) refers to tasks.o(i.xTaskPriorityDisinherit) for xTaskPriorityDisinherit
    queue.o(i.xQueueGenericSend) refers to tasks.o(i.xTaskRemoveFromEventList) for xTaskRemoveFromEventList
    queue.o(i.xQueueGenericSend) refers to port.o(i.vPortExitCritical) for vPortExitCritical
    queue.o(i.xQueueGenericSend) refers to tasks.o(i.vTaskInternalSetTimeOutState) for vTaskInternalSetTimeOutState
    queue.o(i.xQueueGenericSend) refers to tasks.o(i.vTaskSuspendAll) for vTaskSuspendAll
    queue.o(i.xQueueGenericSend) refers to tasks.o(i.xTaskCheckForTimeOut) for xTaskCheckForTimeOut
    queue.o(i.xQueueGenericSend) refers to queue.o(i.prvUnlockQueue) for prvUnlockQueue
    queue.o(i.xQueueGenericSend) refers to tasks.o(i.xTaskResumeAll) for xTaskResumeAll
    queue.o(i.xQueueGenericSend) refers to tasks.o(i.vTaskPlaceOnEventList) for vTaskPlaceOnEventList
    queue.o(i.xQueueGenericSendFromISR) refers to port.o(i.vPortValidateInterruptPriority) for vPortValidateInterruptPriority
    queue.o(i.xQueueGenericSendFromISR) refers to memmovea.o(.text) for __aeabi_memcpy
    queue.o(i.xQueueGenericSendFromISR) refers to tasks.o(i.xTaskPriorityDisinherit) for xTaskPriorityDisinherit
    queue.o(i.xQueueGenericSendFromISR) refers to tasks.o(i.xTaskRemoveFromEventList) for xTaskRemoveFromEventList
    queue.o(i.xQueueGiveFromISR) refers to port.o(i.vPortValidateInterruptPriority) for vPortValidateInterruptPriority
    queue.o(i.xQueueGiveFromISR) refers to tasks.o(i.xTaskRemoveFromEventList) for xTaskRemoveFromEventList
    queue.o(i.xQueueGiveMutexRecursive) refers to tasks.o(i.xTaskGetCurrentTaskHandle) for xTaskGetCurrentTaskHandle
    queue.o(i.xQueueGiveMutexRecursive) refers to queue.o(i.xQueueGenericSend) for xQueueGenericSend
    queue.o(i.xQueuePeek) refers to tasks.o(i.xTaskGetSchedulerState) for xTaskGetSchedulerState
    queue.o(i.xQueuePeek) refers to port.o(i.vPortEnterCritical) for vPortEnterCritical
    queue.o(i.xQueuePeek) refers to memmovea.o(.text) for __aeabi_memcpy
    queue.o(i.xQueuePeek) refers to tasks.o(i.xTaskRemoveFromEventList) for xTaskRemoveFromEventList
    queue.o(i.xQueuePeek) refers to port.o(i.vPortExitCritical) for vPortExitCritical
    queue.o(i.xQueuePeek) refers to tasks.o(i.vTaskInternalSetTimeOutState) for vTaskInternalSetTimeOutState
    queue.o(i.xQueuePeek) refers to tasks.o(i.vTaskSuspendAll) for vTaskSuspendAll
    queue.o(i.xQueuePeek) refers to tasks.o(i.xTaskCheckForTimeOut) for xTaskCheckForTimeOut
    queue.o(i.xQueuePeek) refers to queue.o(i.prvUnlockQueue) for prvUnlockQueue
    queue.o(i.xQueuePeek) refers to tasks.o(i.xTaskResumeAll) for xTaskResumeAll
    queue.o(i.xQueuePeek) refers to tasks.o(i.vTaskPlaceOnEventList) for vTaskPlaceOnEventList
    queue.o(i.xQueuePeekFromISR) refers to port.o(i.vPortValidateInterruptPriority) for vPortValidateInterruptPriority
    queue.o(i.xQueuePeekFromISR) refers to memmovea.o(.text) for __aeabi_memcpy
    queue.o(i.xQueueReceive) refers to tasks.o(i.xTaskGetSchedulerState) for xTaskGetSchedulerState
    queue.o(i.xQueueReceive) refers to port.o(i.vPortEnterCritical) for vPortEnterCritical
    queue.o(i.xQueueReceive) refers to memmovea.o(.text) for __aeabi_memcpy
    queue.o(i.xQueueReceive) refers to tasks.o(i.xTaskRemoveFromEventList) for xTaskRemoveFromEventList
    queue.o(i.xQueueReceive) refers to port.o(i.vPortExitCritical) for vPortExitCritical
    queue.o(i.xQueueReceive) refers to tasks.o(i.vTaskInternalSetTimeOutState) for vTaskInternalSetTimeOutState
    queue.o(i.xQueueReceive) refers to tasks.o(i.vTaskSuspendAll) for vTaskSuspendAll
    queue.o(i.xQueueReceive) refers to tasks.o(i.xTaskCheckForTimeOut) for xTaskCheckForTimeOut
    queue.o(i.xQueueReceive) refers to queue.o(i.prvUnlockQueue) for prvUnlockQueue
    queue.o(i.xQueueReceive) refers to tasks.o(i.xTaskResumeAll) for xTaskResumeAll
    queue.o(i.xQueueReceive) refers to tasks.o(i.vTaskPlaceOnEventList) for vTaskPlaceOnEventList
    queue.o(i.xQueueReceiveFromISR) refers to port.o(i.vPortValidateInterruptPriority) for vPortValidateInterruptPriority
    queue.o(i.xQueueReceiveFromISR) refers to memmovea.o(.text) for __aeabi_memcpy
    queue.o(i.xQueueReceiveFromISR) refers to tasks.o(i.xTaskRemoveFromEventList) for xTaskRemoveFromEventList
    queue.o(i.xQueueSemaphoreTake) refers to tasks.o(i.xTaskGetSchedulerState) for xTaskGetSchedulerState
    queue.o(i.xQueueSemaphoreTake) refers to port.o(i.vPortEnterCritical) for vPortEnterCritical
    queue.o(i.xQueueSemaphoreTake) refers to tasks.o(i.pvTaskIncrementMutexHeldCount) for pvTaskIncrementMutexHeldCount
    queue.o(i.xQueueSemaphoreTake) refers to tasks.o(i.xTaskRemoveFromEventList) for xTaskRemoveFromEventList
    queue.o(i.xQueueSemaphoreTake) refers to port.o(i.vPortExitCritical) for vPortExitCritical
    queue.o(i.xQueueSemaphoreTake) refers to tasks.o(i.vTaskInternalSetTimeOutState) for vTaskInternalSetTimeOutState
    queue.o(i.xQueueSemaphoreTake) refers to tasks.o(i.vTaskSuspendAll) for vTaskSuspendAll
    queue.o(i.xQueueSemaphoreTake) refers to tasks.o(i.xTaskCheckForTimeOut) for xTaskCheckForTimeOut
    queue.o(i.xQueueSemaphoreTake) refers to queue.o(i.prvUnlockQueue) for prvUnlockQueue
    queue.o(i.xQueueSemaphoreTake) refers to tasks.o(i.xTaskResumeAll) for xTaskResumeAll
    queue.o(i.xQueueSemaphoreTake) refers to tasks.o(i.xTaskPriorityInherit) for xTaskPriorityInherit
    queue.o(i.xQueueSemaphoreTake) refers to tasks.o(i.vTaskPlaceOnEventList) for vTaskPlaceOnEventList
    queue.o(i.xQueueSemaphoreTake) refers to tasks.o(i.vTaskPriorityDisinheritAfterTimeout) for vTaskPriorityDisinheritAfterTimeout
    queue.o(i.xQueueTakeMutexRecursive) refers to tasks.o(i.xTaskGetCurrentTaskHandle) for xTaskGetCurrentTaskHandle
    queue.o(i.xQueueTakeMutexRecursive) refers to queue.o(i.xQueueSemaphoreTake) for xQueueSemaphoreTake
    tasks.o(i.eTaskGetState) refers to port.o(i.vPortEnterCritical) for vPortEnterCritical
    tasks.o(i.eTaskGetState) refers to port.o(i.vPortExitCritical) for vPortExitCritical
    tasks.o(i.eTaskGetState) refers to tasks.o(.data) for .data
    tasks.o(i.eTaskGetState) refers to tasks.o(.bss) for .bss
    tasks.o(i.pcTaskGetName) refers to tasks.o(.data) for .data
    tasks.o(i.prvAddCurrentTaskToDelayedList) refers to list.o(i.uxListRemove) for uxListRemove
    tasks.o(i.prvAddCurrentTaskToDelayedList) refers to list.o(i.vListInsertEnd) for vListInsertEnd
    tasks.o(i.prvAddCurrentTaskToDelayedList) refers to list.o(i.vListInsert) for vListInsert
    tasks.o(i.prvAddCurrentTaskToDelayedList) refers to tasks.o(.data) for .data
    tasks.o(i.prvAddCurrentTaskToDelayedList) refers to tasks.o(.bss) for .bss
    tasks.o(i.prvIdleTask) refers to port.o(i.vPortEnterCritical) for vPortEnterCritical
    tasks.o(i.prvIdleTask) refers to list.o(i.uxListRemove) for uxListRemove
    tasks.o(i.prvIdleTask) refers to port.o(i.vPortExitCritical) for vPortExitCritical
    tasks.o(i.prvIdleTask) refers to heap_2.o(i.vPortFree) for vPortFree
    tasks.o(i.prvIdleTask) refers to tasks.o(.data) for .data
    tasks.o(i.prvIdleTask) refers to tasks.o(.bss) for .bss
    tasks.o(i.prvListTasksWithinSingleList) refers to tasks.o(i.xTaskResumeAll) for xTaskResumeAll
    tasks.o(i.prvListTasksWithinSingleList) refers to port.o(i.vPortEnterCritical) for vPortEnterCritical
    tasks.o(i.prvListTasksWithinSingleList) refers to port.o(i.vPortExitCritical) for vPortExitCritical
    tasks.o(i.prvListTasksWithinSingleList) refers to tasks.o(.data) for .data
    tasks.o(i.prvListTasksWithinSingleList) refers to tasks.o(.bss) for .bss
    tasks.o(i.pvTaskIncrementMutexHeldCount) refers to tasks.o(.data) for .data
    tasks.o(i.ulTaskNotifyTake) refers to port.o(i.vPortEnterCritical) for vPortEnterCritical
    tasks.o(i.ulTaskNotifyTake) refers to tasks.o(i.prvAddCurrentTaskToDelayedList) for prvAddCurrentTaskToDelayedList
    tasks.o(i.ulTaskNotifyTake) refers to port.o(i.vPortExitCritical) for vPortExitCritical
    tasks.o(i.ulTaskNotifyTake) refers to tasks.o(.data) for .data
